
D:/work/2022/al9000/sw/debugger/al_openocd/contrib/loaders/flash/qspi/dwcssi/build/flash_async_riscv_64.elf:     file format elf64-littleriscv


Disassembly of section .text:

0000000061000000 <_start>:
    61000000:	00001117          	auipc	sp,0x1
    61000004:	a2810113          	addi	sp,sp,-1496 # 61000a28 <stack_end>
    61000008:	710000ef          	jal	ra,61000718 <flash_dwcssi>
    6100000c:	00100073          	ebreak

0000000061000010 <wait_fifo>:
    61000010:	00050713          	mv	a4,a0
    61000014:	00072683          	lw	a3,0(a4)
    61000018:	00472783          	lw	a5,4(a4)
    6100001c:	0006869b          	sext.w	a3,a3
    61000020:	0007851b          	sext.w	a0,a5
    61000024:	fea688e3          	beq	a3,a0,61000014 <wait_fifo+0x4>
    61000028:	00008067          	ret

000000006100002c <dwcssi_get_bits>:
    6100002c:	02059793          	slli	a5,a1,0x20
    61000030:	01e7d593          	srli	a1,a5,0x1e
    61000034:	00b50533          	add	a0,a0,a1
    61000038:	00052783          	lw	a5,0(a0)
    6100003c:	0007879b          	sext.w	a5,a5
    61000040:	00c7f7b3          	and	a5,a5,a2
    61000044:	00d7d53b          	srlw	a0,a5,a3
    61000048:	00008067          	ret

000000006100004c <dwcssi_set_bits>:
    6100004c:	02059793          	slli	a5,a1,0x20
    61000050:	01e7d593          	srli	a1,a5,0x1e
    61000054:	00b50533          	add	a0,a0,a1
    61000058:	00052783          	lw	a5,0(a0)
    6100005c:	0007879b          	sext.w	a5,a5
    61000060:	00c7c633          	xor	a2,a5,a2
    61000064:	00d67633          	and	a2,a2,a3
    61000068:	00c7c7b3          	xor	a5,a5,a2
    6100006c:	00f52023          	sw	a5,0(a0)
    61000070:	00008067          	ret

0000000061000074 <dwcssi_disable>:
    61000074:	00852783          	lw	a5,8(a0)
    61000078:	0007879b          	sext.w	a5,a5
    6100007c:	ffe7f793          	andi	a5,a5,-2
    61000080:	00f52423          	sw	a5,8(a0)
    61000084:	00008067          	ret

0000000061000088 <dwcssi_enable>:
    61000088:	00852783          	lw	a5,8(a0)
    6100008c:	0007879b          	sext.w	a5,a5
    61000090:	0017e793          	ori	a5,a5,1
    61000094:	00f52423          	sw	a5,8(a0)
    61000098:	00008067          	ret

000000006100009c <dwcssi_config_CTRLR0>:
    6100009c:	00c007b7          	lui	a5,0xc00
    610000a0:	0166161b          	slliw	a2,a2,0x16
    610000a4:	00f67633          	and	a2,a2,a5
    610000a8:	000017b7          	lui	a5,0x1
    610000ac:	00f5f593          	andi	a1,a1,15
    610000b0:	00a6969b          	slliw	a3,a3,0xa
    610000b4:	c0078793          	addi	a5,a5,-1024 # c00 <_start-0x60fff400>
    610000b8:	00b66633          	or	a2,a2,a1
    610000bc:	00f6f6b3          	and	a3,a3,a5
    610000c0:	00d66633          	or	a2,a2,a3
    610000c4:	00c016b7          	lui	a3,0xc01
    610000c8:	c0f68693          	addi	a3,a3,-1009 # c00c0f <_start-0x603ff3f1>
    610000cc:	0006061b          	sext.w	a2,a2
    610000d0:	00000593          	li	a1,0
    610000d4:	f79ff06f          	j	6100004c <dwcssi_set_bits>

00000000610000d8 <dwcssi_config_CTRLR1>:
    610000d8:	000106b7          	lui	a3,0x10
    610000dc:	fff68693          	addi	a3,a3,-1 # ffff <_start-0x60ff0001>
    610000e0:	00d5f633          	and	a2,a1,a3
    610000e4:	00100593          	li	a1,1
    610000e8:	f65ff06f          	j	6100004c <dwcssi_set_bits>

00000000610000ec <dwcssi_config_RXFTLR>:
    610000ec:	0ff5f613          	zext.b	a2,a1
    610000f0:	0ff00693          	li	a3,255
    610000f4:	00700593          	li	a1,7
    610000f8:	f55ff06f          	j	6100004c <dwcssi_set_bits>

00000000610000fc <dwcssi_config_TXFTLR>:
    610000fc:	0106161b          	slliw	a2,a2,0x10
    61000100:	00ff07b7          	lui	a5,0xff0
    61000104:	0ff5f593          	zext.b	a1,a1
    61000108:	00f67633          	and	a2,a2,a5
    6100010c:	00b66633          	or	a2,a2,a1
    61000110:	00ff06b7          	lui	a3,0xff0
    61000114:	0ff68693          	addi	a3,a3,255 # ff00ff <_start-0x6000ff01>
    61000118:	0006061b          	sext.w	a2,a2
    6100011c:	00600593          	li	a1,6
    61000120:	f2dff06f          	j	6100004c <dwcssi_set_bits>

0000000061000124 <dwcssi_config_eeprom>:
    61000124:	fe010113          	addi	sp,sp,-32
    61000128:	00113c23          	sd	ra,24(sp)
    6100012c:	00813823          	sd	s0,16(sp)
    61000130:	00913423          	sd	s1,8(sp)
    61000134:	00050413          	mv	s0,a0
    61000138:	00058493          	mv	s1,a1
    6100013c:	f39ff0ef          	jal	ra,61000074 <dwcssi_disable>
    61000140:	00300693          	li	a3,3
    61000144:	00000613          	li	a2,0
    61000148:	00040513          	mv	a0,s0
    6100014c:	00700593          	li	a1,7
    61000150:	f4dff0ef          	jal	ra,6100009c <dwcssi_config_CTRLR0>
    61000154:	fff4859b          	addiw	a1,s1,-1
    61000158:	00040513          	mv	a0,s0
    6100015c:	f7dff0ef          	jal	ra,610000d8 <dwcssi_config_CTRLR1>
    61000160:	00040513          	mv	a0,s0
    61000164:	00000613          	li	a2,0
    61000168:	00000593          	li	a1,0
    6100016c:	f91ff0ef          	jal	ra,610000fc <dwcssi_config_TXFTLR>
    61000170:	00040513          	mv	a0,s0
    61000174:	01013403          	ld	s0,16(sp)
    61000178:	01813083          	ld	ra,24(sp)
    6100017c:	00813483          	ld	s1,8(sp)
    61000180:	02010113          	addi	sp,sp,32
    61000184:	f05ff06f          	j	61000088 <dwcssi_enable>

0000000061000188 <dwcssi_config_tx>:
    61000188:	fd010113          	addi	sp,sp,-48
    6100018c:	02113423          	sd	ra,40(sp)
    61000190:	02813023          	sd	s0,32(sp)
    61000194:	00913c23          	sd	s1,24(sp)
    61000198:	00050413          	mv	s0,a0
    6100019c:	00058493          	mv	s1,a1
    610001a0:	01213823          	sd	s2,16(sp)
    610001a4:	01313423          	sd	s3,8(sp)
    610001a8:	00070913          	mv	s2,a4
    610001ac:	01413023          	sd	s4,0(sp)
    610001b0:	00060993          	mv	s3,a2
    610001b4:	00068a13          	mv	s4,a3
    610001b8:	ebdff0ef          	jal	ra,61000074 <dwcssi_disable>
    610001bc:	00100693          	li	a3,1
    610001c0:	00048613          	mv	a2,s1
    610001c4:	00700593          	li	a1,7
    610001c8:	00040513          	mv	a0,s0
    610001cc:	ed1ff0ef          	jal	ra,6100009c <dwcssi_config_CTRLR0>
    610001d0:	000a0613          	mv	a2,s4
    610001d4:	00000593          	li	a1,0
    610001d8:	00040513          	mv	a0,s0
    610001dc:	f21ff0ef          	jal	ra,610000fc <dwcssi_config_TXFTLR>
    610001e0:	00200793          	li	a5,2
    610001e4:	02f49263          	bne	s1,a5,61000208 <dwcssi_config_tx+0x80>
    610001e8:	fff9859b          	addiw	a1,s3,-1
    610001ec:	00040513          	mv	a0,s0
    610001f0:	ee9ff0ef          	jal	ra,610000d8 <dwcssi_config_CTRLR1>
    610001f4:	fff00693          	li	a3,-1
    610001f8:	00090613          	mv	a2,s2
    610001fc:	03d00593          	li	a1,61
    61000200:	00040513          	mv	a0,s0
    61000204:	e49ff0ef          	jal	ra,6100004c <dwcssi_set_bits>
    61000208:	00040513          	mv	a0,s0
    6100020c:	02013403          	ld	s0,32(sp)
    61000210:	02813083          	ld	ra,40(sp)
    61000214:	01813483          	ld	s1,24(sp)
    61000218:	01013903          	ld	s2,16(sp)
    6100021c:	00813983          	ld	s3,8(sp)
    61000220:	00013a03          	ld	s4,0(sp)
    61000224:	03010113          	addi	sp,sp,48
    61000228:	e61ff06f          	j	61000088 <dwcssi_enable>

000000006100022c <dwcssi_config_rx>:
    6100022c:	fd010113          	addi	sp,sp,-48
    61000230:	02113423          	sd	ra,40(sp)
    61000234:	02813023          	sd	s0,32(sp)
    61000238:	00913c23          	sd	s1,24(sp)
    6100023c:	00050413          	mv	s0,a0
    61000240:	00058493          	mv	s1,a1
    61000244:	01213823          	sd	s2,16(sp)
    61000248:	01313423          	sd	s3,8(sp)
    6100024c:	00068913          	mv	s2,a3
    61000250:	00060993          	mv	s3,a2
    61000254:	e21ff0ef          	jal	ra,61000074 <dwcssi_disable>
    61000258:	00200693          	li	a3,2
    6100025c:	00048613          	mv	a2,s1
    61000260:	00700593          	li	a1,7
    61000264:	00040513          	mv	a0,s0
    61000268:	e35ff0ef          	jal	ra,6100009c <dwcssi_config_CTRLR0>
    6100026c:	00000593          	li	a1,0
    61000270:	00040513          	mv	a0,s0
    61000274:	e79ff0ef          	jal	ra,610000ec <dwcssi_config_RXFTLR>
    61000278:	00098593          	mv	a1,s3
    6100027c:	00040513          	mv	a0,s0
    61000280:	e59ff0ef          	jal	ra,610000d8 <dwcssi_config_CTRLR1>
    61000284:	00200793          	li	a5,2
    61000288:	00f49c63          	bne	s1,a5,610002a0 <dwcssi_config_rx+0x74>
    6100028c:	fff00693          	li	a3,-1
    61000290:	00090613          	mv	a2,s2
    61000294:	03d00593          	li	a1,61
    61000298:	00040513          	mv	a0,s0
    6100029c:	db1ff0ef          	jal	ra,6100004c <dwcssi_set_bits>
    610002a0:	00040513          	mv	a0,s0
    610002a4:	02013403          	ld	s0,32(sp)
    610002a8:	02813083          	ld	ra,40(sp)
    610002ac:	01813483          	ld	s1,24(sp)
    610002b0:	01013903          	ld	s2,16(sp)
    610002b4:	00813983          	ld	s3,8(sp)
    610002b8:	03010113          	addi	sp,sp,48
    610002bc:	dcdff06f          	j	61000088 <dwcssi_enable>

00000000610002c0 <dwcssi_tx_empty>:
    610002c0:	ff010113          	addi	sp,sp,-16
    610002c4:	00813023          	sd	s0,0(sp)
    610002c8:	00113423          	sd	ra,8(sp)
    610002cc:	00050413          	mv	s0,a0
    610002d0:	00200693          	li	a3,2
    610002d4:	00400613          	li	a2,4
    610002d8:	00a00593          	li	a1,10
    610002dc:	00040513          	mv	a0,s0
    610002e0:	d4dff0ef          	jal	ra,6100002c <dwcssi_get_bits>
    610002e4:	fe0506e3          	beqz	a0,610002d0 <dwcssi_tx_empty+0x10>
    610002e8:	00813083          	ld	ra,8(sp)
    610002ec:	00013403          	ld	s0,0(sp)
    610002f0:	01010113          	addi	sp,sp,16
    610002f4:	00008067          	ret

00000000610002f8 <dwcssi_txwm_wait>:
    610002f8:	fe010113          	addi	sp,sp,-32
    610002fc:	00813823          	sd	s0,16(sp)
    61000300:	00913423          	sd	s1,8(sp)
    61000304:	00113c23          	sd	ra,24(sp)
    61000308:	00050413          	mv	s0,a0
    6100030c:	3e900493          	li	s1,1001
    61000310:	00200693          	li	a3,2
    61000314:	00400613          	li	a2,4
    61000318:	00a00593          	li	a1,10
    6100031c:	00040513          	mv	a0,s0
    61000320:	d0dff0ef          	jal	ra,6100002c <dwcssi_get_bits>
    61000324:	02051263          	bnez	a0,61000348 <dwcssi_txwm_wait+0x50>
    61000328:	fff4849b          	addiw	s1,s1,-1
    6100032c:	fe0492e3          	bnez	s1,61000310 <dwcssi_txwm_wait+0x18>
    61000330:	00200537          	lui	a0,0x200
    61000334:	01813083          	ld	ra,24(sp)
    61000338:	01013403          	ld	s0,16(sp)
    6100033c:	00813483          	ld	s1,8(sp)
    61000340:	02010113          	addi	sp,sp,32
    61000344:	00008067          	ret
    61000348:	3e900493          	li	s1,1001
    6100034c:	00000693          	li	a3,0
    61000350:	00100613          	li	a2,1
    61000354:	00a00593          	li	a1,10
    61000358:	00040513          	mv	a0,s0
    6100035c:	cd1ff0ef          	jal	ra,6100002c <dwcssi_get_bits>
    61000360:	fc050ae3          	beqz	a0,61000334 <dwcssi_txwm_wait+0x3c>
    61000364:	fff4849b          	addiw	s1,s1,-1
    61000368:	fe0492e3          	bnez	s1,6100034c <dwcssi_txwm_wait+0x54>
    6100036c:	fc5ff06f          	j	61000330 <dwcssi_txwm_wait+0x38>

0000000061000370 <dwcssi_tx>:
    61000370:	fe010113          	addi	sp,sp,-32
    61000374:	00813823          	sd	s0,16(sp)
    61000378:	00913423          	sd	s1,8(sp)
    6100037c:	00113c23          	sd	ra,24(sp)
    61000380:	00050413          	mv	s0,a0
    61000384:	00058493          	mv	s1,a1
    61000388:	00100693          	li	a3,1
    6100038c:	00200613          	li	a2,2
    61000390:	00a00593          	li	a1,10
    61000394:	00040513          	mv	a0,s0
    61000398:	c95ff0ef          	jal	ra,6100002c <dwcssi_get_bits>
    6100039c:	fe0506e3          	beqz	a0,61000388 <dwcssi_tx+0x18>
    610003a0:	06942023          	sw	s1,96(s0)
    610003a4:	01813083          	ld	ra,24(sp)
    610003a8:	01013403          	ld	s0,16(sp)
    610003ac:	00813483          	ld	s1,8(sp)
    610003b0:	00000513          	li	a0,0
    610003b4:	02010113          	addi	sp,sp,32
    610003b8:	00008067          	ret

00000000610003bc <dwcssi_tx_buf_no_wait>:
    610003bc:	fd010113          	addi	sp,sp,-48
    610003c0:	02813023          	sd	s0,32(sp)
    610003c4:	00913c23          	sd	s1,24(sp)
    610003c8:	01213823          	sd	s2,16(sp)
    610003cc:	01313423          	sd	s3,8(sp)
    610003d0:	02113423          	sd	ra,40(sp)
    610003d4:	00050913          	mv	s2,a0
    610003d8:	00058993          	mv	s3,a1
    610003dc:	00060493          	mv	s1,a2
    610003e0:	00000413          	li	s0,0
    610003e4:	0004079b          	sext.w	a5,s0
    610003e8:	0297e263          	bltu	a5,s1,6100040c <dwcssi_tx_buf_no_wait+0x50>
    610003ec:	02813083          	ld	ra,40(sp)
    610003f0:	02013403          	ld	s0,32(sp)
    610003f4:	01813483          	ld	s1,24(sp)
    610003f8:	01013903          	ld	s2,16(sp)
    610003fc:	00813983          	ld	s3,8(sp)
    61000400:	00000513          	li	a0,0
    61000404:	03010113          	addi	sp,sp,48
    61000408:	00008067          	ret
    6100040c:	008987b3          	add	a5,s3,s0
    61000410:	0007c583          	lbu	a1,0(a5) # ff0000 <_start-0x60010000>
    61000414:	00090513          	mv	a0,s2
    61000418:	00140413          	addi	s0,s0,1
    6100041c:	f55ff0ef          	jal	ra,61000370 <dwcssi_tx>
    61000420:	fc5ff06f          	j	610003e4 <dwcssi_tx_buf_no_wait+0x28>

0000000061000424 <dwcssi_tx_buf>:
    61000424:	ff010113          	addi	sp,sp,-16
    61000428:	00813023          	sd	s0,0(sp)
    6100042c:	00113423          	sd	ra,8(sp)
    61000430:	00050413          	mv	s0,a0
    61000434:	f89ff0ef          	jal	ra,610003bc <dwcssi_tx_buf_no_wait>
    61000438:	00040513          	mv	a0,s0
    6100043c:	00013403          	ld	s0,0(sp)
    61000440:	00813083          	ld	ra,8(sp)
    61000444:	01010113          	addi	sp,sp,16
    61000448:	eb1ff06f          	j	610002f8 <dwcssi_txwm_wait>

000000006100044c <dwcssi_rx>:
    6100044c:	fe010113          	addi	sp,sp,-32
    61000450:	00813823          	sd	s0,16(sp)
    61000454:	00300693          	li	a3,3
    61000458:	00058413          	mv	s0,a1
    6100045c:	fff00613          	li	a2,-1
    61000460:	00a00593          	li	a1,10
    61000464:	00913423          	sd	s1,8(sp)
    61000468:	00113c23          	sd	ra,24(sp)
    6100046c:	00050493          	mv	s1,a0
    61000470:	bbdff0ef          	jal	ra,6100002c <dwcssi_get_bits>
    61000474:	02050663          	beqz	a0,610004a0 <dwcssi_rx+0x54>
    61000478:	0604a783          	lw	a5,96(s1)
    6100047c:	00000513          	li	a0,0
    61000480:	0007879b          	sext.w	a5,a5
    61000484:	00040463          	beqz	s0,6100048c <dwcssi_rx+0x40>
    61000488:	00f40023          	sb	a5,0(s0)
    6100048c:	01813083          	ld	ra,24(sp)
    61000490:	01013403          	ld	s0,16(sp)
    61000494:	00813483          	ld	s1,8(sp)
    61000498:	02010113          	addi	sp,sp,32
    6100049c:	00008067          	ret
    610004a0:	00100537          	lui	a0,0x100
    610004a4:	fe9ff06f          	j	6100048c <dwcssi_rx+0x40>

00000000610004a8 <dwcssi_rx_buf>:
    610004a8:	fd010113          	addi	sp,sp,-48
    610004ac:	02813023          	sd	s0,32(sp)
    610004b0:	00913c23          	sd	s1,24(sp)
    610004b4:	01213823          	sd	s2,16(sp)
    610004b8:	01313423          	sd	s3,8(sp)
    610004bc:	02113423          	sd	ra,40(sp)
    610004c0:	00050913          	mv	s2,a0
    610004c4:	00058993          	mv	s3,a1
    610004c8:	00060493          	mv	s1,a2
    610004cc:	00000413          	li	s0,0
    610004d0:	02946263          	bltu	s0,s1,610004f4 <dwcssi_rx_buf+0x4c>
    610004d4:	02813083          	ld	ra,40(sp)
    610004d8:	02013403          	ld	s0,32(sp)
    610004dc:	01813483          	ld	s1,24(sp)
    610004e0:	01013903          	ld	s2,16(sp)
    610004e4:	00813983          	ld	s3,8(sp)
    610004e8:	00000513          	li	a0,0
    610004ec:	03010113          	addi	sp,sp,48
    610004f0:	00008067          	ret
    610004f4:	02041593          	slli	a1,s0,0x20
    610004f8:	0205d593          	srli	a1,a1,0x20
    610004fc:	00b985b3          	add	a1,s3,a1
    61000500:	00090513          	mv	a0,s2
    61000504:	f49ff0ef          	jal	ra,6100044c <dwcssi_rx>
    61000508:	fc0514e3          	bnez	a0,610004d0 <dwcssi_rx_buf+0x28>
    6100050c:	0014041b          	addiw	s0,s0,1
    61000510:	fc1ff06f          	j	610004d0 <dwcssi_rx_buf+0x28>

0000000061000514 <dwcssi_wait_flash_idle>:
    61000514:	fd010113          	addi	sp,sp,-48
    61000518:	00100593          	li	a1,1
    6100051c:	02813023          	sd	s0,32(sp)
    61000520:	00913c23          	sd	s1,24(sp)
    61000524:	02113423          	sd	ra,40(sp)
    61000528:	00050413          	mv	s0,a0
    6100052c:	00f10493          	addi	s1,sp,15
    61000530:	bf5ff0ef          	jal	ra,61000124 <dwcssi_config_eeprom>
    61000534:	00500593          	li	a1,5
    61000538:	00040513          	mv	a0,s0
    6100053c:	e35ff0ef          	jal	ra,61000370 <dwcssi_tx>
    61000540:	0005051b          	sext.w	a0,a0
    61000544:	00050e63          	beqz	a0,61000560 <dwcssi_wait_flash_idle+0x4c>
    61000548:	20056513          	ori	a0,a0,512
    6100054c:	02813083          	ld	ra,40(sp)
    61000550:	02013403          	ld	s0,32(sp)
    61000554:	01813483          	ld	s1,24(sp)
    61000558:	03010113          	addi	sp,sp,48
    6100055c:	00008067          	ret
    61000560:	00040513          	mv	a0,s0
    61000564:	d95ff0ef          	jal	ra,610002f8 <dwcssi_txwm_wait>
    61000568:	02051263          	bnez	a0,6100058c <dwcssi_wait_flash_idle+0x78>
    6100056c:	00048593          	mv	a1,s1
    61000570:	00040513          	mv	a0,s0
    61000574:	ed9ff0ef          	jal	ra,6100044c <dwcssi_rx>
    61000578:	fa051ee3          	bnez	a0,61000534 <dwcssi_wait_flash_idle+0x20>
    6100057c:	00f14783          	lbu	a5,15(sp)
    61000580:	0017f793          	andi	a5,a5,1
    61000584:	fa0798e3          	bnez	a5,61000534 <dwcssi_wait_flash_idle+0x20>
    61000588:	fc5ff06f          	j	6100054c <dwcssi_wait_flash_idle+0x38>
    6100058c:	30000513          	li	a0,768
    61000590:	fbdff06f          	j	6100054c <dwcssi_wait_flash_idle+0x38>

0000000061000594 <dwcssi_flash_wr_en>:
    61000594:	ff010113          	addi	sp,sp,-16
    61000598:	00000713          	li	a4,0
    6100059c:	00000693          	li	a3,0
    610005a0:	00000613          	li	a2,0
    610005a4:	00113423          	sd	ra,8(sp)
    610005a8:	00813023          	sd	s0,0(sp)
    610005ac:	00050413          	mv	s0,a0
    610005b0:	bd9ff0ef          	jal	ra,61000188 <dwcssi_config_tx>
    610005b4:	00600593          	li	a1,6
    610005b8:	00040513          	mv	a0,s0
    610005bc:	db5ff0ef          	jal	ra,61000370 <dwcssi_tx>
    610005c0:	00040513          	mv	a0,s0
    610005c4:	d35ff0ef          	jal	ra,610002f8 <dwcssi_txwm_wait>
    610005c8:	00813083          	ld	ra,8(sp)
    610005cc:	00013403          	ld	s0,0(sp)
    610005d0:	00000513          	li	a0,0
    610005d4:	01010113          	addi	sp,sp,16
    610005d8:	00008067          	ret

00000000610005dc <dwcssi_write_buffer>:
    610005dc:	fc010113          	addi	sp,sp,-64
    610005e0:	03213023          	sd	s2,32(sp)
    610005e4:	00058913          	mv	s2,a1
    610005e8:	00000593          	li	a1,0
    610005ec:	02113c23          	sd	ra,56(sp)
    610005f0:	02813823          	sd	s0,48(sp)
    610005f4:	02913423          	sd	s1,40(sp)
    610005f8:	01313c23          	sd	s3,24(sp)
    610005fc:	01413823          	sd	s4,16(sp)
    61000600:	00050413          	mv	s0,a0
    61000604:	00f13423          	sd	a5,8(sp)
    61000608:	00068493          	mv	s1,a3
    6100060c:	00060993          	mv	s3,a2
    61000610:	00070a13          	mv	s4,a4
    61000614:	f81ff0ef          	jal	ra,61000594 <dwcssi_flash_wr_en>
    61000618:	00813703          	ld	a4,8(sp)
    6100061c:	00048613          	mv	a2,s1
    61000620:	00400693          	li	a3,4
    61000624:	00040513          	mv	a0,s0
    61000628:	00200593          	li	a1,2
    6100062c:	b5dff0ef          	jal	ra,61000188 <dwcssi_config_tx>
    61000630:	000a0593          	mv	a1,s4
    61000634:	00040513          	mv	a0,s0
    61000638:	d39ff0ef          	jal	ra,61000370 <dwcssi_tx>
    6100063c:	00098593          	mv	a1,s3
    61000640:	00040513          	mv	a0,s0
    61000644:	d2dff0ef          	jal	ra,61000370 <dwcssi_tx>
    61000648:	00048613          	mv	a2,s1
    6100064c:	00090593          	mv	a1,s2
    61000650:	00040513          	mv	a0,s0
    61000654:	dd1ff0ef          	jal	ra,61000424 <dwcssi_tx_buf>
    61000658:	00040513          	mv	a0,s0
    6100065c:	03013403          	ld	s0,48(sp)
    61000660:	03813083          	ld	ra,56(sp)
    61000664:	02813483          	ld	s1,40(sp)
    61000668:	02013903          	ld	s2,32(sp)
    6100066c:	01813983          	ld	s3,24(sp)
    61000670:	01013a03          	ld	s4,16(sp)
    61000674:	04010113          	addi	sp,sp,64
    61000678:	e9dff06f          	j	61000514 <dwcssi_wait_flash_idle>

000000006100067c <dwcssi_read_page>:
    6100067c:	fd010113          	addi	sp,sp,-48
    61000680:	02113423          	sd	ra,40(sp)
    61000684:	02813023          	sd	s0,32(sp)
    61000688:	00913c23          	sd	s1,24(sp)
    6100068c:	01213823          	sd	s2,16(sp)
    61000690:	01313423          	sd	s3,8(sp)
    61000694:	01413023          	sd	s4,0(sp)
    61000698:	00068493          	mv	s1,a3
    6100069c:	00060993          	mv	s3,a2
    610006a0:	00070a13          	mv	s4,a4
    610006a4:	00050413          	mv	s0,a0
    610006a8:	00058913          	mv	s2,a1
    610006ac:	9c9ff0ef          	jal	ra,61000074 <dwcssi_disable>
    610006b0:	00048593          	mv	a1,s1
    610006b4:	00040513          	mv	a0,s0
    610006b8:	a21ff0ef          	jal	ra,610000d8 <dwcssi_config_CTRLR1>
    610006bc:	00040513          	mv	a0,s0
    610006c0:	9c9ff0ef          	jal	ra,61000088 <dwcssi_enable>
    610006c4:	000a0593          	mv	a1,s4
    610006c8:	00040513          	mv	a0,s0
    610006cc:	ca5ff0ef          	jal	ra,61000370 <dwcssi_tx>
    610006d0:	00098593          	mv	a1,s3
    610006d4:	00040513          	mv	a0,s0
    610006d8:	c99ff0ef          	jal	ra,61000370 <dwcssi_tx>
    610006dc:	00040513          	mv	a0,s0
    610006e0:	be1ff0ef          	jal	ra,610002c0 <dwcssi_tx_empty>
    610006e4:	00048613          	mv	a2,s1
    610006e8:	00090593          	mv	a1,s2
    610006ec:	00040513          	mv	a0,s0
    610006f0:	db9ff0ef          	jal	ra,610004a8 <dwcssi_rx_buf>
    610006f4:	02813083          	ld	ra,40(sp)
    610006f8:	02013403          	ld	s0,32(sp)
    610006fc:	01813483          	ld	s1,24(sp)
    61000700:	01013903          	ld	s2,16(sp)
    61000704:	00813983          	ld	s3,8(sp)
    61000708:	00013a03          	ld	s4,0(sp)
    6100070c:	00000513          	li	a0,0
    61000710:	03010113          	addi	sp,sp,48
    61000714:	00008067          	ret

0000000061000718 <flash_dwcssi>:
    61000718:	f8010113          	addi	sp,sp,-128
    6100071c:	06913423          	sd	s1,104(sp)
    61000720:	07213023          	sd	s2,96(sp)
    61000724:	05313c23          	sd	s3,88(sp)
    61000728:	05413823          	sd	s4,80(sp)
    6100072c:	05513423          	sd	s5,72(sp)
    61000730:	05613023          	sd	s6,64(sp)
    61000734:	03713c23          	sd	s7,56(sp)
    61000738:	03813823          	sd	s8,48(sp)
    6100073c:	03913423          	sd	s9,40(sp)
    61000740:	03a13023          	sd	s10,32(sp)
    61000744:	00050a13          	mv	s4,a0
    61000748:	06113c23          	sd	ra,120(sp)
    6100074c:	06813823          	sd	s0,112(sp)
    61000750:	01b13c23          	sd	s11,24(sp)
    61000754:	00058993          	mv	s3,a1
    61000758:	00060493          	mv	s1,a2
    6100075c:	00068913          	mv	s2,a3
    61000760:	00070a93          	mv	s5,a4
    61000764:	00078d13          	mv	s10,a5
    61000768:	00080b13          	mv	s6,a6
    6100076c:	00088b93          	mv	s7,a7
    61000770:	00000513          	li	a0,0
    61000774:	00058c1b          	sext.w	s8,a1
    61000778:	00868c93          	addi	s9,a3,8
    6100077c:	04904063          	bgtz	s1,610007bc <flash_dwcssi+0xa4>
    61000780:	07813083          	ld	ra,120(sp)
    61000784:	07013403          	ld	s0,112(sp)
    61000788:	06813483          	ld	s1,104(sp)
    6100078c:	06013903          	ld	s2,96(sp)
    61000790:	05813983          	ld	s3,88(sp)
    61000794:	05013a03          	ld	s4,80(sp)
    61000798:	04813a83          	ld	s5,72(sp)
    6100079c:	04013b03          	ld	s6,64(sp)
    610007a0:	03813b83          	ld	s7,56(sp)
    610007a4:	03013c03          	ld	s8,48(sp)
    610007a8:	02813c83          	ld	s9,40(sp)
    610007ac:	02013d03          	ld	s10,32(sp)
    610007b0:	01813d83          	ld	s11,24(sp)
    610007b4:	08010113          	addi	sp,sp,128
    610007b8:	00008067          	ret
    610007bc:	00090513          	mv	a0,s2
    610007c0:	851ff0ef          	jal	ra,61000010 <wait_fifo>
    610007c4:	02051413          	slli	s0,a0,0x20
    610007c8:	0004881b          	sext.w	a6,s1
    610007cc:	02045413          	srli	s0,s0,0x20
    610007d0:	00080d93          	mv	s11,a6
    610007d4:	0134c463          	blt	s1,s3,610007dc <flash_dwcssi+0xc4>
    610007d8:	000c0d93          	mv	s11,s8
    610007dc:	000b8793          	mv	a5,s7
    610007e0:	000b0713          	mv	a4,s6
    610007e4:	000d8693          	mv	a3,s11
    610007e8:	000d0613          	mv	a2,s10
    610007ec:	00040593          	mv	a1,s0
    610007f0:	000a0513          	mv	a0,s4
    610007f4:	01013423          	sd	a6,8(sp)
    610007f8:	de5ff0ef          	jal	ra,610005dc <dwcssi_write_buffer>
    610007fc:	020d9313          	slli	t1,s11,0x20
    61000800:	02035313          	srli	t1,t1,0x20
    61000804:	00640333          	add	t1,s0,t1
    61000808:	00813803          	ld	a6,8(sp)
    6100080c:	0005051b          	sext.w	a0,a0
    61000810:	01531463          	bne	t1,s5,61000818 <flash_dwcssi+0x100>
    61000814:	000c8313          	mv	t1,s9
    61000818:	00692223          	sw	t1,4(s2)
    6100081c:	01bd0d3b          	addw	s10,s10,s11
    61000820:	41b804bb          	subw	s1,a6,s11
    61000824:	f59ff06f          	j	6100077c <flash_dwcssi+0x64>

Disassembly of section .data:

0000000061000828 <stack>:
    61000828:	5309                	li	t1,-30
    6100082a:	00000867          	jalr	a6,zero # 0 <_start-0x61000000>
    6100082e:	0000                	unimp
    61000830:	5309                	li	t1,-30
    61000832:	00000867          	jalr	a6,zero # 0 <_start-0x61000000>
    61000836:	0000                	unimp
    61000838:	5309                	li	t1,-30
    6100083a:	00000867          	jalr	a6,zero # 0 <_start-0x61000000>
    6100083e:	0000                	unimp
    61000840:	5309                	li	t1,-30
    61000842:	00000867          	jalr	a6,zero # 0 <_start-0x61000000>
    61000846:	0000                	unimp
    61000848:	5309                	li	t1,-30
    6100084a:	00000867          	jalr	a6,zero # 0 <_start-0x61000000>
    6100084e:	0000                	unimp
    61000850:	5309                	li	t1,-30
    61000852:	00000867          	jalr	a6,zero # 0 <_start-0x61000000>
    61000856:	0000                	unimp
    61000858:	5309                	li	t1,-30
    6100085a:	00000867          	jalr	a6,zero # 0 <_start-0x61000000>
    6100085e:	0000                	unimp
    61000860:	5309                	li	t1,-30
    61000862:	00000867          	jalr	a6,zero # 0 <_start-0x61000000>
    61000866:	0000                	unimp
    61000868:	5309                	li	t1,-30
    6100086a:	00000867          	jalr	a6,zero # 0 <_start-0x61000000>
    6100086e:	0000                	unimp
    61000870:	5309                	li	t1,-30
    61000872:	00000867          	jalr	a6,zero # 0 <_start-0x61000000>
    61000876:	0000                	unimp
    61000878:	5309                	li	t1,-30
    6100087a:	00000867          	jalr	a6,zero # 0 <_start-0x61000000>
    6100087e:	0000                	unimp
    61000880:	5309                	li	t1,-30
    61000882:	00000867          	jalr	a6,zero # 0 <_start-0x61000000>
    61000886:	0000                	unimp
    61000888:	5309                	li	t1,-30
    6100088a:	00000867          	jalr	a6,zero # 0 <_start-0x61000000>
    6100088e:	0000                	unimp
    61000890:	5309                	li	t1,-30
    61000892:	00000867          	jalr	a6,zero # 0 <_start-0x61000000>
    61000896:	0000                	unimp
    61000898:	5309                	li	t1,-30
    6100089a:	00000867          	jalr	a6,zero # 0 <_start-0x61000000>
    6100089e:	0000                	unimp
    610008a0:	5309                	li	t1,-30
    610008a2:	00000867          	jalr	a6,zero # 0 <_start-0x61000000>
    610008a6:	0000                	unimp
    610008a8:	5309                	li	t1,-30
    610008aa:	00000867          	jalr	a6,zero # 0 <_start-0x61000000>
    610008ae:	0000                	unimp
    610008b0:	5309                	li	t1,-30
    610008b2:	00000867          	jalr	a6,zero # 0 <_start-0x61000000>
    610008b6:	0000                	unimp
    610008b8:	5309                	li	t1,-30
    610008ba:	00000867          	jalr	a6,zero # 0 <_start-0x61000000>
    610008be:	0000                	unimp
    610008c0:	5309                	li	t1,-30
    610008c2:	00000867          	jalr	a6,zero # 0 <_start-0x61000000>
    610008c6:	0000                	unimp
    610008c8:	5309                	li	t1,-30
    610008ca:	00000867          	jalr	a6,zero # 0 <_start-0x61000000>
    610008ce:	0000                	unimp
    610008d0:	5309                	li	t1,-30
    610008d2:	00000867          	jalr	a6,zero # 0 <_start-0x61000000>
    610008d6:	0000                	unimp
    610008d8:	5309                	li	t1,-30
    610008da:	00000867          	jalr	a6,zero # 0 <_start-0x61000000>
    610008de:	0000                	unimp
    610008e0:	5309                	li	t1,-30
    610008e2:	00000867          	jalr	a6,zero # 0 <_start-0x61000000>
    610008e6:	0000                	unimp
    610008e8:	5309                	li	t1,-30
    610008ea:	00000867          	jalr	a6,zero # 0 <_start-0x61000000>
    610008ee:	0000                	unimp
    610008f0:	5309                	li	t1,-30
    610008f2:	00000867          	jalr	a6,zero # 0 <_start-0x61000000>
    610008f6:	0000                	unimp
    610008f8:	5309                	li	t1,-30
    610008fa:	00000867          	jalr	a6,zero # 0 <_start-0x61000000>
    610008fe:	0000                	unimp
    61000900:	5309                	li	t1,-30
    61000902:	00000867          	jalr	a6,zero # 0 <_start-0x61000000>
    61000906:	0000                	unimp
    61000908:	5309                	li	t1,-30
    6100090a:	00000867          	jalr	a6,zero # 0 <_start-0x61000000>
    6100090e:	0000                	unimp
    61000910:	5309                	li	t1,-30
    61000912:	00000867          	jalr	a6,zero # 0 <_start-0x61000000>
    61000916:	0000                	unimp
    61000918:	5309                	li	t1,-30
    6100091a:	00000867          	jalr	a6,zero # 0 <_start-0x61000000>
    6100091e:	0000                	unimp
    61000920:	5309                	li	t1,-30
    61000922:	00000867          	jalr	a6,zero # 0 <_start-0x61000000>
    61000926:	0000                	unimp
    61000928:	5309                	li	t1,-30
    6100092a:	00000867          	jalr	a6,zero # 0 <_start-0x61000000>
    6100092e:	0000                	unimp
    61000930:	5309                	li	t1,-30
    61000932:	00000867          	jalr	a6,zero # 0 <_start-0x61000000>
    61000936:	0000                	unimp
    61000938:	5309                	li	t1,-30
    6100093a:	00000867          	jalr	a6,zero # 0 <_start-0x61000000>
    6100093e:	0000                	unimp
    61000940:	5309                	li	t1,-30
    61000942:	00000867          	jalr	a6,zero # 0 <_start-0x61000000>
    61000946:	0000                	unimp
    61000948:	5309                	li	t1,-30
    6100094a:	00000867          	jalr	a6,zero # 0 <_start-0x61000000>
    6100094e:	0000                	unimp
    61000950:	5309                	li	t1,-30
    61000952:	00000867          	jalr	a6,zero # 0 <_start-0x61000000>
    61000956:	0000                	unimp
    61000958:	5309                	li	t1,-30
    6100095a:	00000867          	jalr	a6,zero # 0 <_start-0x61000000>
    6100095e:	0000                	unimp
    61000960:	5309                	li	t1,-30
    61000962:	00000867          	jalr	a6,zero # 0 <_start-0x61000000>
    61000966:	0000                	unimp
    61000968:	5309                	li	t1,-30
    6100096a:	00000867          	jalr	a6,zero # 0 <_start-0x61000000>
    6100096e:	0000                	unimp
    61000970:	5309                	li	t1,-30
    61000972:	00000867          	jalr	a6,zero # 0 <_start-0x61000000>
    61000976:	0000                	unimp
    61000978:	5309                	li	t1,-30
    6100097a:	00000867          	jalr	a6,zero # 0 <_start-0x61000000>
    6100097e:	0000                	unimp
    61000980:	5309                	li	t1,-30
    61000982:	00000867          	jalr	a6,zero # 0 <_start-0x61000000>
    61000986:	0000                	unimp
    61000988:	5309                	li	t1,-30
    6100098a:	00000867          	jalr	a6,zero # 0 <_start-0x61000000>
    6100098e:	0000                	unimp
    61000990:	5309                	li	t1,-30
    61000992:	00000867          	jalr	a6,zero # 0 <_start-0x61000000>
    61000996:	0000                	unimp
    61000998:	5309                	li	t1,-30
    6100099a:	00000867          	jalr	a6,zero # 0 <_start-0x61000000>
    6100099e:	0000                	unimp
    610009a0:	5309                	li	t1,-30
    610009a2:	00000867          	jalr	a6,zero # 0 <_start-0x61000000>
    610009a6:	0000                	unimp
    610009a8:	5309                	li	t1,-30
    610009aa:	00000867          	jalr	a6,zero # 0 <_start-0x61000000>
    610009ae:	0000                	unimp
    610009b0:	5309                	li	t1,-30
    610009b2:	00000867          	jalr	a6,zero # 0 <_start-0x61000000>
    610009b6:	0000                	unimp
    610009b8:	5309                	li	t1,-30
    610009ba:	00000867          	jalr	a6,zero # 0 <_start-0x61000000>
    610009be:	0000                	unimp
    610009c0:	5309                	li	t1,-30
    610009c2:	00000867          	jalr	a6,zero # 0 <_start-0x61000000>
    610009c6:	0000                	unimp
    610009c8:	5309                	li	t1,-30
    610009ca:	00000867          	jalr	a6,zero # 0 <_start-0x61000000>
    610009ce:	0000                	unimp
    610009d0:	5309                	li	t1,-30
    610009d2:	00000867          	jalr	a6,zero # 0 <_start-0x61000000>
    610009d6:	0000                	unimp
    610009d8:	5309                	li	t1,-30
    610009da:	00000867          	jalr	a6,zero # 0 <_start-0x61000000>
    610009de:	0000                	unimp
    610009e0:	5309                	li	t1,-30
    610009e2:	00000867          	jalr	a6,zero # 0 <_start-0x61000000>
    610009e6:	0000                	unimp
    610009e8:	5309                	li	t1,-30
    610009ea:	00000867          	jalr	a6,zero # 0 <_start-0x61000000>
    610009ee:	0000                	unimp
    610009f0:	5309                	li	t1,-30
    610009f2:	00000867          	jalr	a6,zero # 0 <_start-0x61000000>
    610009f6:	0000                	unimp
    610009f8:	5309                	li	t1,-30
    610009fa:	00000867          	jalr	a6,zero # 0 <_start-0x61000000>
    610009fe:	0000                	unimp
    61000a00:	5309                	li	t1,-30
    61000a02:	00000867          	jalr	a6,zero # 0 <_start-0x61000000>
    61000a06:	0000                	unimp
    61000a08:	5309                	li	t1,-30
    61000a0a:	00000867          	jalr	a6,zero # 0 <_start-0x61000000>
    61000a0e:	0000                	unimp
    61000a10:	5309                	li	t1,-30
    61000a12:	00000867          	jalr	a6,zero # 0 <_start-0x61000000>
    61000a16:	0000                	unimp
    61000a18:	5309                	li	t1,-30
    61000a1a:	00000867          	jalr	a6,zero # 0 <_start-0x61000000>
    61000a1e:	0000                	unimp
    61000a20:	5309                	li	t1,-30
    61000a22:	00000867          	jalr	a6,zero # 0 <_start-0x61000000>
	...

Disassembly of section .riscv.attributes:

0000000000000000 <.riscv.attributes>:
   0:	1b41                	addi	s6,s6,-16
   2:	0000                	unimp
   4:	7200                	ld	s0,32(a2)
   6:	7369                	lui	t1,0xffffa
   8:	01007663          	bgeu	zero,a6,14 <_start-0x60ffffec>
   c:	0011                	c.nop	4
   e:	0000                	unimp
  10:	1004                	addi	s1,sp,32
  12:	7205                	lui	tp,0xfffe1
  14:	3676                	fld	fa2,376(sp)
  16:	6934                	ld	a3,80(a0)
  18:	7032                	0x7032
  1a:	0030                	addi	a2,sp,8

Disassembly of section .comment:

0000000000000000 <.comment>:
   0:	3a434347          	fmsub.d	ft6,ft6,ft4,ft7,rmm
   4:	2820                	fld	fs0,80(s0)
   6:	29554e47          	fmsub.s	ft8,fa0,fs5,ft5,rmm
   a:	3120                	fld	fs0,96(a0)
   c:	2e30                	fld	fa2,88(a2)
   e:	2e32                	fld	ft8,264(sp)
  10:	0030                	addi	a2,sp,8

Disassembly of section .debug_line:

0000000000000000 <.debug_line>:
   0:	00a2                	slli	ra,ra,0x8
   2:	0000                	unimp
   4:	007c0003          	lb	zero,7(s8)
   8:	0000                	unimp
   a:	0101                	addi	sp,sp,0
   c:	000d0efb          	dkhmx8	t4,s10,zero
  10:	0101                	addi	sp,sp,0
  12:	0101                	addi	sp,sp,0
  14:	0000                	unimp
  16:	0100                	addi	s0,sp,128
  18:	0000                	unimp
  1a:	4401                	li	s0,0
  1c:	2f3a                	fld	ft10,392(sp)
  1e:	6b726f77          	0x6b726f77
  22:	3230322f          	0x3230322f
  26:	2f32                	fld	ft10,264(sp)
  28:	6c61                	lui	s8,0x18
  2a:	3039                	0x3039
  2c:	3030                	fld	fa2,96(s0)
  2e:	2f77732f          	0x2f77732f
  32:	6564                	ld	s1,200(a0)
  34:	7562                	ld	a0,56(sp)
  36:	72656767          	0x72656767
  3a:	5f6c612f          	0x5f6c612f
  3e:	6e65706f          	j	57724 <_start-0x60fa88dc>
  42:	2f64636f          	jal	t1,46338 <_start-0x60fb9cc8>
  46:	746e6f63          	bltu	t3,t1,7a4 <_start-0x60fff85c>
  4a:	6972                	ld	s2,280(sp)
  4c:	2f62                	fld	ft10,24(sp)
  4e:	6f6c                	ld	a1,216(a4)
  50:	6461                	lui	s0,0x18
  52:	7265                	lui	tp,0xffff9
  54:	6c662f73          	csrrs	t5,0x6c6,a2
  58:	7361                	lui	t1,0xffff8
  5a:	2f68                	fld	fa0,216(a4)
  5c:	7371                	lui	t1,0xffffc
  5e:	6970                	ld	a2,208(a0)
  60:	6377642f          	0x6377642f
  64:	2f697373          	csrrci	t1,0x2f6,18
  68:	2f637273          	csrrci	tp,0x2f6,6
  6c:	6f62                	ld	t5,24(sp)
  6e:	722f746f          	jal	s0,f7790 <_start-0x60f08870>
  72:	7369                	lui	t1,0xffffa
  74:	00007663          	bgeu	zero,zero,80 <_start-0x60ffff80>
  78:	70617277          	0x70617277
  7c:	6570                	ld	a2,200(a0)
  7e:	2e72                	fld	ft8,280(sp)
  80:	00010053          	fadd.s	ft0,ft2,ft0,rne
  84:	0000                	unimp
  86:	0900                	addi	s0,sp,144
  88:	0002                	c.slli64	zero
  8a:	0000                	unimp
  8c:	0061                	c.nop	24
  8e:	0000                	unimp
  90:	0300                	addi	s0,sp,384
  92:	010d                	addi	sp,sp,3
  94:	08090103          	lb	sp,128(s2)
  98:	0100                	addi	s0,sp,128
  9a:	04090103          	lb	sp,64(s2)
  9e:	0100                	addi	s0,sp,128
  a0:	0409                	addi	s0,s0,2
  a2:	0000                	unimp
  a4:	0101                	addi	sp,sp,0
  a6:	00000a1b          	sext.w	s4,zero
  aa:	013d0003          	lb	zero,19(s10)
  ae:	0000                	unimp
  b0:	0101                	addi	sp,sp,0
  b2:	000d0efb          	dkhmx8	t4,s10,zero
  b6:	0101                	addi	sp,sp,0
  b8:	0101                	addi	sp,sp,0
  ba:	0000                	unimp
  bc:	0100                	addi	s0,sp,128
  be:	0000                	unimp
  c0:	4401                	li	s0,0
  c2:	2f3a                	fld	ft10,392(sp)
  c4:	6b726f77          	0x6b726f77
  c8:	3230322f          	0x3230322f
  cc:	2f32                	fld	ft10,264(sp)
  ce:	6c61                	lui	s8,0x18
  d0:	3039                	0x3039
  d2:	3030                	fld	fa2,96(s0)
  d4:	2f77732f          	0x2f77732f
  d8:	6564                	ld	s1,200(a0)
  da:	7562                	ld	a0,56(sp)
  dc:	72656767          	0x72656767
  e0:	5f6c612f          	0x5f6c612f
  e4:	6e65706f          	j	577ca <_start-0x60fa8836>
  e8:	2f64636f          	jal	t1,463de <_start-0x60fb9c22>
  ec:	746e6f63          	bltu	t3,t1,84a <_start-0x60fff7b6>
  f0:	6972                	ld	s2,280(sp)
  f2:	2f62                	fld	ft10,24(sp)
  f4:	6f6c                	ld	a1,216(a4)
  f6:	6461                	lui	s0,0x18
  f8:	7265                	lui	tp,0xffff9
  fa:	6c662f73          	csrrs	t5,0x6c6,a2
  fe:	7361                	lui	t1,0xffff8
 100:	2f68                	fld	fa0,216(a4)
 102:	7371                	lui	t1,0xffffc
 104:	6970                	ld	a2,208(a0)
 106:	6377642f          	0x6377642f
 10a:	2f697373          	csrrci	t1,0x2f6,18
 10e:	00637273          	csrrci	tp,0x6,6
 112:	3a64                	fld	fs1,240(a2)
 114:	775c                	ld	a5,168(a4)
 116:	5c6b726f          	jal	tp,b76dc <_start-0x60f48924>
 11a:	3032                	fld	ft0,296(sp)
 11c:	3232                	fld	ft4,296(sp)
 11e:	615c                	ld	a5,128(a0)
 120:	396c                	fld	fa1,240(a0)
 122:	3030                	fld	fa2,96(s0)
 124:	5c30                	lw	a2,120(s0)
 126:	735c7773          	csrrci	a4,0x735,24
 12a:	6b64                	ld	s1,208(a4)
 12c:	735c                	ld	a5,160(a4)
 12e:	612d636f          	jal	t1,d6740 <_start-0x60f298c0>
 132:	7570                	ld	a2,232(a0)
 134:	732d                	lui	t1,0xfffeb
 136:	6b64                	ld	s1,208(a4)
 138:	745c                	ld	a5,168(s0)
 13a:	736c6f6f          	jal	t5,c6870 <_start-0x60f39790>
 13e:	775c                	ld	a5,168(a4)
 140:	6e69                	lui	t3,0x1a
 142:	725c                	ld	a5,160(a2)
 144:	7369                	lui	t1,0xffffa
 146:	725c7663          	bgeu	s8,t0,872 <_start-0x60fff78e>
 14a:	7369                	lui	t1,0xffffa
 14c:	6e2d7663          	bgeu	s10,sp,838 <_start-0x60fff7c8>
 150:	6375                	lui	t1,0x1d
 152:	656c                	ld	a1,200(a0)
 154:	2d69                	addiw	s10,s10,26
 156:	6c65                	lui	s8,0x19
 158:	5c66                	lw	s8,120(sp)
 15a:	6e69                	lui	t3,0x1a
 15c:	64756c63          	bltu	a0,t2,7b4 <_start-0x60fff84c>
 160:	5c65                	li	s8,-7
 162:	616d                	addi	sp,sp,240
 164:	6e696863          	bltu	s2,t1,854 <_start-0x60fff7ac>
 168:	0065                	c.nop	25
 16a:	3a64                	fld	fs1,240(a2)
 16c:	775c                	ld	a5,168(a4)
 16e:	5c6b726f          	jal	tp,b7734 <_start-0x60f488cc>
 172:	3032                	fld	ft0,296(sp)
 174:	3232                	fld	ft4,296(sp)
 176:	615c                	ld	a5,128(a0)
 178:	396c                	fld	fa1,240(a0)
 17a:	3030                	fld	fa2,96(s0)
 17c:	5c30                	lw	a2,120(s0)
 17e:	735c7773          	csrrci	a4,0x735,24
 182:	6b64                	ld	s1,208(a4)
 184:	735c                	ld	a5,160(a4)
 186:	612d636f          	jal	t1,d6798 <_start-0x60f29868>
 18a:	7570                	ld	a2,232(a0)
 18c:	732d                	lui	t1,0xfffeb
 18e:	6b64                	ld	s1,208(a4)
 190:	745c                	ld	a5,168(s0)
 192:	736c6f6f          	jal	t5,c68c8 <_start-0x60f39738>
 196:	775c                	ld	a5,168(a4)
 198:	6e69                	lui	t3,0x1a
 19a:	725c                	ld	a5,160(a2)
 19c:	7369                	lui	t1,0xffffa
 19e:	725c7663          	bgeu	s8,t0,8ca <_start-0x60fff736>
 1a2:	7369                	lui	t1,0xffffa
 1a4:	6e2d7663          	bgeu	s10,sp,890 <_start-0x60fff770>
 1a8:	6375                	lui	t1,0x1d
 1aa:	656c                	ld	a1,200(a0)
 1ac:	2d69                	addiw	s10,s10,26
 1ae:	6c65                	lui	s8,0x19
 1b0:	5c66                	lw	s8,120(sp)
 1b2:	6e69                	lui	t3,0x1a
 1b4:	64756c63          	bltu	a0,t2,80c <_start-0x60fff7f4>
 1b8:	5c65                	li	s8,-7
 1ba:	00737973          	csrrci	s2,0x7,6
 1be:	6400                	ld	s0,8(s0)
 1c0:	73736377          	0x73736377
 1c4:	2e69                	addiw	t3,t3,26
 1c6:	00010063          	beqz	sp,1c6 <_start-0x60fffe3a>
 1ca:	5f00                	lw	s0,56(a4)
 1cc:	6564                	ld	s1,200(a0)
 1ce:	6166                	ld	sp,88(sp)
 1d0:	6c75                	lui	s8,0x1d
 1d2:	5f74                	lw	a3,124(a4)
 1d4:	7974                	ld	a3,240(a0)
 1d6:	6570                	ld	a2,200(a0)
 1d8:	00682e73          	csrrs	t3,0x6,a6
 1dc:	0002                	c.slli64	zero
 1de:	5f00                	lw	s0,56(a4)
 1e0:	69647473          	csrrci	s0,0x696,8
 1e4:	746e                	ld	s0,248(sp)
 1e6:	682e                	ld	a6,200(sp)
 1e8:	0300                	addi	s0,sp,384
 1ea:	0000                	unimp
 1ec:	0500                	addi	s0,sp,640
 1ee:	0001                	nop
 1f0:	0209                	addi	tp,tp,2
 1f2:	0010                	0x10
 1f4:	6100                	ld	s0,0(a0)
 1f6:	0000                	unimp
 1f8:	0000                	unimp
 1fa:	01019e03          	lh	t3,16(gp)
 1fe:	0505                	addi	a0,a0,1
 200:	04090103          	lb	sp,64(s2)
 204:	0100                	addi	s0,sp,128
 206:	00090103          	lb	sp,0(s2)
 20a:	0100                	addi	s0,sp,128
 20c:	0a05                	addi	s4,s4,1
 20e:	00090003          	lb	zero,0(s2)
 212:	0100                	addi	s0,sp,128
 214:	0905                	addi	s2,s2,1
 216:	00090203          	lb	tp,0(s2)
 21a:	0100                	addi	s0,sp,128
 21c:	0c05                	addi	s8,s8,1
 21e:	0306                	slli	t1,t1,0x1
 220:	0900                	addi	s0,sp,144
 222:	0000                	unimp
 224:	0301                	addi	t1,t1,0
 226:	0901                	addi	s2,s2,0
 228:	0004                	0x4
 22a:	0301                	addi	t1,t1,0
 22c:	0004097f          	radd16	s2,s0,zero
 230:	0501                	addi	a0,a0,0
 232:	0609                	addi	a2,a2,2
 234:	04090103          	lb	sp,64(s2)
 238:	0100                	addi	s0,sp,128
 23a:	0c05                	addi	s8,s8,1
 23c:	0306                	slli	t1,t1,0x1
 23e:	0900                	addi	s0,sp,144
 240:	0000                	unimp
 242:	0501                	addi	a0,a0,0
 244:	060a                	slli	a2,a2,0x2
 246:	04097d03          	0x4097d03
 24a:	0100                	addi	s0,sp,128
 24c:	0505                	addi	a0,a0,1
 24e:	04090503          	lb	a0,64(s2)
 252:	0100                	addi	s0,sp,128
 254:	0105                	addi	sp,sp,1
 256:	0306                	slli	t1,t1,0x1
 258:	0901                	addi	s2,s2,0
 25a:	0000                	unimp
 25c:	0601                	addi	a2,a2,0
 25e:	04090303          	lb	t1,64(s2)
 262:	0100                	addi	s0,sp,128
 264:	0505                	addi	a0,a0,1
 266:	00090103          	lb	sp,0(s2)
 26a:	0100                	addi	s0,sp,128
 26c:	0405                	addi	s0,s0,1
 26e:	00090203          	lb	tp,0(s2)
 272:	0100                	addi	s0,sp,128
 274:	1005                	c.nop	-31
 276:	0306                	slli	t1,t1,0x1
 278:	0900                	addi	s0,sp,144
 27a:	0000                	unimp
 27c:	0501                	addi	a0,a0,0
 27e:	030d                	addi	t1,t1,3
 280:	0900                	addi	s0,sp,144
 282:	000c                	0xc
 284:	0501                	addi	a0,a0,0
 286:	0605                	addi	a2,a2,1
 288:	08090203          	lb	tp,128(s2)
 28c:	0100                	addi	s0,sp,128
 28e:	00090103          	lb	sp,0(s2)
 292:	0100                	addi	s0,sp,128
 294:	1b05                	addi	s6,s6,-31
 296:	0306                	slli	t1,t1,0x1
 298:	0000097f          	radd16	s2,zero,zero
 29c:	0501                	addi	a0,a0,0
 29e:	0301                	addi	t1,t1,0
 2a0:	0902                	c.slli64	s2
 2a2:	0004                	0x4
 2a4:	0601                	addi	a2,a2,0
 2a6:	08090403          	lb	s0,128(s2)
 2aa:	0100                	addi	s0,sp,128
 2ac:	0505                	addi	a0,a0,1
 2ae:	00090103          	lb	sp,0(s2)
 2b2:	0100                	addi	s0,sp,128
 2b4:	00090103          	lb	sp,0(s2)
 2b8:	0100                	addi	s0,sp,128
 2ba:	1005                	c.nop	-31
 2bc:	0306                	slli	t1,t1,0x1
 2be:	0900                	addi	s0,sp,144
 2c0:	0000                	unimp
 2c2:	0501                	addi	a0,a0,0
 2c4:	030e                	slli	t1,t1,0x3
 2c6:	0900                	addi	s0,sp,144
 2c8:	000c                	0xc
 2ca:	0501                	addi	a0,a0,0
 2cc:	0605                	addi	a2,a2,1
 2ce:	08090103          	lb	sp,128(s2)
 2d2:	0100                	addi	s0,sp,128
 2d4:	0e05                	addi	t3,t3,1
 2d6:	0306                	slli	t1,t1,0x1
 2d8:	0900                	addi	s0,sp,144
 2da:	0000                	unimp
 2dc:	0501                	addi	a0,a0,0
 2de:	0605                	addi	a2,a2,1
 2e0:	0c090103          	lb	sp,192(s2)
 2e4:	0100                	addi	s0,sp,128
 2e6:	00090003          	lb	zero,0(s2)
 2ea:	0100                	addi	s0,sp,128
 2ec:	04090003          	lb	zero,64(s2)
 2f0:	0100                	addi	s0,sp,128
 2f2:	0105                	addi	sp,sp,1
 2f4:	0306                	slli	t1,t1,0x1
 2f6:	0901                	addi	s2,s2,0
 2f8:	0000                	unimp
 2fa:	0601                	addi	a2,a2,0
 2fc:	04090303          	lb	t1,64(s2)
 300:	0100                	addi	s0,sp,128
 302:	0505                	addi	a0,a0,1
 304:	00090103          	lb	sp,0(s2)
 308:	0100                	addi	s0,sp,128
 30a:	00090203          	lb	tp,0(s2)
 30e:	0100                	addi	s0,sp,128
 310:	0d05                	addi	s10,s10,1
 312:	0306                	slli	t1,t1,0x1
 314:	0900                	addi	s0,sp,144
 316:	0000                	unimp
 318:	0501                	addi	a0,a0,0
 31a:	0605                	addi	a2,a2,1
 31c:	08090103          	lb	sp,128(s2)
 320:	0100                	addi	s0,sp,128
 322:	00090003          	lb	zero,0(s2)
 326:	0100                	addi	s0,sp,128
 328:	08090003          	lb	zero,128(s2)
 32c:	0100                	addi	s0,sp,128
 32e:	0105                	addi	sp,sp,1
 330:	0306                	slli	t1,t1,0x1
 332:	0901                	addi	s2,s2,0
 334:	0000                	unimp
 336:	0601                	addi	a2,a2,0
 338:	04090403          	lb	s0,64(s2)
 33c:	0100                	addi	s0,sp,128
 33e:	0505                	addi	a0,a0,1
 340:	00090103          	lb	sp,0(s2)
 344:	0100                	addi	s0,sp,128
 346:	00090103          	lb	sp,0(s2)
 34a:	0100                	addi	s0,sp,128
 34c:	0d05                	addi	s10,s10,1
 34e:	0306                	slli	t1,t1,0x1
 350:	0900                	addi	s0,sp,144
 352:	0000                	unimp
 354:	0501                	addi	a0,a0,0
 356:	0605                	addi	a2,a2,1
 358:	08090103          	lb	sp,128(s2)
 35c:	0100                	addi	s0,sp,128
 35e:	00090003          	lb	zero,0(s2)
 362:	0100                	addi	s0,sp,128
 364:	08090003          	lb	zero,128(s2)
 368:	0100                	addi	s0,sp,128
 36a:	0105                	addi	sp,sp,1
 36c:	0306                	slli	t1,t1,0x1
 36e:	0901                	addi	s2,s2,0
 370:	0000                	unimp
 372:	0601                	addi	a2,a2,0
 374:	04090303          	lb	t1,64(s2)
 378:	0100                	addi	s0,sp,128
 37a:	0505                	addi	a0,a0,1
 37c:	00090103          	lb	sp,0(s2)
 380:	0100                	addi	s0,sp,128
 382:	00090103          	lb	sp,0(s2)
 386:	0100                	addi	s0,sp,128
 388:	00090103          	lb	sp,0(s2)
 38c:	0100                	addi	s0,sp,128
 38e:	00090203          	lb	tp,0(s2)
 392:	0100                	addi	s0,sp,128
 394:	2405                	addiw	s0,s0,1
 396:	0306                	slli	t1,t1,0x1
 398:	097d                	addi	s2,s2,31
 39a:	0000                	unimp
 39c:	0501                	addi	a0,a0,0
 39e:	0345                	addi	t1,t1,17
 3a0:	0900                	addi	s0,sp,144
 3a2:	000c                	0xc
 3a4:	0501                	addi	a0,a0,0
 3a6:	0900030b          	0x900030b
 3aa:	0004                	0x4
 3ac:	0501                	addi	a0,a0,0
 3ae:	0345                	addi	t1,t1,17
 3b0:	0900                	addi	s0,sp,144
 3b2:	0004                	0x4
 3b4:	0501                	addi	a0,a0,0
 3b6:	0322                	slli	t1,t1,0x8
 3b8:	0900                	addi	s0,sp,144
 3ba:	0008                	0x8
 3bc:	0501                	addi	a0,a0,0
 3be:	0345                	addi	t1,t1,17
 3c0:	0900                	addi	s0,sp,144
 3c2:	0004                	0x4
 3c4:	0501                	addi	a0,a0,0
 3c6:	0309                	addi	t1,t1,2
 3c8:	0900                	addi	s0,sp,144
 3ca:	0004                	0x4
 3cc:	0501                	addi	a0,a0,0
 3ce:	0305                	addi	t1,t1,1
 3d0:	00040903          	lb	s2,0(s0) # 18000 <_start-0x60fe8000>
 3d4:	0501                	addi	a0,a0,0
 3d6:	0601                	addi	a2,a2,0
 3d8:	14090403          	lb	s0,320(s2)
 3dc:	0100                	addi	s0,sp,128
 3de:	0505                	addi	a0,a0,1
 3e0:	00090103          	lb	sp,0(s2)
 3e4:	0100                	addi	s0,sp,128
 3e6:	0105                	addi	sp,sp,1
 3e8:	14090403          	lb	s0,320(s2)
 3ec:	0100                	addi	s0,sp,128
 3ee:	0505                	addi	a0,a0,1
 3f0:	00090103          	lb	sp,0(s2)
 3f4:	0100                	addi	s0,sp,128
 3f6:	00090103          	lb	sp,0(s2)
 3fa:	0100                	addi	s0,sp,128
 3fc:	00090103          	lb	sp,0(s2)
 400:	0100                	addi	s0,sp,128
 402:	00090103          	lb	sp,0(s2)
 406:	0100                	addi	s0,sp,128
 408:	0105                	addi	sp,sp,1
 40a:	10090503          	lb	a0,256(s2)
 40e:	0100                	addi	s0,sp,128
 410:	0505                	addi	a0,a0,1
 412:	00090103          	lb	sp,0(s2)
 416:	0100                	addi	s0,sp,128
 418:	00090203          	lb	tp,0(s2)
 41c:	0100                	addi	s0,sp,128
 41e:	00090103          	lb	sp,0(s2)
 422:	0100                	addi	s0,sp,128
 424:	00090103          	lb	sp,0(s2)
 428:	0100                	addi	s0,sp,128
 42a:	2505                	addiw	a0,a0,1
 42c:	0306                	slli	t1,t1,0x1
 42e:	097e                	slli	s2,s2,0x1f
 430:	0000                	unimp
 432:	0501                	addi	a0,a0,0
 434:	030c                	addi	a1,sp,384
 436:	0900                	addi	s0,sp,144
 438:	0008                	0x8
 43a:	0501                	addi	a0,a0,0
 43c:	0325                	addi	t1,t1,9
 43e:	0900                	addi	s0,sp,144
 440:	0004                	0x4
 442:	0501                	addi	a0,a0,0
 444:	030a                	slli	t1,t1,0x2
 446:	0900                	addi	s0,sp,144
 448:	0004                	0x4
 44a:	0501                	addi	a0,a0,0
 44c:	0305                	addi	t1,t1,1
 44e:	0902                	c.slli64	s2
 450:	0004                	0x4
 452:	0501                	addi	a0,a0,0
 454:	0601                	addi	a2,a2,0
 456:	14090403          	lb	s0,320(s2)
 45a:	0100                	addi	s0,sp,128
 45c:	0505                	addi	a0,a0,1
 45e:	00090103          	lb	sp,0(s2)
 462:	0100                	addi	s0,sp,128
 464:	0105                	addi	sp,sp,1
 466:	0306                	slli	t1,t1,0x1
 468:	0000097f          	radd16	s2,zero,zero
 46c:	0301                	addi	t1,t1,0
 46e:	0900                	addi	s0,sp,144
 470:	0010                	0x10
 472:	0501                	addi	a0,a0,0
 474:	0305                	addi	t1,t1,1
 476:	0901                	addi	s2,s2,0
 478:	0008                	0x8
 47a:	0601                	addi	a2,a2,0
 47c:	04090103          	lb	sp,64(s2)
 480:	0100                	addi	s0,sp,128
 482:	14090103          	lb	sp,320(s2)
 486:	0100                	addi	s0,sp,128
 488:	0c090103          	lb	sp,192(s2)
 48c:	0100                	addi	s0,sp,128
 48e:	10090103          	lb	sp,256(s2)
 492:	0100                	addi	s0,sp,128
 494:	0105                	addi	sp,sp,1
 496:	0306                	slli	t1,t1,0x1
 498:	0901                	addi	s2,s2,0
 49a:	0004                	0x4
 49c:	0501                	addi	a0,a0,0
 49e:	0305                	addi	t1,t1,1
 4a0:	0010097f          	radd16	s2,zero,ra
 4a4:	0501                	addi	a0,a0,0
 4a6:	0601                	addi	a2,a2,0
 4a8:	04090403          	lb	s0,64(s2)
 4ac:	0100                	addi	s0,sp,128
 4ae:	0505                	addi	a0,a0,1
 4b0:	00090103          	lb	sp,0(s2)
 4b4:	0100                	addi	s0,sp,128
 4b6:	0105                	addi	sp,sp,1
 4b8:	0306                	slli	t1,t1,0x1
 4ba:	0000097f          	radd16	s2,zero,zero
 4be:	0301                	addi	t1,t1,0
 4c0:	0900                	addi	s0,sp,144
 4c2:	0028                	addi	a0,sp,8
 4c4:	0501                	addi	a0,a0,0
 4c6:	0305                	addi	t1,t1,1
 4c8:	0901                	addi	s2,s2,0
 4ca:	0008                	0x8
 4cc:	0601                	addi	a2,a2,0
 4ce:	04090103          	lb	sp,64(s2)
 4d2:	0100                	addi	s0,sp,128
 4d4:	14090103          	lb	sp,320(s2)
 4d8:	0100                	addi	s0,sp,128
 4da:	10090203          	lb	tp,256(s2)
 4de:	0100                	addi	s0,sp,128
 4e0:	0705                	addi	a4,a4,1
 4e2:	0306                	slli	t1,t1,0x1
 4e4:	0900                	addi	s0,sp,144
 4e6:	0000                	unimp
 4e8:	0501                	addi	a0,a0,0
 4ea:	0609                	addi	a2,a2,2
 4ec:	08090203          	lb	tp,128(s2)
 4f0:	0100                	addi	s0,sp,128
 4f2:	0c090103          	lb	sp,192(s2)
 4f6:	0100                	addi	s0,sp,128
 4f8:	0505                	addi	a0,a0,1
 4fa:	14090303          	lb	t1,320(s2)
 4fe:	0100                	addi	s0,sp,128
 500:	0105                	addi	sp,sp,1
 502:	0306                	slli	t1,t1,0x1
 504:	0901                	addi	s2,s2,0
 506:	0004                	0x4
 508:	0501                	addi	a0,a0,0
 50a:	0305                	addi	t1,t1,1
 50c:	001c097f          	radd16	s2,s8,ra
 510:	0501                	addi	a0,a0,0
 512:	0601                	addi	a2,a2,0
 514:	04090403          	lb	s0,64(s2)
 518:	0100                	addi	s0,sp,128
 51a:	0505                	addi	a0,a0,1
 51c:	00090103          	lb	sp,0(s2)
 520:	0100                	addi	s0,sp,128
 522:	0105                	addi	sp,sp,1
 524:	0306                	slli	t1,t1,0x1
 526:	0000097f          	radd16	s2,zero,zero
 52a:	0301                	addi	t1,t1,0
 52c:	0900                	addi	s0,sp,144
 52e:	0020                	addi	s0,sp,8
 530:	0501                	addi	a0,a0,0
 532:	0305                	addi	t1,t1,1
 534:	0901                	addi	s2,s2,0
 536:	0008                	0x8
 538:	0601                	addi	a2,a2,0
 53a:	04090103          	lb	sp,64(s2)
 53e:	0100                	addi	s0,sp,128
 540:	14090103          	lb	sp,320(s2)
 544:	0100                	addi	s0,sp,128
 546:	0c090103          	lb	sp,192(s2)
 54a:	0100                	addi	s0,sp,128
 54c:	0c090103          	lb	sp,192(s2)
 550:	0100                	addi	s0,sp,128
 552:	0705                	addi	a4,a4,1
 554:	0306                	slli	t1,t1,0x1
 556:	0900                	addi	s0,sp,144
 558:	0000                	unimp
 55a:	0501                	addi	a0,a0,0
 55c:	0609                	addi	a2,a2,2
 55e:	08090203          	lb	tp,128(s2)
 562:	0100                	addi	s0,sp,128
 564:	0505                	addi	a0,a0,1
 566:	14090203          	lb	tp,320(s2)
 56a:	0100                	addi	s0,sp,128
 56c:	0105                	addi	sp,sp,1
 56e:	0306                	slli	t1,t1,0x1
 570:	0901                	addi	s2,s2,0
 572:	0004                	0x4
 574:	0501                	addi	a0,a0,0
 576:	0305                	addi	t1,t1,1
 578:	0018097f          	radd16	s2,a6,ra
 57c:	0501                	addi	a0,a0,0
 57e:	0601                	addi	a2,a2,0
 580:	04090503          	lb	a0,64(s2)
 584:	0100                	addi	s0,sp,128
 586:	0505                	addi	a0,a0,1
 588:	10090103          	lb	sp,256(s2)
 58c:	0100                	addi	s0,sp,128
 58e:	0905                	addi	s2,s2,1
 590:	00090203          	lb	tp,0(s2)
 594:	0100                	addi	s0,sp,128
 596:	0c05                	addi	s8,s8,1
 598:	0306                	slli	t1,t1,0x1
 59a:	0900                	addi	s0,sp,144
 59c:	0000                	unimp
 59e:	0501                	addi	a0,a0,0
 5a0:	0900030b          	0x900030b
 5a4:	0014                	0x14
 5a6:	0501                	addi	a0,a0,0
 5a8:	0301                	addi	t1,t1,0
 5aa:	00040903          	lb	s2,0(s0)
 5ae:	0601                	addi	a2,a2,0
 5b0:	10090403          	lb	s0,256(s2)
 5b4:	0100                	addi	s0,sp,128
 5b6:	0505                	addi	a0,a0,1
 5b8:	00090103          	lb	sp,0(s2)
 5bc:	0100                	addi	s0,sp,128
 5be:	0105                	addi	sp,sp,1
 5c0:	0306                	slli	t1,t1,0x1
 5c2:	0000097f          	radd16	s2,zero,zero
 5c6:	0301                	addi	t1,t1,0
 5c8:	0900                	addi	s0,sp,144
 5ca:	0010                	0x10
 5cc:	0501                	addi	a0,a0,0
 5ce:	0605                	addi	a2,a2,1
 5d0:	08090303          	lb	t1,128(s2)
 5d4:	0100                	addi	s0,sp,128
 5d6:	0905                	addi	s2,s2,1
 5d8:	00090203          	lb	tp,0(s2)
 5dc:	0100                	addi	s0,sp,128
 5de:	0c05                	addi	s8,s8,1
 5e0:	0306                	slli	t1,t1,0x1
 5e2:	0900                	addi	s0,sp,144
 5e4:	0000                	unimp
 5e6:	0501                	addi	a0,a0,0
 5e8:	0900030b          	0x900030b
 5ec:	0014                	0x14
 5ee:	0501                	addi	a0,a0,0
 5f0:	0609                	addi	a2,a2,2
 5f2:	04090203          	lb	tp,64(s2)
 5f6:	0100                	addi	s0,sp,128
 5f8:	00090103          	lb	sp,0(s2)
 5fc:	0100                	addi	s0,sp,128
 5fe:	0b05                	addi	s6,s6,1
 600:	0306                	slli	t1,t1,0x1
 602:	0900                	addi	s0,sp,144
 604:	0000                	unimp
 606:	0501                	addi	a0,a0,0
 608:	0314                	addi	a3,sp,384
 60a:	0901                	addi	s2,s2,0
 60c:	0008                	0x8
 60e:	0501                	addi	a0,a0,0
 610:	0301                	addi	t1,t1,0
 612:	090d                	addi	s2,s2,3
 614:	0004                	0x4
 616:	0501                	addi	a0,a0,0
 618:	0605                	addi	a2,a2,1
 61a:	18097703          	0x18097703
 61e:	0100                	addi	s0,sp,128
 620:	0905                	addi	s2,s2,1
 622:	00090103          	lb	sp,0(s2)
 626:	0100                	addi	s0,sp,128
 628:	0e05                	addi	t3,t3,1
 62a:	0306                	slli	t1,t1,0x1
 62c:	0900                	addi	s0,sp,144
 62e:	0000                	unimp
 630:	0501                	addi	a0,a0,0
 632:	0900030b          	0x900030b
 636:	0014                	0x14
 638:	0501                	addi	a0,a0,0
 63a:	0609                	addi	a2,a2,2
 63c:	04090203          	lb	tp,64(s2)
 640:	0100                	addi	s0,sp,128
 642:	00090103          	lb	sp,0(s2)
 646:	0100                	addi	s0,sp,128
 648:	0b05                	addi	s6,s6,1
 64a:	0306                	slli	t1,t1,0x1
 64c:	0900                	addi	s0,sp,144
 64e:	0000                	unimp
 650:	0501                	addi	a0,a0,0
 652:	0601                	addi	a2,a2,0
 654:	0c090803          	lb	a6,192(s2)
 658:	0100                	addi	s0,sp,128
 65a:	0505                	addi	a0,a0,1
 65c:	18090103          	lb	sp,384(s2)
 660:	0100                	addi	s0,sp,128
 662:	00090203          	lb	tp,0(s2)
 666:	0100                	addi	s0,sp,128
 668:	0905                	addi	s2,s2,1
 66a:	00090203          	lb	tp,0(s2)
 66e:	0100                	addi	s0,sp,128
 670:	1905                	addi	s2,s2,-31
 672:	0306                	slli	t1,t1,0x1
 674:	0900                	addi	s0,sp,144
 676:	0000                	unimp
 678:	0501                	addi	a0,a0,0
 67a:	0609                	addi	a2,a2,2
 67c:	14090103          	lb	sp,320(s2)
 680:	0100                	addi	s0,sp,128
 682:	0b05                	addi	s6,s6,1
 684:	0306                	slli	t1,t1,0x1
 686:	0900                	addi	s0,sp,144
 688:	0000                	unimp
 68a:	0501                	addi	a0,a0,0
 68c:	060d                	addi	a2,a2,3
 68e:	04090203          	lb	tp,64(s2)
 692:	0100                	addi	s0,sp,128
 694:	00090003          	lb	zero,0(s2)
 698:	0100                	addi	s0,sp,128
 69a:	04090003          	lb	zero,64(s2)
 69e:	0100                	addi	s0,sp,128
 6a0:	00090103          	lb	sp,0(s2)
 6a4:	0100                	addi	s0,sp,128
 6a6:	0105                	addi	sp,sp,1
 6a8:	0306                	slli	t1,t1,0x1
 6aa:	0906                	slli	s2,s2,0x1
 6ac:	0000                	unimp
 6ae:	0601                	addi	a2,a2,0
 6b0:	18090303          	lb	t1,384(s2)
 6b4:	0100                	addi	s0,sp,128
 6b6:	0505                	addi	a0,a0,1
 6b8:	00090103          	lb	sp,0(s2)
 6bc:	0100                	addi	s0,sp,128
 6be:	00090103          	lb	sp,0(s2)
 6c2:	0100                	addi	s0,sp,128
 6c4:	0105                	addi	sp,sp,1
 6c6:	0306                	slli	t1,t1,0x1
 6c8:	097e                	slli	s2,s2,0x1f
 6ca:	0000                	unimp
 6cc:	0301                	addi	t1,t1,0
 6ce:	0900                	addi	s0,sp,144
 6d0:	0018                	0x18
 6d2:	0501                	addi	a0,a0,0
 6d4:	0305                	addi	t1,t1,1
 6d6:	0902                	c.slli64	s2
 6d8:	000c                	0xc
 6da:	0501                	addi	a0,a0,0
 6dc:	0010                	0x10
 6de:	0402                	c.slli64	s0
 6e0:	0601                	addi	a2,a2,0
 6e2:	04090003          	lb	zero,64(s2)
 6e6:	0100                	addi	s0,sp,128
 6e8:	0505                	addi	a0,a0,1
 6ea:	0200                	addi	s0,sp,256
 6ec:	0104                	addi	s1,sp,128
 6ee:	0306                	slli	t1,t1,0x1
 6f0:	0900                	addi	s0,sp,144
 6f2:	0000                	unimp
 6f4:	0601                	addi	a2,a2,0
 6f6:	08090603          	lb	a2,128(s2)
 6fa:	0100                	addi	s0,sp,128
 6fc:	0105                	addi	sp,sp,1
 6fe:	0306                	slli	t1,t1,0x1
 700:	0901                	addi	s2,s2,0
 702:	0000                	unimp
 704:	0501                	addi	a0,a0,0
 706:	0009                	c.nop	2
 708:	0402                	c.slli64	s0
 70a:	7c030603          	lb	a2,1984(t1) # 1d7c0 <_start-0x60fe2840>
 70e:	2009                	0x2009
 710:	0100                	addi	s0,sp,128
 712:	1e05                	addi	t3,t3,-31
 714:	0200                	addi	s0,sp,256
 716:	0304                	addi	s1,sp,384
 718:	0306                	slli	t1,t1,0x1
 71a:	0900                	addi	s0,sp,144
 71c:	0000                	unimp
 71e:	0501                	addi	a0,a0,0
 720:	0009                	c.nop	2
 722:	0402                	c.slli64	s0
 724:	09000303          	lb	t1,144(zero) # 90 <_start-0x60ffff70>
 728:	0004                	0x4
 72a:	0501                	addi	a0,a0,0
 72c:	001c                	0x1c
 72e:	0402                	c.slli64	s0
 730:	7d030603          	lb	a2,2000(t1)
 734:	1009                	c.nop	-30
 736:	0100                	addi	s0,sp,128
 738:	0105                	addi	sp,sp,1
 73a:	04090a03          	lb	s4,64(s2)
 73e:	0100                	addi	s0,sp,128
 740:	0505                	addi	a0,a0,1
 742:	00090203          	lb	tp,0(s2)
 746:	0100                	addi	s0,sp,128
 748:	0105                	addi	sp,sp,1
 74a:	0306                	slli	t1,t1,0x1
 74c:	097e                	slli	s2,s2,0x1f
 74e:	0000                	unimp
 750:	0301                	addi	t1,t1,0
 752:	0900                	addi	s0,sp,144
 754:	000c                	0xc
 756:	0501                	addi	a0,a0,0
 758:	0305                	addi	t1,t1,1
 75a:	0902                	c.slli64	s2
 75c:	0004                	0x4
 75e:	0601                	addi	a2,a2,0
 760:	04090103          	lb	sp,64(s2)
 764:	0100                	addi	s0,sp,128
 766:	0d05                	addi	s10,s10,1
 768:	0306                	slli	t1,t1,0x1
 76a:	0900                	addi	s0,sp,144
 76c:	0000                	unimp
 76e:	0501                	addi	a0,a0,0
 770:	0301                	addi	t1,t1,0
 772:	0901                	addi	s2,s2,0
 774:	0004                	0x4
 776:	0501                	addi	a0,a0,0
 778:	030d                	addi	t1,t1,3
 77a:	000c097f          	radd16	s2,s8,zero
 77e:	0501                	addi	a0,a0,0
 780:	0601                	addi	a2,a2,0
 782:	04090403          	lb	s0,64(s2)
 786:	0100                	addi	s0,sp,128
 788:	0505                	addi	a0,a0,1
 78a:	00090103          	lb	sp,0(s2)
 78e:	0100                	addi	s0,sp,128
 790:	00090303          	lb	t1,0(s2)
 794:	0100                	addi	s0,sp,128
 796:	0105                	addi	sp,sp,1
 798:	0306                	slli	t1,t1,0x1
 79a:	097c                	addi	a5,sp,156
 79c:	0000                	unimp
 79e:	0501                	addi	a0,a0,0
 7a0:	0308                	addi	a0,sp,384
 7a2:	0904                	addi	s1,sp,144
 7a4:	0008                	0x8
 7a6:	0501                	addi	a0,a0,0
 7a8:	0301                	addi	t1,t1,0
 7aa:	097c                	addi	a5,sp,156
 7ac:	0004                	0x4
 7ae:	0501                	addi	a0,a0,0
 7b0:	0308                	addi	a0,sp,384
 7b2:	0904                	addi	s1,sp,144
 7b4:	0004                	0x4
 7b6:	0501                	addi	a0,a0,0
 7b8:	0301                	addi	t1,t1,0
 7ba:	097c                	addi	a5,sp,156
 7bc:	0008                	0x8
 7be:	0301                	addi	t1,t1,0
 7c0:	0900                	addi	s0,sp,144
 7c2:	0008                	0x8
 7c4:	0501                	addi	a0,a0,0
 7c6:	0308                	addi	a0,sp,384
 7c8:	0904                	addi	s1,sp,144
 7ca:	0004                	0x4
 7cc:	0501                	addi	a0,a0,0
 7ce:	09000307          	vlse8.v	v6,(zero),a6,v0.t
 7d2:	0004                	0x4
 7d4:	0501                	addi	a0,a0,0
 7d6:	0609                	addi	a2,a2,2
 7d8:	04090203          	lb	tp,64(s2)
 7dc:	0100                	addi	s0,sp,128
 7de:	0f05                	addi	t5,t5,1
 7e0:	0306                	slli	t1,t1,0x1
 7e2:	0900                	addi	s0,sp,144
 7e4:	0000                	unimp
 7e6:	0501                	addi	a0,a0,0
 7e8:	0310                	addi	a2,sp,384
 7ea:	0904                	addi	s1,sp,144
 7ec:	0004                	0x4
 7ee:	0501                	addi	a0,a0,0
 7f0:	097c030f          	0x97c030f
 7f4:	0004                	0x4
 7f6:	0501                	addi	a0,a0,0
 7f8:	0609                	addi	a2,a2,2
 7fa:	04090203          	lb	tp,64(s2)
 7fe:	0100                	addi	s0,sp,128
 800:	0b05                	addi	s6,s6,1
 802:	0306                	slli	t1,t1,0x1
 804:	0900                	addi	s0,sp,144
 806:	0000                	unimp
 808:	0501                	addi	a0,a0,0
 80a:	060d                	addi	a2,a2,3
 80c:	04090103          	lb	sp,64(s2)
 810:	0100                	addi	s0,sp,128
 812:	1205                	addi	tp,tp,-31
 814:	0306                	slli	t1,t1,0x1
 816:	0900                	addi	s0,sp,144
 818:	0000                	unimp
 81a:	0501                	addi	a0,a0,0
 81c:	0301                	addi	t1,t1,0
 81e:	0905                	addi	s2,s2,1
 820:	0004                	0x4
 822:	0501                	addi	a0,a0,0
 824:	030c                	addi	a1,sp,384
 826:	0014097f          	radd16	s2,s0,ra
 82a:	0501                	addi	a0,a0,0
 82c:	0601                	addi	a2,a2,0
 82e:	08090403          	lb	s0,128(s2)
 832:	0100                	addi	s0,sp,128
 834:	0505                	addi	a0,a0,1
 836:	00090103          	lb	sp,0(s2)
 83a:	0100                	addi	s0,sp,128
 83c:	00090103          	lb	sp,0(s2)
 840:	0100                	addi	s0,sp,128
 842:	00090103          	lb	sp,0(s2)
 846:	0100                	addi	s0,sp,128
 848:	0105                	addi	sp,sp,1
 84a:	0306                	slli	t1,t1,0x1
 84c:	097d                	addi	s2,s2,31
 84e:	0000                	unimp
 850:	0301                	addi	t1,t1,0
 852:	0900                	addi	s0,sp,144
 854:	0018                	0x18
 856:	0501                	addi	a0,a0,0
 858:	030e                	slli	t1,t1,0x3
 85a:	0901                	addi	s2,s2,0
 85c:	000c                	0xc
 85e:	0501                	addi	a0,a0,0
 860:	060a                	slli	a2,a2,0x2
 862:	04090203          	lb	tp,64(s2)
 866:	0100                	addi	s0,sp,128
 868:	0505                	addi	a0,a0,1
 86a:	04090603          	lb	a2,64(s2)
 86e:	0100                	addi	s0,sp,128
 870:	0105                	addi	sp,sp,1
 872:	0306                	slli	t1,t1,0x1
 874:	0901                	addi	s2,s2,0
 876:	0000                	unimp
 878:	0501                	addi	a0,a0,0
 87a:	0609                	addi	a2,a2,2
 87c:	20097b03          	0x20097b03
 880:	0100                	addi	s0,sp,128
 882:	1205                	addi	tp,tp,-31
 884:	0306                	slli	t1,t1,0x1
 886:	0900                	addi	s0,sp,144
 888:	0000                	unimp
 88a:	0501                	addi	a0,a0,0
 88c:	0609                	addi	a2,a2,2
 88e:	14090103          	lb	sp,320(s2)
 892:	0100                	addi	s0,sp,128
 894:	0b05                	addi	s6,s6,1
 896:	0306                	slli	t1,t1,0x1
 898:	0900                	addi	s0,sp,144
 89a:	0000                	unimp
 89c:	0501                	addi	a0,a0,0
 89e:	060d                	addi	a2,a2,3
 8a0:	04090103          	lb	sp,64(s2)
 8a4:	0100                	addi	s0,sp,128
 8a6:	0e05                	addi	t3,t3,1
 8a8:	0306                	slli	t1,t1,0x1
 8aa:	0900                	addi	s0,sp,144
 8ac:	0000                	unimp
 8ae:	0501                	addi	a0,a0,0
 8b0:	0601                	addi	a2,a2,0
 8b2:	08090603          	lb	a2,128(s2)
 8b6:	0100                	addi	s0,sp,128
 8b8:	0505                	addi	a0,a0,1
 8ba:	00090103          	lb	sp,0(s2)
 8be:	0100                	addi	s0,sp,128
 8c0:	00090103          	lb	sp,0(s2)
 8c4:	0100                	addi	s0,sp,128
 8c6:	00090103          	lb	sp,0(s2)
 8ca:	0100                	addi	s0,sp,128
 8cc:	00090303          	lb	t1,0(s2)
 8d0:	0100                	addi	s0,sp,128
 8d2:	0105                	addi	sp,sp,1
 8d4:	0306                	slli	t1,t1,0x1
 8d6:	097a                	slli	s2,s2,0x1e
 8d8:	0000                	unimp
 8da:	0501                	addi	a0,a0,0
 8dc:	0305                	addi	t1,t1,1
 8de:	0906                	slli	s2,s2,0x1
 8e0:	0004                	0x4
 8e2:	0501                	addi	a0,a0,0
 8e4:	0301                	addi	t1,t1,0
 8e6:	097a                	slli	s2,s2,0x1e
 8e8:	0004                	0x4
 8ea:	0301                	addi	t1,t1,0
 8ec:	0900                	addi	s0,sp,144
 8ee:	000c                	0xc
 8f0:	0501                	addi	a0,a0,0
 8f2:	030c                	addi	a1,sp,384
 8f4:	0004090f          	0x4090f
 8f8:	0501                	addi	a0,a0,0
 8fa:	0305                	addi	t1,t1,1
 8fc:	00040977          	0x40977
 900:	0601                	addi	a2,a2,0
 902:	04090203          	lb	tp,64(s2)
 906:	0100                	addi	s0,sp,128
 908:	0905                	addi	s2,s2,1
 90a:	00090203          	lb	tp,0(s2)
 90e:	0100                	addi	s0,sp,128
 910:	1205                	addi	tp,tp,-31
 912:	0306                	slli	t1,t1,0x1
 914:	0900                	addi	s0,sp,144
 916:	0000                	unimp
 918:	0501                	addi	a0,a0,0
 91a:	0310                	addi	a2,sp,384
 91c:	0900                	addi	s0,sp,144
 91e:	000c                	0xc
 920:	0501                	addi	a0,a0,0
 922:	0609                	addi	a2,a2,2
 924:	04090103          	lb	sp,64(s2)
 928:	0100                	addi	s0,sp,128
 92a:	0c05                	addi	s8,s8,1
 92c:	0306                	slli	t1,t1,0x1
 92e:	0900                	addi	s0,sp,144
 930:	0000                	unimp
 932:	0501                	addi	a0,a0,0
 934:	01030607          	vle8ff.v	v12,(t1),v0.t
 938:	0409                	addi	s0,s0,2
 93a:	0100                	addi	s0,sp,128
 93c:	1505                	addi	a0,a0,-31
 93e:	0306                	slli	t1,t1,0x1
 940:	0900                	addi	s0,sp,144
 942:	0000                	unimp
 944:	0501                	addi	a0,a0,0
 946:	0301                	addi	t1,t1,0
 948:	090d                	addi	s2,s2,3
 94a:	0004                	0x4
 94c:	0501                	addi	a0,a0,0
 94e:	0609                	addi	a2,a2,2
 950:	14097403          	0x14097403
 954:	0100                	addi	s0,sp,128
 956:	0d05                	addi	s10,s10,1
 958:	0306                	slli	t1,t1,0x1
 95a:	0900                	addi	s0,sp,144
 95c:	0000                	unimp
 95e:	0501                	addi	a0,a0,0
 960:	030c                	addi	a1,sp,384
 962:	0900                	addi	s0,sp,144
 964:	0008                	0x8
 966:	0501                	addi	a0,a0,0
 968:	0609                	addi	a2,a2,2
 96a:	04090203          	lb	tp,64(s2)
 96e:	0100                	addi	s0,sp,128
 970:	0c05                	addi	s8,s8,1
 972:	0306                	slli	t1,t1,0x1
 974:	0900                	addi	s0,sp,144
 976:	0000                	unimp
 978:	0501                	addi	a0,a0,0
 97a:	0900030b          	0x900030b
 97e:	000c                	0xc
 980:	0501                	addi	a0,a0,0
 982:	060d                	addi	a2,a2,3
 984:	04090203          	lb	tp,64(s2)
 988:	0100                	addi	s0,sp,128
 98a:	0f05                	addi	t5,t5,1
 98c:	0306                	slli	t1,t1,0x1
 98e:	0900                	addi	s0,sp,144
 990:	0000                	unimp
 992:	0501                	addi	a0,a0,0
 994:	0315                	addi	t1,t1,5
 996:	097d                	addi	s2,s2,31
 998:	0010                	0x10
 99a:	0501                	addi	a0,a0,0
 99c:	0601                	addi	a2,a2,0
 99e:	08092303          	lw	t1,128(s2)
 9a2:	0100                	addi	s0,sp,128
 9a4:	0505                	addi	a0,a0,1
 9a6:	00090103          	lb	sp,0(s2)
 9aa:	0100                	addi	s0,sp,128
 9ac:	00090103          	lb	sp,0(s2)
 9b0:	0100                	addi	s0,sp,128
 9b2:	0105                	addi	sp,sp,1
 9b4:	0306                	slli	t1,t1,0x1
 9b6:	097e                	slli	s2,s2,0x1f
 9b8:	0000                	unimp
 9ba:	0501                	addi	a0,a0,0
 9bc:	0305                	addi	t1,t1,1
 9be:	0902                	c.slli64	s2
 9c0:	0004                	0x4
 9c2:	0501                	addi	a0,a0,0
 9c4:	0301                	addi	t1,t1,0
 9c6:	097e                	slli	s2,s2,0x1f
 9c8:	000c                	0xc
 9ca:	0301                	addi	t1,t1,0
 9cc:	0900                	addi	s0,sp,144
 9ce:	0008                	0x8
 9d0:	0501                	addi	a0,a0,0
 9d2:	0305                	addi	t1,t1,1
 9d4:	0902                	c.slli64	s2
 9d6:	0004                	0x4
 9d8:	0601                	addi	a2,a2,0
 9da:	04090103          	lb	sp,64(s2)
 9de:	0100                	addi	s0,sp,128
 9e0:	0c090103          	lb	sp,192(s2)
 9e4:	0100                	addi	s0,sp,128
 9e6:	08090103          	lb	sp,128(s2)
 9ea:	0100                	addi	s0,sp,128
 9ec:	0105                	addi	sp,sp,1
 9ee:	0306                	slli	t1,t1,0x1
 9f0:	0901                	addi	s2,s2,0
 9f2:	0000                	unimp
 9f4:	0601                	addi	a2,a2,0
 9f6:	14090303          	lb	t1,320(s2)
 9fa:	0100                	addi	s0,sp,128
 9fc:	0505                	addi	a0,a0,1
 9fe:	00090603          	lb	a2,0(s2)
 a02:	0100                	addi	s0,sp,128
 a04:	0105                	addi	sp,sp,1
 a06:	0306                	slli	t1,t1,0x1
 a08:	097a                	slli	s2,s2,0x1e
 a0a:	0000                	unimp
 a0c:	0501                	addi	a0,a0,0
 a0e:	0305                	addi	t1,t1,1
 a10:	0906                	slli	s2,s2,0x1
 a12:	000c                	0xc
 a14:	0501                	addi	a0,a0,0
 a16:	0301                	addi	t1,t1,0
 a18:	097a                	slli	s2,s2,0x1e
 a1a:	0004                	0x4
 a1c:	0301                	addi	t1,t1,0
 a1e:	0900                	addi	s0,sp,144
 a20:	0014                	0x14
 a22:	0501                	addi	a0,a0,0
 a24:	0305                	addi	t1,t1,1
 a26:	0906                	slli	s2,s2,0x1
 a28:	0014                	0x14
 a2a:	0601                	addi	a2,a2,0
 a2c:	04090103          	lb	sp,64(s2)
 a30:	0100                	addi	s0,sp,128
 a32:	18090203          	lb	tp,384(s2)
 a36:	0100                	addi	s0,sp,128
 a38:	0c090103          	lb	sp,192(s2)
 a3c:	0100                	addi	s0,sp,128
 a3e:	0c090103          	lb	sp,192(s2)
 a42:	0100                	addi	s0,sp,128
 a44:	10090203          	lb	tp,256(s2)
 a48:	0100                	addi	s0,sp,128
 a4a:	0c05                	addi	s8,s8,1
 a4c:	0306                	slli	t1,t1,0x1
 a4e:	0900                	addi	s0,sp,144
 a50:	0000                	unimp
 a52:	0501                	addi	a0,a0,0
 a54:	0301                	addi	t1,t1,0
 a56:	0901                	addi	s2,s2,0
 a58:	0004                	0x4
 a5a:	0501                	addi	a0,a0,0
 a5c:	030c                	addi	a1,sp,384
 a5e:	001c097f          	radd16	s2,s8,ra
 a62:	0501                	addi	a0,a0,0
 a64:	0601                	addi	a2,a2,0
 a66:	04090403          	lb	s0,64(s2)
 a6a:	0100                	addi	s0,sp,128
 a6c:	0505                	addi	a0,a0,1
 a6e:	00090103          	lb	sp,0(s2)
 a72:	0100                	addi	s0,sp,128
 a74:	0105                	addi	sp,sp,1
 a76:	0306                	slli	t1,t1,0x1
 a78:	0000097f          	radd16	s2,zero,zero
 a7c:	0301                	addi	t1,t1,0
 a7e:	0900                	addi	s0,sp,144
 a80:	001c                	0x1c
 a82:	0501                	addi	a0,a0,0
 a84:	0305                	addi	t1,t1,1
 a86:	0901                	addi	s2,s2,0
 a88:	0014                	0x14
 a8a:	0601                	addi	a2,a2,0
 a8c:	04090103          	lb	sp,64(s2)
 a90:	0100                	addi	s0,sp,128
 a92:	0c090103          	lb	sp,192(s2)
 a96:	0100                	addi	s0,sp,128
 a98:	08090103          	lb	sp,128(s2)
 a9c:	0100                	addi	s0,sp,128
 a9e:	0c090103          	lb	sp,192(s2)
 aa2:	0100                	addi	s0,sp,128
 aa4:	0c090103          	lb	sp,192(s2)
 aa8:	0100                	addi	s0,sp,128
 aaa:	08090103          	lb	sp,128(s2)
 aae:	0100                	addi	s0,sp,128
 ab0:	10090103          	lb	sp,256(s2)
 ab4:	0100                	addi	s0,sp,128
 ab6:	0105                	addi	sp,sp,1
 ab8:	0306                	slli	t1,t1,0x1
 aba:	0901                	addi	s2,s2,0
 abc:	0000                	unimp
 abe:	0901                	addi	s2,s2,0
 ac0:	0024                	addi	s1,sp,8
 ac2:	0100                	addi	s0,sp,128
 ac4:	a401                	j	cc4 <_start-0x60fff33c>
 ac6:	0002                	c.slli64	zero
 ac8:	0300                	addi	s0,sp,384
 aca:	4f00                	lw	s0,24(a4)
 acc:	0001                	nop
 ace:	0100                	addi	s0,sp,128
 ad0:	fb01                	bnez	a4,9e0 <_start-0x60fff620>
 ad2:	0d0e                	slli	s10,s10,0x3
 ad4:	0100                	addi	s0,sp,128
 ad6:	0101                	addi	sp,sp,0
 ad8:	0001                	nop
 ada:	0000                	unimp
 adc:	0001                	nop
 ade:	0100                	addi	s0,sp,128
 ae0:	3a44                	fld	fs1,176(a2)
 ae2:	726f772f          	0x726f772f
 ae6:	30322f6b          	0x30322f6b
 aea:	3232                	fld	ft4,296(sp)
 aec:	396c612f          	0x396c612f
 af0:	3030                	fld	fa2,96(s0)
 af2:	2f30                	fld	fa2,88(a4)
 af4:	642f7773          	csrrci	a4,0x642,30
 af8:	6265                	lui	tp,0x19
 afa:	6775                	lui	a4,0x1d
 afc:	2f726567          	0x2f726567
 b00:	6c61                	lui	s8,0x18
 b02:	6f5f 6570 6f6e      	0x6f6e65706f5f
 b08:	632f6463          	bltu	t5,s2,1130 <_start-0x60ffeed0>
 b0c:	72746e6f          	jal	t3,47a32 <_start-0x60fb85ce>
 b10:	6269                	lui	tp,0x1a
 b12:	616f6c2f          	0x616f6c2f
 b16:	6564                	ld	s1,200(a0)
 b18:	7372                	ld	t1,312(sp)
 b1a:	616c662f          	0x616c662f
 b1e:	712f6873          	csrrsi	a6,0x712,30
 b22:	2f697073          	csrci	0x2f6,18
 b26:	7764                	ld	s1,232(a4)
 b28:	69737363          	bgeu	t1,s7,11ae <_start-0x60ffee52>
 b2c:	6372732f          	0x6372732f
 b30:	6400                	ld	s0,8(s0)
 b32:	5c3a                	lw	s8,172(sp)
 b34:	6b726f77          	0x6b726f77
 b38:	325c                	fld	fa5,160(a2)
 b3a:	3230                	fld	fa2,96(a2)
 b3c:	5c32                	lw	s8,44(sp)
 b3e:	6c61                	lui	s8,0x18
 b40:	3039                	0x3039
 b42:	3030                	fld	fa2,96(s0)
 b44:	735c                	ld	a5,160(a4)
 b46:	64735c77          	0x64735c77
 b4a:	6f735c6b          	0x6f735c6b
 b4e:	70612d63          	0x70612d63
 b52:	2d75                	addiw	s10,s10,29
 b54:	5c6b6473          	csrrsi	s0,0x5c6,22
 b58:	6f74                	ld	a3,216(a4)
 b5a:	5c736c6f          	jal	s8,37920 <_start-0x60fc86e0>
 b5e:	5c6e6977          	0x5c6e6977
 b62:	6972                	ld	s2,280(sp)
 b64:	5c766373          	csrrsi	t1,0x5c7,12
 b68:	6972                	ld	s2,280(sp)
 b6a:	2d766373          	csrrsi	t1,0x2d7,12
 b6e:	756e                	ld	a0,248(sp)
 b70:	69656c63          	bltu	a0,s6,1208 <_start-0x60ffedf8>
 b74:	652d                	lui	a0,0xb
 b76:	666c                	ld	a1,200(a2)
 b78:	695c                	ld	a5,144(a0)
 b7a:	636e                	ld	t1,216(sp)
 b7c:	756c                	ld	a1,232(a0)
 b7e:	6564                	ld	s1,200(a0)
 b80:	6d5c                	ld	a5,152(a0)
 b82:	6361                	lui	t1,0x18
 b84:	6968                	ld	a0,208(a0)
 b86:	656e                	ld	a0,216(sp)
 b88:	6400                	ld	s0,8(s0)
 b8a:	5c3a                	lw	s8,172(sp)
 b8c:	6b726f77          	0x6b726f77
 b90:	325c                	fld	fa5,160(a2)
 b92:	3230                	fld	fa2,96(a2)
 b94:	5c32                	lw	s8,44(sp)
 b96:	6c61                	lui	s8,0x18
 b98:	3039                	0x3039
 b9a:	3030                	fld	fa2,96(s0)
 b9c:	735c                	ld	a5,160(a4)
 b9e:	64735c77          	0x64735c77
 ba2:	6f735c6b          	0x6f735c6b
 ba6:	70612d63          	0x70612d63
 baa:	2d75                	addiw	s10,s10,29
 bac:	5c6b6473          	csrrsi	s0,0x5c6,22
 bb0:	6f74                	ld	a3,216(a4)
 bb2:	5c736c6f          	jal	s8,37978 <_start-0x60fc8688>
 bb6:	5c6e6977          	0x5c6e6977
 bba:	6972                	ld	s2,280(sp)
 bbc:	5c766373          	csrrsi	t1,0x5c7,12
 bc0:	6972                	ld	s2,280(sp)
 bc2:	2d766373          	csrrsi	t1,0x2d7,12
 bc6:	756e                	ld	a0,248(sp)
 bc8:	69656c63          	bltu	a0,s6,1260 <_start-0x60ffeda0>
 bcc:	652d                	lui	a0,0xb
 bce:	666c                	ld	a1,200(a2)
 bd0:	695c                	ld	a5,144(a0)
 bd2:	636e                	ld	t1,216(sp)
 bd4:	756c                	ld	a1,232(a0)
 bd6:	6564                	ld	s1,200(a0)
 bd8:	735c                	ld	a5,160(a4)
 bda:	7379                	lui	t1,0xffffe
 bdc:	0000                	unimp
 bde:	7764                	ld	s1,232(a4)
 be0:	69737363          	bgeu	t1,s7,1266 <_start-0x60ffed9a>
 be4:	615f 7973 636e      	0x636e7973615f
 bea:	632e                	ld	t1,200(sp)
 bec:	0100                	addi	s0,sp,128
 bee:	0000                	unimp
 bf0:	645f 6665 7561      	0x75616665645f
 bf6:	746c                	ld	a1,232(s0)
 bf8:	745f 7079 7365      	0x73657079745f
 bfe:	682e                	ld	a6,200(sp)
 c00:	0200                	addi	s0,sp,256
 c02:	0000                	unimp
 c04:	735f 6474 6e69      	0x6e696474735f
 c0a:	2e74                	fld	fa3,216(a2)
 c0c:	0068                	addi	a0,sp,12
 c0e:	64000003          	lb	zero,1600(zero) # 640 <_start-0x60fff9c0>
 c12:	73736377          	0x73736377
 c16:	2e69                	addiw	t3,t3,26
 c18:	0068                	addi	a0,sp,12
 c1a:	0001                	nop
 c1c:	0000                	unimp
 c1e:	0105                	addi	sp,sp,1
 c20:	0900                	addi	s0,sp,144
 c22:	1802                	slli	a6,a6,0x20
 c24:	00610007          	0x610007
 c28:	0000                	unimp
 c2a:	1500                	addi	s0,sp,672
 c2c:	0505                	addi	a0,a0,1
 c2e:	00090103          	lb	sp,0(s2)
 c32:	0100                	addi	s0,sp,128
 c34:	00090103          	lb	sp,0(s2)
 c38:	0100                	addi	s0,sp,128
 c3a:	00090203          	lb	tp,0(s2)
 c3e:	0100                	addi	s0,sp,128
 c40:	00090203          	lb	tp,0(s2)
 c44:	0100                	addi	s0,sp,128
 c46:	0105                	addi	sp,sp,1
 c48:	0306                	slli	t1,t1,0x1
 c4a:	097a                	slli	s2,s2,0x1e
 c4c:	0000                	unimp
 c4e:	0301                	addi	t1,t1,0
 c50:	0900                	addi	s0,sp,144
 c52:	003c                	addi	a5,sp,8
 c54:	0501                	addi	a0,a0,0
 c56:	030e                	slli	t1,t1,0x3
 c58:	0902                	c.slli64	s2
 c5a:	001c                	0x1c
 c5c:	0501                	addi	a0,a0,0
 c5e:	090e0317          	auipc	t1,0x90e0
 c62:	0004                	0x4
 c64:	0501                	addi	a0,a0,0
 c66:	0310                	addi	a2,sp,384
 c68:	00040907          	vle8.v	v18,(s0),v0.t
 c6c:	0501                	addi	a0,a0,0
 c6e:	060a                	slli	a2,a2,0x2
 c70:	04096f03          	lwu	t5,64(s2)
 c74:	0100                	addi	s0,sp,128
 c76:	0505                	addi	a0,a0,1
 c78:	04091803          	lh	a6,64(s2)
 c7c:	0100                	addi	s0,sp,128
 c7e:	0105                	addi	sp,sp,1
 c80:	0306                	slli	t1,t1,0x1
 c82:	0901                	addi	s2,s2,0
 c84:	0000                	unimp
 c86:	0501                	addi	a0,a0,0
 c88:	0609                	addi	a2,a2,2
 c8a:	3c096d03          	lwu	s10,960(s2)
 c8e:	0100                	addi	s0,sp,128
 c90:	1a05                	addi	s4,s4,-31
 c92:	0306                	slli	t1,t1,0x1
 c94:	0900                	addi	s0,sp,144
 c96:	0000                	unimp
 c98:	0501                	addi	a0,a0,0
 c9a:	09020317          	auipc	t1,0x9020
 c9e:	000c                	0xc
 ca0:	0501                	addi	a0,a0,0
 ca2:	031a                	slli	t1,t1,0x6
 ca4:	097e                	slli	s2,s2,0x1f
 ca6:	0004                	0x4
 ca8:	0501                	addi	a0,a0,0
 caa:	0609                	addi	a2,a2,2
 cac:	04090103          	lb	sp,64(s2)
 cb0:	0100                	addi	s0,sp,128
 cb2:	1705                	addi	a4,a4,-31
 cb4:	0306                	slli	t1,t1,0x1
 cb6:	0901                	addi	s2,s2,0
 cb8:	0000                	unimp
 cba:	0501                	addi	a0,a0,0
 cbc:	097f030b          	0x97f030b
 cc0:	0004                	0x4
 cc2:	0501                	addi	a0,a0,0
 cc4:	060d                	addi	a2,a2,3
 cc6:	04090303          	lb	t1,64(s2)
 cca:	0100                	addi	s0,sp,128
 ccc:	1705                	addi	a4,a4,-31
 cce:	0306                	slli	t1,t1,0x1
 cd0:	0900                	addi	s0,sp,144
 cd2:	0000                	unimp
 cd4:	0501                	addi	a0,a0,0
 cd6:	0312                	slli	t1,t1,0x4
 cd8:	0902                	c.slli64	s2
 cda:	0004                	0x4
 cdc:	0501                	addi	a0,a0,0
 cde:	0609                	addi	a2,a2,2
 ce0:	1c090003          	lb	zero,448(s2)
 ce4:	0100                	addi	s0,sp,128
 ce6:	1205                	addi	tp,tp,-31
 ce8:	0306                	slli	t1,t1,0x1
 cea:	0900                	addi	s0,sp,144
 cec:	0000                	unimp
 cee:	0501                	addi	a0,a0,0
 cf0:	030c                	addi	a1,sp,384
 cf2:	00040903          	lb	s2,0(s0)
 cf6:	0501                	addi	a0,a0,0
 cf8:	0901030b          	0x901030b
 cfc:	000c                	0xc
 cfe:	0501                	addi	a0,a0,0
 d00:	0310                	addi	a2,sp,384
 d02:	097c                	addi	a5,sp,156
 d04:	0004                	0x4
 d06:	0501                	addi	a0,a0,0
 d08:	0609                	addi	a2,a2,2
 d0a:	04090303          	lb	t1,64(s2)
 d0e:	0100                	addi	s0,sp,128
 d10:	00090103          	lb	sp,0(s2)
 d14:	0100                	addi	s0,sp,128
 d16:	0b05                	addi	s6,s6,1
 d18:	0306                	slli	t1,t1,0x1
 d1a:	0900                	addi	s0,sp,144
 d1c:	0000                	unimp
 d1e:	0501                	addi	a0,a0,0
 d20:	060d                	addi	a2,a2,3
 d22:	04090103          	lb	sp,64(s2)
 d26:	0100                	addi	s0,sp,128
 d28:	1005                	c.nop	-31
 d2a:	0306                	slli	t1,t1,0x1
 d2c:	0900                	addi	s0,sp,144
 d2e:	0000                	unimp
 d30:	0501                	addi	a0,a0,0
 d32:	0609                	addi	a2,a2,2
 d34:	04090103          	lb	sp,64(s2)
 d38:	0100                	addi	s0,sp,128
 d3a:	1c05                	addi	s8,s8,-31
 d3c:	0306                	slli	t1,t1,0x1
 d3e:	0900                	addi	s0,sp,144
 d40:	0000                	unimp
 d42:	0501                	addi	a0,a0,0
 d44:	0609                	addi	a2,a2,2
 d46:	04090203          	lb	tp,64(s2)
 d4a:	0100                	addi	s0,sp,128
 d4c:	1005                	c.nop	-31
 d4e:	0306                	slli	t1,t1,0x1
 d50:	0900                	addi	s0,sp,144
 d52:	0000                	unimp
 d54:	0501                	addi	a0,a0,0
 d56:	0609                	addi	a2,a2,2
 d58:	04090103          	lb	sp,64(s2)
 d5c:	0100                	addi	s0,sp,128
 d5e:	1005                	c.nop	-31
 d60:	0306                	slli	t1,t1,0x1
 d62:	0900                	addi	s0,sp,144
 d64:	0000                	unimp
 d66:	0901                	addi	s2,s2,0
 d68:	0008                	0x8
 d6a:	0100                	addi	s0,sp,128
 d6c:	01              	Address 0x0000000000000d6c is out of bounds.


Disassembly of section .debug_info:

0000000000000000 <.debug_info>:
       0:	002a                	c.slli	zero,0xa
       2:	0000                	unimp
       4:	0002                	c.slli64	zero
       6:	0000                	unimp
       8:	0000                	unimp
       a:	0108                	addi	a0,sp,128
       c:	0000                	unimp
       e:	0000                	unimp
      10:	0000                	unimp
      12:	6100                	ld	s0,0(a0)
      14:	0000                	unimp
      16:	0000                	unimp
      18:	0010                	0x10
      1a:	6100                	ld	s0,0(a0)
	...
      24:	0066                	c.slli	zero,0x19
      26:	0000                	unimp
      28:	000000b3          	add	ra,zero,zero
      2c:	8001                	c.srli64	s0
      2e:	00000f7f          	radd16	t5,zero,zero
      32:	0004                	0x4
      34:	0014                	0x14
      36:	0000                	unimp
      38:	0108                	addi	a0,sp,128
      3a:	0220                	addi	s0,sp,264
      3c:	0000                	unimp
      3e:	230c                	fld	fa1,0(a4)
      40:	0001                	nop
      42:	6600                	ld	s0,8(a2)
      44:	0000                	unimp
      46:	1000                	addi	s0,sp,32
      48:	0000                	unimp
      4a:	0061                	c.nop	24
      4c:	0000                	unimp
      4e:	0800                	addi	s0,sp,16
      50:	00000007          	vle8.v	v0,(zero),v0.t
      54:	0000                	unimp
      56:	a600                	fsd	fs0,8(a2)
      58:	0000                	unimp
      5a:	0200                	addi	s0,sp,256
      5c:	0601                	addi	a2,a2,0
      5e:	0396                	slli	t2,t2,0x5
      60:	0000                	unimp
      62:	0000ca03          	lbu	s4,0(ra)
      66:	0200                	addi	s0,sp,256
      68:	0040182b          	0x40182b
      6c:	0000                	unimp
      6e:	0102                	c.slli64	sp
      70:	9408                	0x9408
      72:	02000003          	lb	zero,32(zero) # 20 <_start-0x60ffffe0>
      76:	0502                	c.slli64	a0
      78:	03b0                	addi	a2,sp,456
      7a:	0000                	unimp
      7c:	0202                	c.slli64	tp
      7e:	0002a207          	flw	ft4,0(t0)
      82:	0400                	addi	s0,sp,512
      84:	0504                	addi	s1,sp,640
      86:	6e69                	lui	t3,0x1a
      88:	0074                	addi	a3,sp,12
      8a:	00020203          	lb	tp,0(tp) # 1a000 <_start-0x60fe6000>
      8e:	0200                	addi	s0,sp,256
      90:	0068194f          	fnmadd.s	fs2,fa6,ft6,ft0,rtz
      94:	0000                	unimp
      96:	0402                	c.slli64	s0
      98:	00010107          	vle8.v	v2,(sp),v0.t
      9c:	0200                	addi	s0,sp,256
      9e:	0508                	addi	a0,sp,640
      a0:	01b4                	addi	a3,sp,200
      a2:	0000                	unimp
      a4:	0802                	c.slli64	a6
      a6:	0000fc07          	vle64.v	v24,(ra),v0.t
      aa:	0300                	addi	s0,sp,384
      ac:	00cc                	addi	a1,sp,68
      ae:	0000                	unimp
      b0:	34131803          	lh	a6,833(t1) # 9020fdb <_start-0x57fdf025>
      b4:	0000                	unimp
      b6:	0500                	addi	s0,sp,640
      b8:	007d                	c.nop	31
      ba:	0000                	unimp
      bc:	00020403          	lb	s0,0(tp) # 0 <_start-0x61000000>
      c0:	0300                	addi	s0,sp,384
      c2:	1430                	addi	a2,sp,552
      c4:	005c                	addi	a5,sp,4
      c6:	0000                	unimp
      c8:	8e06                	mv	t3,ra
      ca:	0000                	unimp
      cc:	0200                	addi	s0,sp,256
      ce:	0508                	addi	a0,sp,640
      d0:	000001af          	0x1af
      d4:	1002                	c.slli	zero,0x20
      d6:	3104                	fld	fs1,32(a0)
      d8:	02000003          	lb	zero,32(zero) # 20 <_start-0x60ffffe0>
      dc:	0801                	addi	a6,a6,0
      de:	039d                	addi	t2,t2,7
      e0:	0000                	unimp
      e2:	0802                	c.slli64	a6
      e4:	0000f707          	vle64.v	v14,(ra),v0.t
      e8:	0700                	addi	s0,sp,896
      ea:	02d0                	addi	a2,sp,324
      ec:	0000                	unimp
      ee:	c301                	beqz	a4,ee <_start-0x60ffff12>
      f0:	0501                	addi	a0,a0,0
      f2:	0055                	c.nop	21
      f4:	0000                	unimp
      f6:	067c                	addi	a5,sp,780
      f8:	6100                	ld	s0,0(a0)
      fa:	0000                	unimp
      fc:	0000                	unimp
      fe:	009c                	addi	a5,sp,64
     100:	0000                	unimp
     102:	0000                	unimp
     104:	0000                	unimp
     106:	9c01                	subw	s0,s0,s0
     108:	01f6                	slli	gp,gp,0x1d
     10a:	0000                	unimp
     10c:	e808                	sd	a0,16(s0)
     10e:	01000003          	lb	zero,16(zero) # 10 <_start-0x60fffff0>
     112:	f62901c3          	fmadd.q	ft3,fs2,ft2,ft10,rne
     116:	0001                	nop
     118:	0000                	unimp
     11a:	0000                	unimp
     11c:	0800                	addi	s0,sp,16
     11e:	044e                	slli	s0,s0,0x13
     120:	0000                	unimp
     122:	c301                	beqz	a4,122 <_start-0x60fffede>
     124:	3d01                	addiw	s10,s10,-32
     126:	01fc                	addi	a5,sp,204
     128:	0000                	unimp
     12a:	004c                	addi	a1,sp,4
     12c:	0000                	unimp
     12e:	0008                	0x8
     130:	0004                	0x4
     132:	0100                	addi	s0,sp,128
     134:	8e4e01c3          	fmadd.q	ft3,ft8,ft4,fa7,rne
     138:	0000                	unimp
     13a:	9800                	0x9800
     13c:	0000                	unimp
     13e:	0900                	addi	s0,sp,144
     140:	656c                	ld	a1,200(a0)
     142:	006e                	c.slli	zero,0x1b
     144:	c301                	beqz	a4,144 <_start-0x60fffebc>
     146:	5f01                	li	t5,-32
     148:	008e                	slli	ra,ra,0x3
     14a:	0000                	unimp
     14c:	00d1                	addi	ra,ra,20
     14e:	0000                	unimp
     150:	5a08                	lw	a0,48(a2)
     152:	01000003          	lb	zero,16(zero) # 10 <_start-0x60fffff0>
     156:	8e6d01c3          	fmadd.q	ft3,fs10,ft6,fa7,rne
     15a:	0000                	unimp
     15c:	0a00                	addi	s0,sp,272
     15e:	0001                	nop
     160:	0a00                	addi	s0,sp,272
     162:	06b0                	addi	a2,sp,840
     164:	6100                	ld	s0,0(a0)
     166:	0000                	unimp
     168:	0000                	unimp
     16a:	0d58                	addi	a4,sp,660
     16c:	0000                	unimp
     16e:	0000014b          	fnmsub.s	ft2,ft0,ft0,ft0,rne
     172:	025a010b          	0x25a010b
     176:	0078                	addi	a4,sp,12
     178:	0a00                	addi	s0,sp,272
     17a:	06bc                	addi	a5,sp,840
     17c:	6100                	ld	s0,0(a0)
     17e:	0000                	unimp
     180:	0000                	unimp
     182:	0c19                	addi	s8,s8,6
     184:	0000                	unimp
     186:	0169                	addi	sp,sp,26
     188:	0000                	unimp
     18a:	025a010b          	0x25a010b
     18e:	0078                	addi	a4,sp,12
     190:	025b010b          	0x25b010b
     194:	0079                	c.nop	30
     196:	0a00                	addi	s0,sp,272
     198:	06c4                	addi	s1,sp,836
     19a:	6100                	ld	s0,0(a0)
     19c:	0000                	unimp
     19e:	0000                	unimp
     1a0:	00000d1b          	sext.w	s10,zero
     1a4:	0181                	addi	gp,gp,0
     1a6:	0000                	unimp
     1a8:	025a010b          	0x25a010b
     1ac:	0078                	addi	a4,sp,12
     1ae:	0a00                	addi	s0,sp,272
     1b0:	06d0                	addi	a2,sp,836
     1b2:	6100                	ld	s0,0(a0)
     1b4:	0000                	unimp
     1b6:	0000                	unimp
     1b8:	000006e7          	jalr	a3,zero # 0 <_start-0x61000000>
     1bc:	019f 0000 010b      	0x10b0000019f
     1c2:	025a                	slli	tp,tp,0x16
     1c4:	0078                	addi	a4,sp,12
     1c6:	025b010b          	0x25b010b
     1ca:	0084                	addi	s1,sp,64
     1cc:	0a00                	addi	s0,sp,272
     1ce:	06dc                	addi	a5,sp,836
     1d0:	6100                	ld	s0,0(a0)
     1d2:	0000                	unimp
     1d4:	0000                	unimp
     1d6:	000006e7          	jalr	a3,zero # 0 <_start-0x61000000>
     1da:	01bd                	addi	gp,gp,15
     1dc:	0000                	unimp
     1de:	025a010b          	0x25a010b
     1e2:	0078                	addi	a4,sp,12
     1e4:	025b010b          	0x25b010b
     1e8:	0a000083          	lb	ra,160(zero) # a0 <_start-0x60ffff60>
     1ec:	06e4                	addi	s1,sp,844
     1ee:	6100                	ld	s0,0(a0)
     1f0:	0000                	unimp
     1f2:	0000                	unimp
     1f4:	078d                	addi	a5,a5,3
     1f6:	0000                	unimp
     1f8:	01d5                	addi	gp,gp,21
     1fa:	0000                	unimp
     1fc:	025a010b          	0x25a010b
     200:	0078                	addi	a4,sp,12
     202:	0c00                	addi	s0,sp,528
     204:	06f4                	addi	a3,sp,844
     206:	6100                	ld	s0,0(a0)
     208:	0000                	unimp
     20a:	0000                	unimp
     20c:	000004cf          	fnmadd.s	fs1,ft0,ft0,ft0,rne
     210:	025a010b          	0x25a010b
     214:	0078                	addi	a4,sp,12
     216:	025b010b          	0x25b010b
     21a:	0082                	c.slli64	ra
     21c:	025c010b          	0x25c010b
     220:	0079                	c.nop	30
     222:	0000                	unimp
     224:	080d                	addi	a6,a6,3
     226:	009a                	slli	ra,ra,0x6
     228:	0000                	unimp
     22a:	080d                	addi	a6,a6,3
     22c:	007d                	c.nop	31
     22e:	0000                	unimp
     230:	00044107          	flq	ft2,0(s0)
     234:	0100                	addi	s0,sp,128
     236:	01b2                	slli	gp,gp,0xc
     238:	5505                	li	a0,-31
     23a:	0000                	unimp
     23c:	dc00                	sw	s0,56(s0)
     23e:	0005                	c.nop	1
     240:	0061                	c.nop	24
     242:	0000                	unimp
     244:	a000                	fsd	fs0,0(s0)
     246:	0000                	unimp
     248:	0000                	unimp
     24a:	0000                	unimp
     24c:	0100                	addi	s0,sp,128
     24e:	4e9c                	lw	a5,24(a3)
     250:	08000003          	lb	zero,128(zero) # 80 <_start-0x60ffff80>
     254:	03e8                	addi	a0,sp,460
     256:	0000                	unimp
     258:	b201                	j	fffffffffffffb58 <stack_end+0xffffffff9efff130>
     25a:	2c01                	sext.w	s8,s8
     25c:	01f6                	slli	gp,gp,0x1d
     25e:	0000                	unimp
     260:	00000143          	fmadd.s	ft2,ft0,ft0,ft0,rne
     264:	4e08                	lw	a0,24(a2)
     266:	0004                	0x4
     268:	0100                	addi	s0,sp,128
     26a:	01b2                	slli	gp,gp,0xc
     26c:	4e46                	lw	t3,80(sp)
     26e:	a2000003          	lb	zero,-1504(zero) # fffffffffffffa20 <stack_end+0xffffffff9effeff8>
     272:	0001                	nop
     274:	0800                	addi	s0,sp,16
     276:	0400                	addi	s0,sp,512
     278:	0000                	unimp
     27a:	b201                	j	fffffffffffffb7a <stack_end+0xffffffff9efff152>
     27c:	5701                	li	a4,-32
     27e:	008e                	slli	ra,ra,0x3
     280:	0000                	unimp
     282:	01ee                	slli	gp,gp,0x1b
     284:	0000                	unimp
     286:	6c09                	lui	s8,0x2
     288:	6e65                	lui	t3,0x19
     28a:	0100                	addi	s0,sp,128
     28c:	01b2                	slli	gp,gp,0xc
     28e:	8e68                	0x8e68
     290:	0000                	unimp
     292:	2700                	fld	fs0,8(a4)
     294:	0002                	c.slli64	zero
     296:	0800                	addi	s0,sp,16
     298:	02b5                	addi	t0,t0,13
     29a:	0000                	unimp
     29c:	b201                	j	fffffffffffffb9c <stack_end+0xffffffff9efff174>
     29e:	7601                	lui	a2,0xfffe0
     2a0:	008e                	slli	ra,ra,0x3
     2a2:	0000                	unimp
     2a4:	0260                	addi	s0,sp,268
     2a6:	0000                	unimp
     2a8:	cf08                	sw	a0,24(a4)
     2aa:	01000003          	lb	zero,16(zero) # 10 <_start-0x60fffff0>
     2ae:	01b2                	slli	gp,gp,0xc
     2b0:	00008e8b          	0x8e8b
     2b4:	9900                	0x9900
     2b6:	0002                	c.slli64	zero
     2b8:	0a00                	addi	s0,sp,272
     2ba:	0618                	addi	a4,sp,768
     2bc:	6100                	ld	s0,0(a0)
     2be:	0000                	unimp
     2c0:	0000                	unimp
     2c2:	0354                	addi	a3,sp,388
     2c4:	0000                	unimp
     2c6:	02a8                	addi	a0,sp,328
     2c8:	0000                	unimp
     2ca:	025a010b          	0x25a010b
     2ce:	0078                	addi	a4,sp,12
     2d0:	015b010b          	0x15b010b
     2d4:	0030                	addi	a2,sp,8
     2d6:	300a                	fld	ft0,160(sp)
     2d8:	0006                	c.slli	zero,0x1
     2da:	0061                	c.nop	24
     2dc:	0000                	unimp
     2de:	ff00                	sd	s0,56(a4)
     2e0:	0008                	0x8
     2e2:	d800                	sw	s0,48(s0)
     2e4:	0002                	c.slli64	zero
     2e6:	0b00                	addi	s0,sp,400
     2e8:	5a01                	li	s4,-32
     2ea:	7802                	ld	a6,32(sp)
     2ec:	0b00                	addi	s0,sp,400
     2ee:	5b01                	li	s6,-32
     2f0:	3201                	addiw	tp,tp,-32
     2f2:	025c010b          	0x25c010b
     2f6:	0079                	c.nop	30
     2f8:	015d010b          	0x15d010b
     2fc:	0b34                	addi	a3,sp,408
     2fe:	5e01                	li	t3,-32
     300:	9104                	0x9104
     302:	9448                	0x9448
     304:	0004                	0x4
     306:	3c0a                	fld	fs8,160(sp)
     308:	0006                	c.slli	zero,0x1
     30a:	0061                	c.nop	24
     30c:	0000                	unimp
     30e:	e700                	sd	s0,8(a4)
     310:	0006                	c.slli	zero,0x1
     312:	f600                	sd	s0,40(a2)
     314:	0002                	c.slli64	zero
     316:	0b00                	addi	s0,sp,400
     318:	5a01                	li	s4,-32
     31a:	7802                	ld	a6,32(sp)
     31c:	0b00                	addi	s0,sp,400
     31e:	5b01                	li	s6,-32
     320:	8402                	jr	s0
     322:	0000                	unimp
     324:	480a                	lw	a6,128(sp)
     326:	0006                	c.slli	zero,0x1
     328:	0061                	c.nop	24
     32a:	0000                	unimp
     32c:	e700                	sd	s0,8(a4)
     32e:	0006                	c.slli	zero,0x1
     330:	1400                	addi	s0,sp,544
     332:	0b000003          	lb	zero,176(zero) # b0 <_start-0x60ffff50>
     336:	5a01                	li	s4,-32
     338:	7802                	ld	a6,32(sp)
     33a:	0b00                	addi	s0,sp,400
     33c:	5b01                	li	s6,-32
     33e:	8302                	jr	t1
     340:	0000                	unimp
     342:	580a                	lw	a6,160(sp)
     344:	0006                	c.slli	zero,0x1
     346:	0061                	c.nop	24
     348:	0000                	unimp
     34a:	e200                	sd	s0,0(a2)
     34c:	0005                	c.nop	1
     34e:	3800                	fld	fs0,48(s0)
     350:	0b000003          	lb	zero,176(zero) # b0 <_start-0x60ffff50>
     354:	5a01                	li	s4,-32
     356:	7802                	ld	a6,32(sp)
     358:	0b00                	addi	s0,sp,400
     35a:	5b01                	li	s6,-32
     35c:	8202                	jr	tp
     35e:	0b00                	addi	s0,sp,400
     360:	5c01                	li	s8,-32
     362:	7902                	ld	s2,32(sp)
     364:	0000                	unimp
     366:	7c0e                	ld	s8,224(sp)
     368:	0006                	c.slli	zero,0x1
     36a:	0061                	c.nop	24
     36c:	0000                	unimp
     36e:	0000                	unimp
     370:	0004                	0x4
     372:	0b00                	addi	s0,sp,400
     374:	5a01                	li	s4,-32
     376:	5a01f303          	0x5a01f303
     37a:	0000                	unimp
     37c:	080d                	addi	a6,a6,3
     37e:	0089                	addi	ra,ra,2
     380:	0000                	unimp
     382:	00038107          	vle8.v	v2,(t2),v0.t
     386:	0100                	addi	s0,sp,128
     388:	01a9                	addi	gp,gp,10
     38a:	5505                	li	a0,-31
     38c:	0000                	unimp
     38e:	9400                	0x9400
     390:	0005                	c.nop	1
     392:	0061                	c.nop	24
     394:	0000                	unimp
     396:	4800                	lw	s0,16(s0)
     398:	0000                	unimp
     39a:	0000                	unimp
     39c:	0000                	unimp
     39e:	0100                	addi	s0,sp,128
     3a0:	009c                	addi	a5,sp,64
     3a2:	0004                	0x4
     3a4:	0800                	addi	s0,sp,16
     3a6:	03e8                	addi	a0,sp,460
     3a8:	0000                	unimp
     3aa:	a901                	j	7ba <_start-0x60fff846>
     3ac:	2b01                	sext.w	s6,s6
     3ae:	01f6                	slli	gp,gp,0x1d
     3b0:	0000                	unimp
     3b2:	02d2                	slli	t0,t0,0x14
     3b4:	0000                	unimp
     3b6:	6609                	lui	a2,0x2
     3b8:	6672                	ld	a2,280(sp)
     3ba:	0100                	addi	s0,sp,128
     3bc:	01a9                	addi	gp,gp,10
     3be:	7d3e                	ld	s10,488(sp)
     3c0:	0000                	unimp
     3c2:	1e00                	addi	s0,sp,816
     3c4:	0f000003          	lb	zero,240(zero) # f0 <_start-0x60ffff10>
     3c8:	00e1                	addi	ra,ra,24
     3ca:	0000                	unimp
     3cc:	ab01                	j	8dc <_start-0x60fff724>
     3ce:	0d01                	addi	s10,s10,0
     3d0:	007d                	c.nop	31
     3d2:	0000                	unimp
     3d4:	0a00                	addi	s0,sp,272
     3d6:	05b4                	addi	a3,sp,712
     3d8:	6100                	ld	s0,0(a0)
     3da:	0000                	unimp
     3dc:	0000                	unimp
     3de:	000008ff          	radd16	a7,zero,zero
     3e2:	03ce                	slli	t2,t2,0x13
     3e4:	0000                	unimp
     3e6:	025a010b          	0x25a010b
     3ea:	0078                	addi	a4,sp,12
     3ec:	015c010b          	0x15c010b
     3f0:	0b30                	addi	a2,sp,408
     3f2:	5d01                	li	s10,-32
     3f4:	3001                	0x3001
     3f6:	015e010b          	0x15e010b
     3fa:	0030                	addi	a2,sp,8
     3fc:	c00a                	sw	sp,0(sp)
     3fe:	0005                	c.nop	1
     400:	0061                	c.nop	24
     402:	0000                	unimp
     404:	e700                	sd	s0,8(a4)
     406:	0006                	c.slli	zero,0x1
     408:	eb00                	sd	s0,16(a4)
     40a:	0b000003          	lb	zero,176(zero) # b0 <_start-0x60ffff50>
     40e:	5a01                	li	s4,-32
     410:	7802                	ld	a6,32(sp)
     412:	0b00                	addi	s0,sp,400
     414:	5b01                	li	s6,-32
     416:	3601                	addiw	a2,a2,-32
     418:	0c00                	addi	s0,sp,528
     41a:	05c8                	addi	a0,sp,708
     41c:	6100                	ld	s0,0(a0)
     41e:	0000                	unimp
     420:	0000                	unimp
     422:	0760                	addi	s0,sp,908
     424:	0000                	unimp
     426:	025a010b          	0x25a010b
     42a:	0078                	addi	a4,sp,12
     42c:	0000                	unimp
     42e:	00028b07          	vle8.v	v22,(t0),v0.t
     432:	0100                	addi	s0,sp,128
     434:	0178                	addi	a4,sp,140
     436:	5505                	li	a0,-31
     438:	0000                	unimp
     43a:	1400                	addi	s0,sp,544
     43c:	0005                	c.nop	1
     43e:	0061                	c.nop	24
     440:	0000                	unimp
     442:	8000                	0x8000
     444:	0000                	unimp
     446:	0000                	unimp
     448:	0000                	unimp
     44a:	0100                	addi	s0,sp,128
     44c:	cf9c                	sw	a5,24(a5)
     44e:	0004                	0x4
     450:	0800                	addi	s0,sp,16
     452:	03e8                	addi	a0,sp,460
     454:	0000                	unimp
     456:	7801                	lui	a6,0xfffe0
     458:	2f01                	sext.w	t5,t5
     45a:	01f6                	slli	gp,gp,0x1d
     45c:	0000                	unimp
     45e:	00000357          	vadd.vv	v6,v0,v0,v0.t
     462:	7210                	ld	a2,32(a2)
     464:	0078                	addi	a4,sp,12
     466:	7a01                	lui	s4,0xfffe0
     468:	0d01                	addi	s10,s10,0
     46a:	007d                	c.nop	31
     46c:	0000                	unimp
     46e:	9102                	jalr	sp
     470:	0f5f 0411 0000      	0x4110f5f
     476:	7b01                	lui	s6,0xfffe0
     478:	0e01                	addi	t3,t3,0
     47a:	008e                	slli	ra,ra,0x3
     47c:	0000                	unimp
     47e:	1101                	addi	sp,sp,-32
     480:	00000463          	beqz	zero,488 <_start-0x60fffb78>
     484:	7c01                	lui	s8,0xfffe0
     486:	0e01                	addi	t3,t3,0
     488:	008e                	slli	ra,ra,0x3
     48a:	0000                	unimp
     48c:	03b6                	slli	t2,t2,0xd
     48e:	0000                	unimp
     490:	340a                	fld	fs0,160(sp)
     492:	0005                	c.nop	1
     494:	0061                	c.nop	24
     496:	0000                	unimp
     498:	2e00                	fld	fs0,24(a2)
     49a:	000a                	c.slli	zero,0x2
     49c:	7f00                	ld	s0,56(a4)
     49e:	0004                	0x4
     4a0:	0b00                	addi	s0,sp,400
     4a2:	5a01                	li	s4,-32
     4a4:	7802                	ld	a6,32(sp)
     4a6:	0b00                	addi	s0,sp,400
     4a8:	5b01                	li	s6,-32
     4aa:	3101                	addiw	sp,sp,-32
     4ac:	0a00                	addi	s0,sp,272
     4ae:	0540                	addi	s0,sp,644
     4b0:	6100                	ld	s0,0(a0)
     4b2:	0000                	unimp
     4b4:	0000                	unimp
     4b6:	000006e7          	jalr	a3,zero # 0 <_start-0x61000000>
     4ba:	049c                	addi	a5,sp,576
     4bc:	0000                	unimp
     4be:	025a010b          	0x25a010b
     4c2:	0078                	addi	a4,sp,12
     4c4:	015b010b          	0x15b010b
     4c8:	0035                	c.nop	13
     4ca:	680a                	ld	a6,128(sp)
     4cc:	0005                	c.nop	1
     4ce:	0061                	c.nop	24
     4d0:	0000                	unimp
     4d2:	6000                	ld	s0,0(s0)
     4d4:	b4000007          	0xb4000007
     4d8:	0004                	0x4
     4da:	0b00                	addi	s0,sp,400
     4dc:	5a01                	li	s4,-32
     4de:	7802                	ld	a6,32(sp)
     4e0:	0000                	unimp
     4e2:	780c                	ld	a1,48(s0)
     4e4:	0005                	c.nop	1
     4e6:	0061                	c.nop	24
     4e8:	0000                	unimp
     4ea:	6700                	ld	s0,8(a4)
     4ec:	0005                	c.nop	1
     4ee:	0b00                	addi	s0,sp,400
     4f0:	5a01                	li	s4,-32
     4f2:	7802                	ld	a6,32(sp)
     4f4:	0b00                	addi	s0,sp,400
     4f6:	5b01                	li	s6,-32
     4f8:	7902                	ld	s2,32(sp)
     4fa:	0000                	unimp
     4fc:	0700                	addi	s0,sp,896
     4fe:	0455                	addi	s0,s0,21
     500:	0000                	unimp
     502:	6b01                	0x6b01
     504:	0501                	addi	a0,a0,0
     506:	0055                	c.nop	21
     508:	0000                	unimp
     50a:	04a8                	addi	a0,sp,584
     50c:	6100                	ld	s0,0(a0)
     50e:	0000                	unimp
     510:	0000                	unimp
     512:	006c                	addi	a1,sp,12
     514:	0000                	unimp
     516:	0000                	unimp
     518:	0000                	unimp
     51a:	9c01                	subw	s0,s0,s0
     51c:	00000567          	jalr	a0,zero # 0 <_start-0x61000000>
     520:	e808                	sd	a0,16(s0)
     522:	01000003          	lb	zero,16(zero) # 10 <_start-0x60fffff0>
     526:	f626016b          	0xf626016b
     52a:	0001                	nop
     52c:	ec00                	sd	s0,24(s0)
     52e:	08000003          	lb	zero,128(zero) # 80 <_start-0x60ffff80>
     532:	0428                	addi	a0,sp,520
     534:	0000                	unimp
     536:	6b01                	0x6b01
     538:	3a01                	addiw	s4,s4,-32
     53a:	01fc                	addi	a5,sp,204
     53c:	0000                	unimp
     53e:	0000044b          	fnmsub.s	fs0,ft0,ft0,ft0,rne
     542:	c008                	sw	a0,0(s0)
     544:	0002                	c.slli64	zero
     546:	0100                	addi	s0,sp,128
     548:	8e4c016b          	0x8e4c016b
     54c:	0000                	unimp
     54e:	aa00                	fsd	fs0,16(a2)
     550:	0004                	0x4
     552:	1200                	addi	s0,sp,288
     554:	0069                	c.nop	26
     556:	6d01                	0x6d01
     558:	0e01                	addi	t3,t3,0
     55a:	008e                	slli	ra,ra,0x3
     55c:	0000                	unimp
     55e:	000004e3          	beqz	zero,d66 <_start-0x60fff29a>
     562:	0001ea13          	ori	s4,gp,0
     566:	0100                	addi	s0,sp,128
     568:	016e                	slli	sp,sp,0x1b
     56a:	5509                	li	a0,-30
     56c:	0000                	unimp
     56e:	0100                	addi	s0,sp,128
     570:	0c5a                	slli	s8,s8,0x16
     572:	0508                	addi	a0,sp,640
     574:	6100                	ld	s0,0(a0)
     576:	0000                	unimp
     578:	0000                	unimp
     57a:	00000567          	jalr	a0,zero # 0 <_start-0x61000000>
     57e:	025a010b          	0x25a010b
     582:	0082                	c.slli64	ra
     584:	0b5b010b          	0xb5b010b
     588:	0078                	addi	a4,sp,12
     58a:	2008                	fld	fa0,0(s0)
     58c:	0824                	addi	s1,sp,24
     58e:	2520                	fld	fs0,72(a0)
     590:	00220083          	lb	ra,2(tp) # 2 <_start-0x60fffffe>
     594:	0700                	addi	s0,sp,896
     596:	00000407          	vle8.v	v8,(zero),v0.t
     59a:	5a01                	li	s4,-32
     59c:	0501                	addi	a0,a0,0
     59e:	0055                	c.nop	21
     5a0:	0000                	unimp
     5a2:	044c                	addi	a1,sp,516
     5a4:	6100                	ld	s0,0(a0)
     5a6:	0000                	unimp
     5a8:	0000                	unimp
     5aa:	005c                	addi	a5,sp,4
     5ac:	0000                	unimp
     5ae:	0000                	unimp
     5b0:	0000                	unimp
     5b2:	9c01                	subw	s0,s0,s0
     5b4:	05e2                	slli	a1,a1,0x18
     5b6:	0000                	unimp
     5b8:	e808                	sd	a0,16(s0)
     5ba:	01000003          	lb	zero,16(zero) # 10 <_start-0x60fffff0>
     5be:	015a                	slli	sp,sp,0x16
     5c0:	f622                	sd	s0,296(sp)
     5c2:	0001                	nop
     5c4:	2d00                	fld	fs0,24(a0)
     5c6:	0005                	c.nop	1
     5c8:	0900                	addi	s0,sp,144
     5ca:	0074756f          	jal	a0,47dd0 <_start-0x60fb8230>
     5ce:	5a01                	li	s4,-32
     5d0:	3601                	addiw	a2,a2,-32
     5d2:	01fc                	addi	a5,sp,204
     5d4:	0000                	unimp
     5d6:	058c                	addi	a1,sp,704
     5d8:	0000                	unimp
     5da:	c411                	beqz	s0,5e6 <_start-0x60fffa1a>
     5dc:	0000                	unimp
     5de:	0100                	addi	s0,sp,128
     5e0:	015c                	addi	a5,sp,132
     5e2:	8e0e                	mv	t3,gp
     5e4:	0000                	unimp
     5e6:	eb00                	sd	s0,16(a4)
     5e8:	0005                	c.nop	1
     5ea:	0c00                	addi	s0,sp,528
     5ec:	0474                	addi	a3,sp,524
     5ee:	6100                	ld	s0,0(a0)
     5f0:	0000                	unimp
     5f2:	0000                	unimp
     5f4:	0e10                	addi	a2,sp,784
     5f6:	0000                	unimp
     5f8:	025a010b          	0x25a010b
     5fc:	0079                	c.nop	30
     5fe:	015b010b          	0x15b010b
     602:	0b3a                	slli	s6,s6,0xe
     604:	5c01                	li	s8,-32
     606:	0902                	c.slli64	s2
     608:	5d010bff          	sll8	s7,sp,a6
     60c:	3301                	addiw	t1,t1,-32
     60e:	0000                	unimp
     610:	00031407          	flh	fs0,0(t1)
     614:	0100                	addi	s0,sp,128
     616:	55050153          	0x55050153
     61a:	0000                	unimp
     61c:	2400                	fld	fs0,8(s0)
     61e:	0004                	0x4
     620:	0061                	c.nop	24
     622:	0000                	unimp
     624:	2800                	fld	fs0,16(s0)
     626:	0000                	unimp
     628:	0000                	unimp
     62a:	0000                	unimp
     62c:	0100                	addi	s0,sp,128
     62e:	6d9c                	ld	a5,24(a1)
     630:	0006                	c.slli	zero,0x1
     632:	0800                	addi	s0,sp,16
     634:	03e8                	addi	a0,sp,460
     636:	0000                	unimp
     638:	5301                	li	t1,-32
     63a:	2601                	sext.w	a2,a2
     63c:	01f6                	slli	gp,gp,0x1d
     63e:	0000                	unimp
     640:	060e                	slli	a2,a2,0x3
     642:	0000                	unimp
     644:	d308                	sw	a0,32(a4)
     646:	0001                	nop
     648:	0100                	addi	s0,sp,128
     64a:	4e400153          	0x4e400153
     64e:	6d000003          	lb	zero,1744(zero) # 6d0 <_start-0x60fff930>
     652:	0006                	c.slli	zero,0x1
     654:	0800                	addi	s0,sp,16
     656:	027c                	addi	a5,sp,268
     658:	0000                	unimp
     65a:	5301                	li	t1,-32
     65c:	5101                	li	sp,-32
     65e:	008e                	slli	ra,ra,0x3
     660:	0000                	unimp
     662:	06a6                	slli	a3,a3,0x9
     664:	0000                	unimp
     666:	380a                	fld	fa6,160(sp)
     668:	0004                	0x4
     66a:	0061                	c.nop	24
     66c:	0000                	unimp
     66e:	6d00                	ld	s0,24(a0)
     670:	0006                	c.slli	zero,0x1
     672:	5700                	lw	s0,40(a4)
     674:	0006                	c.slli	zero,0x1
     676:	0b00                	addi	s0,sp,400
     678:	5a01                	li	s4,-32
     67a:	7802                	ld	a6,32(sp)
     67c:	0b00                	addi	s0,sp,400
     67e:	5b01                	li	s6,-32
     680:	5b01f303          	0x5b01f303
     684:	0e00                	addi	s0,sp,784
     686:	044c                	addi	a1,sp,516
     688:	6100                	ld	s0,0(a0)
     68a:	0000                	unimp
     68c:	0000                	unimp
     68e:	0760                	addi	s0,sp,908
     690:	0000                	unimp
     692:	035a010b          	0x35a010b
     696:	005a01f3          	0x5a01f3
     69a:	0700                	addi	s0,sp,896
     69c:	01bd                	addi	gp,gp,15
     69e:	0000                	unimp
     6a0:	4701                	li	a4,0
     6a2:	0501                	addi	a0,a0,0
     6a4:	0055                	c.nop	21
     6a6:	0000                	unimp
     6a8:	03bc                	addi	a5,sp,456
     6aa:	6100                	ld	s0,0(a0)
     6ac:	0000                	unimp
     6ae:	0000                	unimp
     6b0:	0068                	addi	a0,sp,12
     6b2:	0000                	unimp
     6b4:	0000                	unimp
     6b6:	0000                	unimp
     6b8:	9c01                	subw	s0,s0,s0
     6ba:	000006e7          	jalr	a3,zero # 0 <_start-0x61000000>
     6be:	e808                	sd	a0,16(s0)
     6c0:	01000003          	lb	zero,16(zero) # 10 <_start-0x60fffff0>
     6c4:	f62e0147          	fmsub.q	ft2,ft8,ft2,ft10,rne
     6c8:	0001                	nop
     6ca:	df00                	sw	s0,56(a4)
     6cc:	0006                	c.slli	zero,0x1
     6ce:	0800                	addi	s0,sp,16
     6d0:	000001d3          	fadd.s	ft3,ft0,ft0,rne
     6d4:	4701                	li	a4,0
     6d6:	4801                	li	a6,0
     6d8:	034e                	slli	t1,t1,0x13
     6da:	0000                	unimp
     6dc:	073e                	slli	a4,a4,0xf
     6de:	0000                	unimp
     6e0:	7c08                	ld	a0,56(s0)
     6e2:	0002                	c.slli64	zero
     6e4:	0100                	addi	s0,sp,128
     6e6:	8e590147          	fmsub.q	ft2,fs2,ft5,fa7,rne
     6ea:	0000                	unimp
     6ec:	9d00                	0x9d00
     6ee:	12000007          	0x12000007
     6f2:	0069                	c.nop	26
     6f4:	4901                	li	s2,0
     6f6:	0e01                	addi	t3,t3,0
     6f8:	008e                	slli	ra,ra,0x3
     6fa:	0000                	unimp
     6fc:	07d6                	slli	a5,a5,0x15
     6fe:	0000                	unimp
     700:	200c                	fld	fa1,0(s0)
     702:	0004                	0x4
     704:	0061                	c.nop	24
     706:	0000                	unimp
     708:	e700                	sd	s0,8(a4)
     70a:	0006                	c.slli	zero,0x1
     70c:	0b00                	addi	s0,sp,400
     70e:	5a01                	li	s4,-32
     710:	8202                	jr	tp
     712:	0000                	unimp
     714:	0700                	addi	s0,sp,896
     716:	00ed                	addi	ra,ra,27
     718:	0000                	unimp
     71a:	3501                	addiw	a0,a0,-32
     71c:	0501                	addi	a0,a0,0
     71e:	0055                	c.nop	21
     720:	0000                	unimp
     722:	0370                	addi	a2,sp,396
     724:	6100                	ld	s0,0(a0)
     726:	0000                	unimp
     728:	0000                	unimp
     72a:	004c                	addi	a1,sp,4
     72c:	0000                	unimp
     72e:	0000                	unimp
     730:	0000                	unimp
     732:	9c01                	subw	s0,s0,s0
     734:	0760                	addi	s0,sp,908
     736:	0000                	unimp
     738:	e808                	sd	a0,16(s0)
     73a:	01000003          	lb	zero,16(zero) # 10 <_start-0x60fffff0>
     73e:	0135                	addi	sp,sp,13
     740:	f622                	sd	s0,296(sp)
     742:	0001                	nop
     744:	3300                	fld	fs0,32(a4)
     746:	0008                	0x8
     748:	0900                	addi	s0,sp,144
     74a:	6e69                	lui	t3,0x1a
     74c:	0100                	addi	s0,sp,128
     74e:	0135                	addi	sp,sp,13
     750:	8e36                	mv	t3,a3
     752:	0000                	unimp
     754:	7f00                	ld	s0,56(a4)
     756:	0008                	0x8
     758:	1100                	addi	s0,sp,160
     75a:	03a2                	slli	t2,t2,0x8
     75c:	0000                	unimp
     75e:	3701                	addiw	a4,a4,-32
     760:	0e01                	addi	t3,t3,0
     762:	008e                	slli	ra,ra,0x3
     764:	0000                	unimp
     766:	08b8                	addi	a4,sp,88
     768:	0000                	unimp
     76a:	9c0c                	0x9c0c
     76c:	00610003          	lb	zero,6(sp)
     770:	0000                	unimp
     772:	1000                	addi	s0,sp,32
     774:	000e                	c.slli	zero,0x3
     776:	0b00                	addi	s0,sp,400
     778:	5a01                	li	s4,-32
     77a:	7802                	ld	a6,32(sp)
     77c:	0b00                	addi	s0,sp,400
     77e:	5b01                	li	s6,-32
     780:	3a01                	addiw	s4,s4,-32
     782:	015c010b          	0x15c010b
     786:	0b32                	slli	s6,s6,0xc
     788:	5d01                	li	s10,-32
     78a:	3101                	addiw	sp,sp,-32
     78c:	0000                	unimp
     78e:	d714                	sw	a3,40(a4)
     790:	01000003          	lb	zero,16(zero) # 10 <_start-0x60fffff0>
     794:	011c                	addi	a5,sp,128
     796:	5505                	li	a0,-31
     798:	0000                	unimp
     79a:	0100                	addi	s0,sp,128
     79c:	078d                	addi	a5,a5,3
     79e:	0000                	unimp
     7a0:	e815                	bnez	s0,7d4 <_start-0x60fff82c>
     7a2:	01000003          	lb	zero,16(zero) # 10 <_start-0x60fffff0>
     7a6:	011c                	addi	a5,sp,128
     7a8:	f629                	bnez	a2,6f2 <_start-0x60fff90e>
     7aa:	0001                	nop
     7ac:	1600                	addi	s0,sp,800
     7ae:	00000283          	lb	t0,0(zero) # 0 <_start-0x61000000>
     7b2:	1e01                	addi	t3,t3,-32
     7b4:	0e01                	addi	t3,t3,0
     7b6:	008e                	slli	ra,ra,0x3
     7b8:	0000                	unimp
     7ba:	1700                	addi	s0,sp,928
     7bc:	01da                	slli	gp,gp,0x16
     7be:	0000                	unimp
     7c0:	1201                	addi	tp,tp,-32
     7c2:	0601                	addi	a2,a2,0
     7c4:	02c0                	addi	s0,sp,324
     7c6:	6100                	ld	s0,0(a0)
     7c8:	0000                	unimp
     7ca:	0000                	unimp
     7cc:	0038                	addi	a4,sp,8
     7ce:	0000                	unimp
     7d0:	0000                	unimp
     7d2:	0000                	unimp
     7d4:	9c01                	subw	s0,s0,s0
     7d6:	07e1                	addi	a5,a5,24
     7d8:	0000                	unimp
     7da:	e808                	sd	a0,16(s0)
     7dc:	01000003          	lb	zero,16(zero) # 10 <_start-0x60fffff0>
     7e0:	0112                	slli	sp,sp,0x4
     7e2:	f629                	bnez	a2,72c <_start-0x60fff8d4>
     7e4:	0001                	nop
     7e6:	db00                	sw	s0,48(a4)
     7e8:	0008                	0x8
     7ea:	0c00                	addi	s0,sp,528
     7ec:	02e4                	addi	s1,sp,332
     7ee:	6100                	ld	s0,0(a0)
     7f0:	0000                	unimp
     7f2:	0000                	unimp
     7f4:	0e10                	addi	a2,sp,784
     7f6:	0000                	unimp
     7f8:	025a010b          	0x25a010b
     7fc:	0078                	addi	a4,sp,12
     7fe:	015b010b          	0x15b010b
     802:	0b3a                	slli	s6,s6,0xe
     804:	5c01                	li	s8,-32
     806:	3401                	addiw	s0,s0,-32
     808:	015d010b          	0x15d010b
     80c:	0032                	c.slli	zero,0xc
     80e:	1700                	addi	s0,sp,928
     810:	0430                	addi	a2,sp,520
     812:	0000                	unimp
     814:	0401                	addi	s0,s0,0
     816:	0601                	addi	a2,a2,0
     818:	022c                	addi	a1,sp,264
     81a:	6100                	ld	s0,0(a0)
     81c:	0000                	unimp
     81e:	0000                	unimp
     820:	0094                	addi	a3,sp,64
     822:	0000                	unimp
     824:	0000                	unimp
     826:	0000                	unimp
     828:	9c01                	subw	s0,s0,s0
     82a:	000008ff          	radd16	a7,zero,zero
     82e:	e808                	sd	a0,16(s0)
     830:	01000003          	lb	zero,16(zero) # 10 <_start-0x60fffff0>
     834:	0104                	addi	s1,sp,128
     836:	f62a                	sd	a0,296(sp)
     838:	0001                	nop
     83a:	2700                	fld	fs0,8(a4)
     83c:	0009                	c.nop	2
     83e:	0900                	addi	s0,sp,144
     840:	7266                	ld	tp,120(sp)
     842:	0066                	c.slli	zero,0x19
     844:	0401                	addi	s0,s0,0
     846:	3d01                	addiw	s10,s10,-32
     848:	007d                	c.nop	31
     84a:	0000                	unimp
     84c:	0986                	slli	s3,s3,0x1
     84e:	0000                	unimp
     850:	6e09                	lui	t3,0x2
     852:	6664                	ld	s1,200(a2)
     854:	0100                	addi	s0,sp,128
     856:	0104                	addi	s1,sp,128
     858:	7d4a                	ld	s10,176(sp)
     85a:	0000                	unimp
     85c:	bf00                	fsd	fs0,56(a4)
     85e:	0009                	c.nop	2
     860:	0800                	addi	s0,sp,16
     862:	0192                	slli	gp,gp,0x4
     864:	0000                	unimp
     866:	0401                	addi	s0,s0,0
     868:	5801                	li	a6,-32
     86a:	008e                	slli	ra,ra,0x3
     86c:	0000                	unimp
     86e:	09f8                	addi	a4,sp,220
     870:	0000                	unimp
     872:	580a                	lw	a6,160(sp)
     874:	0002                	c.slli64	zero
     876:	0061                	c.nop	24
     878:	0000                	unimp
     87a:	5800                	lw	s0,48(s0)
     87c:	000d                	c.nop	3
     87e:	5c00                	lw	s0,56(s0)
     880:	0008                	0x8
     882:	0b00                	addi	s0,sp,400
     884:	5a01                	li	s4,-32
     886:	7802                	ld	a6,32(sp)
     888:	0000                	unimp
     88a:	6c0a                	ld	s8,128(sp)
     88c:	0002                	c.slli64	zero
     88e:	0061                	c.nop	24
     890:	0000                	unimp
     892:	7900                	ld	s0,48(a0)
     894:	000c                	0xc
     896:	8400                	0x8400
     898:	0008                	0x8
     89a:	0b00                	addi	s0,sp,400
     89c:	5a01                	li	s4,-32
     89e:	7802                	ld	a6,32(sp)
     8a0:	0b00                	addi	s0,sp,400
     8a2:	5b01                	li	s6,-32
     8a4:	3701                	addiw	a4,a4,-32
     8a6:	025c010b          	0x25c010b
     8aa:	0079                	c.nop	30
     8ac:	015d010b          	0x15d010b
     8b0:	0032                	c.slli	zero,0xc
     8b2:	780a                	ld	a6,160(sp)
     8b4:	0002                	c.slli64	zero
     8b6:	0061                	c.nop	24
     8b8:	0000                	unimp
     8ba:	9300                	0x9300
     8bc:	a100000b          	0xa100000b
     8c0:	0008                	0x8
     8c2:	0b00                	addi	s0,sp,400
     8c4:	5a01                	li	s4,-32
     8c6:	7802                	ld	a6,32(sp)
     8c8:	0b00                	addi	s0,sp,400
     8ca:	5b01                	li	s6,-32
     8cc:	3001                	0x3001
     8ce:	0a00                	addi	s0,sp,272
     8d0:	0284                	addi	s1,sp,320
     8d2:	6100                	ld	s0,0(a0)
     8d4:	0000                	unimp
     8d6:	0000                	unimp
     8d8:	0c19                	addi	s8,s8,6
     8da:	0000                	unimp
     8dc:	000008bf 025a010b 	0x25a010b000008bf
     8e4:	0078                	addi	a4,sp,12
     8e6:	025b010b          	0x25b010b
     8ea:	0a000083          	lb	ra,160(zero) # a0 <_start-0x60ffff60>
     8ee:	02a0                	addi	s0,sp,328
     8f0:	6100                	ld	s0,0(a0)
     8f2:	0000                	unimp
     8f4:	0000                	unimp
     8f6:	0d95                	addi	s11,s11,5
     8f8:	0000                	unimp
     8fa:	08e9                	addi	a7,a7,26
     8fc:	0000                	unimp
     8fe:	025a010b          	0x25a010b
     902:	0078                	addi	a4,sp,12
     904:	025b010b          	0x25b010b
     908:	3d08                	fld	fa0,56(a0)
     90a:	025c010b          	0x25c010b
     90e:	0082                	c.slli64	ra
     910:	025d010b          	0x25d010b
     914:	ff09                	bnez	a4,82e <_start-0x60fff7d2>
     916:	0e00                	addi	s0,sp,784
     918:	02c0                	addi	s0,sp,324
     91a:	6100                	ld	s0,0(a0)
     91c:	0000                	unimp
     91e:	0000                	unimp
     920:	00000d1b          	sext.w	s10,zero
     924:	035a010b          	0x35a010b
     928:	005a01f3          	0x5a01f3
     92c:	1800                	addi	s0,sp,48
     92e:	019e                	slli	gp,gp,0x7
     930:	0000                	unimp
     932:	f501                	bnez	a0,83a <_start-0x60fff7c6>
     934:	8806                	mv	a6,ra
     936:	0001                	nop
     938:	0061                	c.nop	24
     93a:	0000                	unimp
     93c:	a400                	fsd	fs0,8(s0)
     93e:	0000                	unimp
     940:	0000                	unimp
     942:	0000                	unimp
     944:	0100                	addi	s0,sp,128
     946:	2e9c                	fld	fa5,24(a3)
     948:	000a                	c.slli	zero,0x2
     94a:	1900                	addi	s0,sp,176
     94c:	03e8                	addi	a0,sp,460
     94e:	0000                	unimp
     950:	f501                	bnez	a0,858 <_start-0x60fff7a8>
     952:	f62a                	sd	a0,296(sp)
     954:	0001                	nop
     956:	3100                	fld	fs0,32(a0)
     958:	000a                	c.slli	zero,0x2
     95a:	1a00                	addi	s0,sp,304
     95c:	7266                	ld	tp,120(sp)
     95e:	0066                	c.slli	zero,0x19
     960:	f501                	bnez	a0,868 <_start-0x60fff798>
     962:	7d3d                	lui	s10,0xfffef
     964:	0000                	unimp
     966:	9000                	0x9000
     968:	000a                	c.slli	zero,0x2
     96a:	1900                	addi	s0,sp,176
     96c:	00d4                	addi	a3,sp,68
     96e:	0000                	unimp
     970:	f501                	bnez	a0,878 <_start-0x60fff788>
     972:	00008e4b          	fnmsub.s	ft8,ft1,ft0,ft0,rne
     976:	c900                	sw	s0,16(a0)
     978:	000a                	c.slli	zero,0x2
     97a:	1900                	addi	s0,sp,176
     97c:	00e1                	addi	ra,ra,24
     97e:	0000                	unimp
     980:	f501                	bnez	a0,888 <_start-0x60fff778>
     982:	8e62                	mv	t3,s8
     984:	0000                	unimp
     986:	0200                	addi	s0,sp,256
     988:	1900000b          	0x1900000b
     98c:	000003cf          	fnmadd.s	ft7,ft0,ft0,ft0,rne
     990:	f501                	bnez	a0,898 <_start-0x60fff768>
     992:	8e78                	0x8e78
     994:	0000                	unimp
     996:	3b00                	fld	fs0,48(a4)
     998:	0a00000b          	0xa00000b
     99c:	01bc                	addi	a5,sp,200
     99e:	6100                	ld	s0,0(a0)
     9a0:	0000                	unimp
     9a2:	0000                	unimp
     9a4:	0d58                	addi	a4,sp,660
     9a6:	0000                	unimp
     9a8:	0985                	addi	s3,s3,1
     9aa:	0000                	unimp
     9ac:	025a010b          	0x25a010b
     9b0:	0078                	addi	a4,sp,12
     9b2:	0a00                	addi	s0,sp,272
     9b4:	01d0                	addi	a2,sp,196
     9b6:	6100                	ld	s0,0(a0)
     9b8:	0000                	unimp
     9ba:	0000                	unimp
     9bc:	0c79                	addi	s8,s8,30
     9be:	0000                	unimp
     9c0:	09ad                	addi	s3,s3,11
     9c2:	0000                	unimp
     9c4:	025a010b          	0x25a010b
     9c8:	0078                	addi	a4,sp,12
     9ca:	015b010b          	0x15b010b
     9ce:	5c010b37          	lui	s6,0x5c010
     9d2:	7902                	ld	s2,32(sp)
     9d4:	0b00                	addi	s0,sp,400
     9d6:	5d01                	li	s10,-32
     9d8:	3101                	addiw	sp,sp,-32
     9da:	0a00                	addi	s0,sp,272
     9dc:	01e0                	addi	s0,sp,204
     9de:	6100                	ld	s0,0(a0)
     9e0:	0000                	unimp
     9e2:	0000                	unimp
     9e4:	0b01                	addi	s6,s6,0
     9e6:	0000                	unimp
     9e8:	09d0                	addi	a2,sp,212
     9ea:	0000                	unimp
     9ec:	025a010b          	0x25a010b
     9f0:	0078                	addi	a4,sp,12
     9f2:	015b010b          	0x15b010b
     9f6:	0b30                	addi	a2,sp,408
     9f8:	5c01                	li	s8,-32
     9fa:	8402                	jr	s0
     9fc:	0000                	unimp
     9fe:	f40a                	sd	sp,40(sp)
     a00:	0001                	nop
     a02:	0061                	c.nop	24
     a04:	0000                	unimp
     a06:	1900                	addi	s0,sp,176
     a08:	000c                	0xc
     a0a:	ee00                	sd	s0,24(a2)
     a0c:	0009                	c.nop	2
     a0e:	0b00                	addi	s0,sp,400
     a10:	5a01                	li	s4,-32
     a12:	7802                	ld	a6,32(sp)
     a14:	0b00                	addi	s0,sp,400
     a16:	5b01                	li	s6,-32
     a18:	8302                	jr	t1
     a1a:	080a007f          	radd8	zero,s4,zero
     a1e:	0002                	c.slli64	zero
     a20:	0061                	c.nop	24
     a22:	0000                	unimp
     a24:	9500                	0x9500
     a26:	000d                	c.nop	3
     a28:	1800                	addi	s0,sp,48
     a2a:	000a                	c.slli	zero,0x2
     a2c:	0b00                	addi	s0,sp,400
     a2e:	5a01                	li	s4,-32
     a30:	7802                	ld	a6,32(sp)
     a32:	0b00                	addi	s0,sp,400
     a34:	5b01                	li	s6,-32
     a36:	0802                	c.slli64	a6
     a38:	0b3d                	addi	s6,s6,15
     a3a:	5c01                	li	s8,-32
     a3c:	8202                	jr	tp
     a3e:	0b00                	addi	s0,sp,400
     a40:	5d01                	li	s10,-32
     a42:	0902                	c.slli64	s2
     a44:	2c0e00ff          	ucmplt16	ra,t3,zero
     a48:	0002                	c.slli64	zero
     a4a:	0061                	c.nop	24
     a4c:	0000                	unimp
     a4e:	1b00                	addi	s0,sp,432
     a50:	000d                	c.nop	3
     a52:	0b00                	addi	s0,sp,400
     a54:	5a01                	li	s4,-32
     a56:	5a01f303          	0x5a01f303
     a5a:	0000                	unimp
     a5c:	ef18                	sd	a4,24(a4)
     a5e:	0002                	c.slli64	zero
     a60:	0100                	addi	s0,sp,128
     a62:	06ec                	addi	a1,sp,844
     a64:	0124                	addi	s1,sp,136
     a66:	6100                	ld	s0,0(a0)
     a68:	0000                	unimp
     a6a:	0000                	unimp
     a6c:	0064                	addi	s1,sp,12
     a6e:	0000                	unimp
     a70:	0000                	unimp
     a72:	0000                	unimp
     a74:	9c01                	subw	s0,s0,s0
     a76:	0b01                	addi	s6,s6,0
     a78:	0000                	unimp
     a7a:	e819                	bnez	s0,a90 <_start-0x60fff570>
     a7c:	01000003          	lb	zero,16(zero) # 10 <_start-0x60fffff0>
     a80:	2eec                	fld	fa1,216(a3)
     a82:	01f6                	slli	gp,gp,0x1d
     a84:	0000                	unimp
     a86:	0b74                	addi	a3,sp,412
     a88:	0000                	unimp
     a8a:	6c1a                	ld	s8,384(sp)
     a8c:	6e65                	lui	t3,0x19
     a8e:	0100                	addi	s0,sp,128
     a90:	42ec                	lw	a1,68(a3)
     a92:	008e                	slli	ra,ra,0x3
     a94:	0000                	unimp
     a96:	00000bd3          	fadd.s	fs7,ft0,ft0,rne
     a9a:	400a                	0x400a
     a9c:	0001                	nop
     a9e:	0061                	c.nop	24
     aa0:	0000                	unimp
     aa2:	5800                	lw	s0,48(s0)
     aa4:	000d                	c.nop	3
     aa6:	8400                	0x8400
     aa8:	000a                	c.slli	zero,0x2
     aaa:	0b00                	addi	s0,sp,400
     aac:	5a01                	li	s4,-32
     aae:	7802                	ld	a6,32(sp)
     ab0:	0000                	unimp
     ab2:	540a                	lw	s0,160(sp)
     ab4:	0001                	nop
     ab6:	0061                	c.nop	24
     ab8:	0000                	unimp
     aba:	7900                	ld	s0,48(a0)
     abc:	000c                	0xc
     abe:	ab00                	fsd	fs0,16(a4)
     ac0:	000a                	c.slli	zero,0x2
     ac2:	0b00                	addi	s0,sp,400
     ac4:	5a01                	li	s4,-32
     ac6:	7802                	ld	a6,32(sp)
     ac8:	0b00                	addi	s0,sp,400
     aca:	5b01                	li	s6,-32
     acc:	3701                	addiw	a4,a4,-32
     ace:	015c010b          	0x15c010b
     ad2:	0b30                	addi	a2,sp,408
     ad4:	5d01                	li	s10,-32
     ad6:	3301                	addiw	t1,t1,-32
     ad8:	0a00                	addi	s0,sp,272
     ada:	0160                	addi	s0,sp,140
     adc:	6100                	ld	s0,0(a0)
     ade:	0000                	unimp
     ae0:	0000                	unimp
     ae2:	0c19                	addi	s8,s8,6
     ae4:	0000                	unimp
     ae6:	0ac9                	addi	s5,s5,18
     ae8:	0000                	unimp
     aea:	025a010b          	0x25a010b
     aee:	0078                	addi	a4,sp,12
     af0:	025b010b          	0x25b010b
     af4:	7f79                	lui	t5,0xffffe
     af6:	0a00                	addi	s0,sp,272
     af8:	0170                	addi	a2,sp,140
     afa:	6100                	ld	s0,0(a0)
     afc:	0000                	unimp
     afe:	0000                	unimp
     b00:	0b01                	addi	s6,s6,0
     b02:	0000                	unimp
     b04:	00000aeb          	0xaeb
     b08:	025a010b          	0x25a010b
     b0c:	0078                	addi	a4,sp,12
     b0e:	015b010b          	0x15b010b
     b12:	0b30                	addi	a2,sp,408
     b14:	5c01                	li	s8,-32
     b16:	3001                	0x3001
     b18:	0e00                	addi	s0,sp,784
     b1a:	0188                	addi	a0,sp,192
     b1c:	6100                	ld	s0,0(a0)
     b1e:	0000                	unimp
     b20:	0000                	unimp
     b22:	00000d1b          	sext.w	s10,zero
     b26:	035a010b          	0x35a010b
     b2a:	005a01f3          	0x5a01f3
     b2e:	1800                	addi	s0,sp,48
     b30:	010e                	slli	sp,sp,0x3
     b32:	0000                	unimp
     b34:	e301                	bnez	a4,b34 <_start-0x60fff4cc>
     b36:	fc06                	sd	ra,56(sp)
     b38:	0000                	unimp
     b3a:	0061                	c.nop	24
     b3c:	0000                	unimp
     b3e:	2800                	fld	fs0,16(s0)
     b40:	0000                	unimp
     b42:	0000                	unimp
     b44:	0000                	unimp
     b46:	0100                	addi	s0,sp,128
     b48:	939c                	0x939c
     b4a:	1900000b          	0x1900000b
     b4e:	03e8                	addi	a0,sp,460
     b50:	0000                	unimp
     b52:	e301                	bnez	a4,b52 <_start-0x60fff4ae>
     b54:	f62e                	sd	a1,296(sp)
     b56:	0001                	nop
     b58:	0c00                	addi	s0,sp,528
     b5a:	000c                	0xc
     b5c:	1a00                	addi	s0,sp,304
     b5e:	6674                	ld	a3,200(a2)
     b60:	0074                	addi	a3,sp,12
     b62:	e301                	bnez	a4,b62 <_start-0x60fff49e>
     b64:	8e42                	mv	t3,a6
     b66:	0000                	unimp
     b68:	4500                	lw	s0,8(a0)
     b6a:	000c                	0xc
     b6c:	1900                	addi	s0,sp,176
     b6e:	01f1                	addi	gp,gp,28
     b70:	0000                	unimp
     b72:	e301                	bnez	a4,b72 <_start-0x60fff48e>
     b74:	8e50                	0x8e50
     b76:	0000                	unimp
     b78:	7e00                	ld	s0,56(a2)
     b7a:	000c                	0xc
     b7c:	1b00                	addi	s0,sp,432
     b7e:	6176                	ld	sp,344(sp)
     b80:	006c                	addi	a1,sp,12
     b82:	e501                	bnez	a0,b8a <_start-0x60fff476>
     b84:	8e0e                	mv	t3,gp
     b86:	0000                	unimp
     b88:	b700                	fsd	fs0,40(a4)
     b8a:	000c                	0xc
     b8c:	1c00                	addi	s0,sp,560
     b8e:	037c                	addi	a5,sp,396
     b90:	0000                	unimp
     b92:	e501                	bnez	a0,b9a <_start-0x60fff466>
     b94:	00008e13          	mv	t3,ra
     b98:	ff00                	sd	s0,56(a4)
     b9a:	ff00                	sd	s0,56(a4)
     b9c:	0e00                	addi	s0,sp,784
     b9e:	0124                	addi	s1,sp,136
     ba0:	6100                	ld	s0,0(a0)
     ba2:	0000                	unimp
     ba4:	0000                	unimp
     ba6:	0d95                	addi	s11,s11,5
     ba8:	0000                	unimp
     baa:	035a010b          	0x35a010b
     bae:	0b5a01f3          	0xb5a01f3
     bb2:	5b01                	li	s6,-32
     bb4:	3601                	addiw	a2,a2,-32
     bb6:	055d010b          	0x55d010b
     bba:	ff0c                	sd	a1,56(a4)
     bbc:	ff00                	sd	s0,56(a4)
     bbe:	0000                	unimp
     bc0:	1800                	addi	s0,sp,48
     bc2:	0364                	addi	s1,sp,396
     bc4:	0000                	unimp
     bc6:	da01                	beqz	a2,ad6 <_start-0x60fff52a>
     bc8:	ec06                	sd	ra,24(sp)
     bca:	0000                	unimp
     bcc:	0061                	c.nop	24
     bce:	0000                	unimp
     bd0:	1000                	addi	s0,sp,32
     bd2:	0000                	unimp
     bd4:	0000                	unimp
     bd6:	0000                	unimp
     bd8:	0100                	addi	s0,sp,128
     bda:	199c                	addi	a5,sp,240
     bdc:	000c                	0xc
     bde:	1900                	addi	s0,sp,176
     be0:	03e8                	addi	a0,sp,460
     be2:	0000                	unimp
     be4:	da01                	beqz	a2,af4 <_start-0x60fff50c>
     be6:	f62e                	sd	a1,296(sp)
     be8:	0001                	nop
     bea:	3000                	fld	fs0,32(s0)
     bec:	000d                	c.nop	3
     bee:	1a00                	addi	s0,sp,304
     bf0:	6672                	ld	a2,280(sp)
     bf2:	0074                	addi	a3,sp,12
     bf4:	da01                	beqz	a2,b04 <_start-0x60fff4fc>
     bf6:	8e42                	mv	t3,a6
     bf8:	0000                	unimp
     bfa:	6900                	ld	s0,16(a0)
     bfc:	000d                	c.nop	3
     bfe:	1b00                	addi	s0,sp,432
     c00:	6176                	ld	sp,344(sp)
     c02:	006c                	addi	a1,sp,12
     c04:	dc01                	beqz	s0,b1c <_start-0x60fff4e4>
     c06:	8e0e                	mv	t3,gp
     c08:	0000                	unimp
     c0a:	a200                	fsd	fs0,0(a2)
     c0c:	000d                	c.nop	3
     c0e:	1d00                	addi	s0,sp,688
     c10:	037c                	addi	a5,sp,396
     c12:	0000                	unimp
     c14:	dc01                	beqz	s0,b2c <_start-0x60fff4d4>
     c16:	00008e13          	mv	t3,ra
     c1a:	ff00                	sd	s0,56(a4)
     c1c:	fc0e                	sd	gp,56(sp)
     c1e:	0000                	unimp
     c20:	0061                	c.nop	24
     c22:	0000                	unimp
     c24:	9500                	0x9500
     c26:	000d                	c.nop	3
     c28:	0b00                	addi	s0,sp,400
     c2a:	5a01                	li	s4,-32
     c2c:	5a01f303          	0x5a01f303
     c30:	015b010b          	0x15b010b
     c34:	5c010b37          	lui	s6,0x5c010
     c38:	f306                	sd	ra,416(sp)
     c3a:	5b01                	li	s6,-32
     c3c:	ff08                	sd	a0,56(a4)
     c3e:	0b1a                	slli	s6,s6,0x6
     c40:	5d01                	li	s10,-32
     c42:	0802                	c.slli64	a6
     c44:	180000ff          	kadd8	ra,zero,zero
     c48:	03ba                	slli	t2,t2,0xe
     c4a:	0000                	unimp
     c4c:	d501                	beqz	a0,b54 <_start-0x60fff4ac>
     c4e:	d806                	sw	ra,48(sp)
     c50:	0000                	unimp
     c52:	0061                	c.nop	24
     c54:	0000                	unimp
     c56:	1400                	addi	s0,sp,544
     c58:	0000                	unimp
     c5a:	0000                	unimp
     c5c:	0000                	unimp
     c5e:	0100                	addi	s0,sp,128
     c60:	799c                	ld	a5,48(a1)
     c62:	000c                	0xc
     c64:	1900                	addi	s0,sp,176
     c66:	03e8                	addi	a0,sp,460
     c68:	0000                	unimp
     c6a:	d501                	beqz	a0,b72 <_start-0x60fff48e>
     c6c:	f62e                	sd	a1,296(sp)
     c6e:	0001                	nop
     c70:	e300                	sd	s0,0(a4)
     c72:	000d                	c.nop	3
     c74:	1a00                	addi	s0,sp,304
     c76:	646e                	ld	s0,216(sp)
     c78:	0066                	c.slli	zero,0x19
     c7a:	d501                	beqz	a0,b82 <_start-0x60fff47e>
     c7c:	8e42                	mv	t3,a6
     c7e:	0000                	unimp
     c80:	1c00                	addi	s0,sp,560
     c82:	000e                	c.slli	zero,0x3
     c84:	0e00                	addi	s0,sp,784
     c86:	00ec                	addi	a1,sp,76
     c88:	6100                	ld	s0,0(a0)
     c8a:	0000                	unimp
     c8c:	0000                	unimp
     c8e:	0d95                	addi	s11,s11,5
     c90:	0000                	unimp
     c92:	035a010b          	0x35a010b
     c96:	0b5a01f3          	0xb5a01f3
     c9a:	5b01                	li	s6,-32
     c9c:	3101                	addiw	sp,sp,-32
     c9e:	035d010b          	0x35d010b
     ca2:	ff0a                	sd	sp,440(sp)
     ca4:	180000ff          	kadd8	ra,zero,zero
     ca8:	0345                	addi	t1,t1,17
     caa:	0000                	unimp
     cac:	cc01                	beqz	s0,cc4 <_start-0x60fff33c>
     cae:	9c06                	add	s8,s8,ra
     cb0:	0000                	unimp
     cb2:	0061                	c.nop	24
     cb4:	0000                	unimp
     cb6:	3c00                	fld	fs0,56(s0)
     cb8:	0000                	unimp
     cba:	0000                	unimp
     cbc:	0000                	unimp
     cbe:	0100                	addi	s0,sp,128
     cc0:	1b9c                	addi	a5,sp,496
     cc2:	000d                	c.nop	3
     cc4:	1900                	addi	s0,sp,176
     cc6:	03e8                	addi	a0,sp,460
     cc8:	0000                	unimp
     cca:	cc01                	beqz	s0,ce2 <_start-0x60fff31e>
     ccc:	f62e                	sd	a1,296(sp)
     cce:	0001                	nop
     cd0:	5500                	lw	s0,40(a0)
     cd2:	000e                	c.slli	zero,0x3
     cd4:	1a00                	addi	s0,sp,304
     cd6:	6664                	ld	s1,200(a2)
     cd8:	cc010073          	0xcc010073
     cdc:	8e42                	mv	t3,a6
     cde:	0000                	unimp
     ce0:	8e00                	0x8e00
     ce2:	000e                	c.slli	zero,0x3
     ce4:	1900                	addi	s0,sp,176
     ce6:	03f2                	slli	t2,t2,0x1c
     ce8:	0000                	unimp
     cea:	cc01                	beqz	s0,d02 <_start-0x60fff2fe>
     cec:	8e50                	0x8e50
     cee:	0000                	unimp
     cf0:	c700                	sw	s0,8(a4)
     cf2:	000e                	c.slli	zero,0x3
     cf4:	1900                	addi	s0,sp,176
     cf6:	017d                	addi	sp,sp,31
     cf8:	0000                	unimp
     cfa:	cc01                	beqz	s0,d12 <_start-0x60fff2ee>
     cfc:	8e62                	mv	t3,s8
     cfe:	0000                	unimp
     d00:	0000                	unimp
     d02:	1b00000f          	0x1b00000f
     d06:	6176                	ld	sp,344(sp)
     d08:	006c                	addi	a1,sp,12
     d0a:	ce01                	beqz	a2,d22 <_start-0x60fff2de>
     d0c:	8e0e                	mv	t3,gp
     d0e:	0000                	unimp
     d10:	3900                	fld	fs0,48(a0)
     d12:	1c00000f          	0x1c00000f
     d16:	037c                	addi	a5,sp,396
     d18:	0000                	unimp
     d1a:	ce01                	beqz	a2,d32 <_start-0x60fff2ce>
     d1c:	00008e13          	mv	t3,ra
     d20:	0f00                	addi	s0,sp,912
     d22:	c00c                	sw	a1,0(s0)
     d24:	0e00                	addi	s0,sp,784
     d26:	00d8                	addi	a4,sp,68
     d28:	6100                	ld	s0,0(a0)
     d2a:	0000                	unimp
     d2c:	0000                	unimp
     d2e:	0d95                	addi	s11,s11,5
     d30:	0000                	unimp
     d32:	035a010b          	0x35a010b
     d36:	0b5a01f3          	0xb5a01f3
     d3a:	5b01                	li	s6,-32
     d3c:	3001                	0x3001
     d3e:	055d010b          	0x55d010b
     d42:	0f0c                	addi	a1,sp,912
     d44:	c00c                	sw	a1,0(s0)
     d46:	0000                	unimp
     d48:	1800                	addi	s0,sp,48
     d4a:	02e1                	addi	t0,t0,24
     d4c:	0000                	unimp
     d4e:	c501                	beqz	a0,d56 <_start-0x60fff2aa>
     d50:	8806                	mv	a6,ra
     d52:	0000                	unimp
     d54:	0061                	c.nop	24
     d56:	0000                	unimp
     d58:	1400                	addi	s0,sp,544
     d5a:	0000                	unimp
     d5c:	0000                	unimp
     d5e:	0000                	unimp
     d60:	0100                	addi	s0,sp,128
     d62:	589c                	lw	a5,48(s1)
     d64:	000d                	c.nop	3
     d66:	1e00                	addi	s0,sp,816
     d68:	03e8                	addi	a0,sp,460
     d6a:	0000                	unimp
     d6c:	c501                	beqz	a0,d74 <_start-0x60fff28c>
     d6e:	0001f627          	vse64.v	v12,(gp),v0.t
     d72:	0100                	addi	s0,sp,128
     d74:	1f5a                	slli	t5,t5,0x36
     d76:	02c8                	addi	a0,sp,324
     d78:	0000                	unimp
     d7a:	c701                	beqz	a4,d82 <_start-0x60fff27e>
     d7c:	8e0e                	mv	t3,gp
     d7e:	0000                	unimp
     d80:	f300                	sd	s0,32(a4)
     d82:	0000000f          	fence	unknown,unknown
     d86:	2218                	fld	fa4,0(a2)
     d88:	01000003          	lb	zero,16(zero) # 10 <_start-0x60fffff0>
     d8c:	06bc                	addi	a5,sp,840
     d8e:	0074                	addi	a3,sp,12
     d90:	6100                	ld	s0,0(a0)
     d92:	0000                	unimp
     d94:	0000                	unimp
     d96:	0014                	0x14
     d98:	0000                	unimp
     d9a:	0000                	unimp
     d9c:	0000                	unimp
     d9e:	9c01                	subw	s0,s0,s0
     da0:	0d95                	addi	s11,s11,5
     da2:	0000                	unimp
     da4:	e81e                	sd	t2,16(sp)
     da6:	01000003          	lb	zero,16(zero) # 10 <_start-0x60fffff0>
     daa:	28bc                	fld	fa5,80(s1)
     dac:	01f6                	slli	gp,gp,0x1d
     dae:	0000                	unimp
     db0:	5a01                	li	s4,-32
     db2:	c81f 0002 0100      	0x1000002c81f
     db8:	0ebe                	slli	t4,t4,0xf
     dba:	008e                	slli	ra,ra,0x3
     dbc:	0000                	unimp
     dbe:	1016                	c.slli	zero,0x25
     dc0:	0000                	unimp
     dc2:	1800                	addi	s0,sp,48
     dc4:	0304                	addi	s1,sp,384
     dc6:	0000                	unimp
     dc8:	b401                	j	7c8 <_start-0x60fff838>
     dca:	4c06                	lw	s8,64(sp)
     dcc:	0000                	unimp
     dce:	0061                	c.nop	24
     dd0:	0000                	unimp
     dd2:	2800                	fld	fs0,16(s0)
     dd4:	0000                	unimp
     dd6:	0000                	unimp
     dd8:	0000                	unimp
     dda:	0100                	addi	s0,sp,128
     ddc:	109c                	addi	a5,sp,96
     dde:	000e                	c.slli	zero,0x3
     de0:	1900                	addi	s0,sp,176
     de2:	03e8                	addi	a0,sp,460
     de4:	0000                	unimp
     de6:	b401                	j	7e6 <_start-0x60fff81a>
     de8:	f629                	bnez	a2,d32 <_start-0x60fff2ce>
     dea:	0001                	nop
     dec:	3900                	fld	fs0,48(a0)
     dee:	0010                	0x10
     df0:	1900                	addi	s0,sp,176
     df2:	033d                	addi	t1,t1,15
     df4:	0000                	unimp
     df6:	b401                	j	7f6 <_start-0x60fff80a>
     df8:	8e3d                	xor	a2,a2,a5
     dfa:	0000                	unimp
     dfc:	7200                	ld	s0,32(a2)
     dfe:	0010                	0x10
     e00:	1900                	addi	s0,sp,176
     e02:	00c4                	addi	s1,sp,68
     e04:	0000                	unimp
     e06:	b401                	j	806 <_start-0x60fff7fa>
     e08:	00008e4f          	fnmadd.s	ft8,ft1,ft0,ft0,rne
     e0c:	ab00                	fsd	fs0,16(a4)
     e0e:	0010                	0x10
     e10:	1e00                	addi	s0,sp,816
     e12:	0379                	addi	t1,t1,30
     e14:	0000                	unimp
     e16:	b401                	j	816 <_start-0x60fff7ea>
     e18:	8e5f 0000 0100      	0x10000008e5f
     e1e:	1f5d                	addi	t5,t5,-9
     e20:	00c1                	addi	ra,ra,16
     e22:	0000                	unimp
     e24:	b601                	j	924 <_start-0x60fff6dc>
     e26:	8e0e                	mv	t3,gp
     e28:	0000                	unimp
     e2a:	e400                	sd	s0,8(s0)
     e2c:	0010                	0x10
     e2e:	2000                	fld	fs0,0(s0)
     e30:	020d                	addi	tp,tp,3
     e32:	0000                	unimp
     e34:	b601                	j	934 <_start-0x60fff6cc>
     e36:	8e18                	0x8e18
     e38:	0000                	unimp
     e3a:	0100                	addi	s0,sp,128
     e3c:	005f 1821 0004      	0x41821005f
     e42:	0100                	addi	s0,sp,128
     e44:	05a9                	addi	a1,a1,10
     e46:	0055                	c.nop	21
     e48:	0000                	unimp
     e4a:	002c                	addi	a1,sp,8
     e4c:	6100                	ld	s0,0(a0)
     e4e:	0000                	unimp
     e50:	0000                	unimp
     e52:	0020                	addi	s0,sp,8
     e54:	0000                	unimp
     e56:	0000                	unimp
     e58:	0000                	unimp
     e5a:	9c01                	subw	s0,s0,s0
     e5c:	00000e8f          	0xe8f
     e60:	e819                	bnez	s0,e76 <_start-0x60fff18a>
     e62:	01000003          	lb	zero,16(zero) # 10 <_start-0x60fffff0>
     e66:	28a9                	addiw	a7,a7,10
     e68:	01f6                	slli	gp,gp,0x1d
     e6a:	0000                	unimp
     e6c:	00001107          	flh	ft2,0(zero) # 0 <_start-0x61000000>
     e70:	3d19                	addiw	s10,s10,-26
     e72:	01000003          	lb	zero,16(zero) # 10 <_start-0x60fffff0>
     e76:	3ca9                	addiw	s9,s9,-22
     e78:	008e                	slli	ra,ra,0x3
     e7a:	0000                	unimp
     e7c:	1140                	addi	s0,sp,164
     e7e:	0000                	unimp
     e80:	791e                	ld	s2,480(sp)
     e82:	01000003          	lb	zero,16(zero) # 10 <_start-0x60fffff0>
     e86:	4ea9                	li	t4,10
     e88:	008e                	slli	ra,ra,0x3
     e8a:	0000                	unimp
     e8c:	5c01                	li	s8,-32
     e8e:	fa1e                	sd	t2,304(sp)
     e90:	01000003          	lb	zero,16(zero) # 10 <_start-0x60fffff0>
     e94:	60a9                	lui	ra,0xa
     e96:	008e                	slli	ra,ra,0x3
     e98:	0000                	unimp
     e9a:	5d01                	li	s10,-32
     e9c:	c11f 0000 0100      	0x1000000c11f
     ea2:	008e0eab          	0x8e0eab
     ea6:	0000                	unimp
     ea8:	1179                	addi	sp,sp,-2
     eaa:	0000                	unimp
     eac:	161f 0002 0100      	0x1000002161f
     eb2:	008e18ab          	0x8e18ab
     eb6:	0000                	unimp
     eb8:	119c                	addi	a5,sp,224
     eba:	0000                	unimp
     ebc:	2100                	fld	fs0,0(a0)
     ebe:	01f8                	addi	a4,sp,204
     ec0:	0000                	unimp
     ec2:	9e01                	subw	a2,a2,s0
     ec4:	8e0a                	mv	t3,sp
     ec6:	0000                	unimp
     ec8:	1000                	addi	s0,sp,32
     eca:	0000                	unimp
     ecc:	0061                	c.nop	24
     ece:	0000                	unimp
     ed0:	1c00                	addi	s0,sp,560
     ed2:	0000                	unimp
     ed4:	0000                	unimp
     ed6:	0000                	unimp
     ed8:	0100                	addi	s0,sp,128
     eda:	e09c                	sd	a5,0(s1)
     edc:	000e                	c.slli	zero,0x3
     ede:	1900                	addi	s0,sp,176
     ee0:	0182                	c.slli64	gp
     ee2:	0000                	unimp
     ee4:	9e01                	subw	a2,a2,s0
     ee6:	e01e                	sd	t2,0(sp)
     ee8:	000e                	c.slli	zero,0x3
     eea:	c700                	sw	s0,8(a4)
     eec:	0011                	c.nop	4
     eee:	1b00                	addi	s0,sp,432
     ef0:	01007077          	0x1007077
     ef4:	0ea0                	addi	s0,sp,856
     ef6:	008e                	slli	ra,ra,0x3
     ef8:	0000                	unimp
     efa:	11fd                	addi	gp,gp,-1
     efc:	0000                	unimp
     efe:	0070721b          	0x70721b
     f02:	a001                	j	f02 <_start-0x60fff0fe>
     f04:	8e16                	mv	t3,t0
     f06:	0000                	unimp
     f08:	3400                	fld	fs0,40(s0)
     f0a:	0012                	c.slli	zero,0x4
     f0c:	0000                	unimp
     f0e:	080d                	addi	a6,a6,3
     f10:	008e                	slli	ra,ra,0x3
     f12:	0000                	unimp
     f14:	6022                	0x6022
     f16:	f8000007          	0xf8000007
     f1a:	0002                	c.slli64	zero
     f1c:	0061                	c.nop	24
     f1e:	0000                	unimp
     f20:	7800                	ld	s0,48(s0)
     f22:	0000                	unimp
     f24:	0000                	unimp
     f26:	0000                	unimp
     f28:	0100                	addi	s0,sp,128
     f2a:	239c                	fld	fa5,0(a5)
     f2c:	0772                	slli	a4,a4,0x1c
     f2e:	0000                	unimp
     f30:	0000126b          	0x126b
     f34:	7f24                	ld	s1,120(a4)
     f36:	ca000007          	vlsseg7e8.v	v0,(zero),zero
     f3a:	0012                	c.slli	zero,0x4
     f3c:	2500                	fld	fs0,8(a0)
     f3e:	0760                	addi	s0,sp,908
     f40:	0000                	unimp
     f42:	034c                	addi	a1,sp,388
     f44:	6100                	ld	s0,0(a0)
     f46:	0000                	unimp
     f48:	0000                	unimp
     f4a:	0024                	addi	s1,sp,8
     f4c:	0000                	unimp
     f4e:	0000                	unimp
     f50:	0000                	unimp
     f52:	1c01                	addi	s8,s8,-32
     f54:	0501                	addi	a0,a0,0
     f56:	0f5e                	slli	t5,t5,0x17
     f58:	0000                	unimp
     f5a:	7226                	ld	tp,104(sp)
     f5c:	24000007          	vluxseg2ei8.v	v0,(zero),v0,v0.t
     f60:	0000077f          	radd16	a4,zero,zero
     f64:	1339                	addi	t1,t1,-18
     f66:	0000                	unimp
     f68:	600c                	ld	a1,0(s0)
     f6a:	00610003          	lb	zero,6(sp)
     f6e:	0000                	unimp
     f70:	1000                	addi	s0,sp,32
     f72:	000e                	c.slli	zero,0x3
     f74:	0b00                	addi	s0,sp,400
     f76:	5a01                	li	s4,-32
     f78:	7802                	ld	a6,32(sp)
     f7a:	0b00                	addi	s0,sp,400
     f7c:	5b01                	li	s6,-32
     f7e:	3a01                	addiw	s4,s4,-32
     f80:	015c010b          	0x15c010b
     f84:	0b31                	addi	s6,s6,12
     f86:	5d01                	li	s10,-32
     f88:	3001                	0x3001
     f8a:	0000                	unimp
     f8c:	240c                	fld	fa1,8(s0)
     f8e:	00610003          	lb	zero,6(sp)
     f92:	0000                	unimp
     f94:	1000                	addi	s0,sp,32
     f96:	000e                	c.slli	zero,0x3
     f98:	0b00                	addi	s0,sp,400
     f9a:	5a01                	li	s4,-32
     f9c:	7802                	ld	a6,32(sp)
     f9e:	0b00                	addi	s0,sp,400
     fa0:	5b01                	li	s6,-32
     fa2:	3a01                	addiw	s4,s4,-32
     fa4:	015c010b          	0x15c010b
     fa8:	0b34                	addi	a3,sp,408
     faa:	5d01                	li	s10,-32
     fac:	3201                	addiw	tp,tp,-32
     fae:	0000                	unimp
     fb0:	1100                	addi	s0,sp,160
     fb2:	0002                	c.slli64	zero
     fb4:	0400                	addi	s0,sp,512
     fb6:	7a00                	ld	s0,48(a2)
     fb8:	0002                	c.slli64	zero
     fba:	0800                	addi	s0,sp,16
     fbc:	2001                	0x2001
     fbe:	0002                	c.slli64	zero
     fc0:	0c00                	addi	s0,sp,528
     fc2:	0474                	addi	a3,sp,524
     fc4:	0000                	unimp
     fc6:	0066                	c.slli	zero,0x19
     fc8:	0000                	unimp
     fca:	0718                	addi	a4,sp,896
     fcc:	6100                	ld	s0,0(a0)
     fce:	0000                	unimp
     fd0:	0000                	unimp
     fd2:	0110                	addi	a2,sp,128
     fd4:	0000                	unimp
     fd6:	0000                	unimp
     fd8:	0000                	unimp
     fda:	0ac5                	addi	s5,s5,17
     fdc:	0000                	unimp
     fde:	0102                	c.slli64	sp
     fe0:	9606                	add	a2,a2,ra
     fe2:	03000003          	lb	zero,48(zero) # 30 <_start-0x60ffffd0>
     fe6:	00ca                	slli	ra,ra,0x12
     fe8:	0000                	unimp
     fea:	2b02                	fld	fs6,0(sp)
     fec:	4018                	lw	a4,0(s0)
     fee:	0000                	unimp
     ff0:	0200                	addi	s0,sp,256
     ff2:	0801                	addi	a6,a6,0
     ff4:	0394                	addi	a3,sp,448
     ff6:	0000                	unimp
     ff8:	0202                	c.slli64	tp
     ffa:	b005                	j	81a <_start-0x60fff7e6>
     ffc:	02000003          	lb	zero,32(zero) # 20 <_start-0x60ffffe0>
    1000:	0702                	c.slli64	a4
    1002:	02a2                	slli	t0,t0,0x8
    1004:	0000                	unimp
    1006:	00046a03          	lwu	s4,0(s0)
    100a:	0200                	addi	s0,sp,256
    100c:	184d                	addi	a6,a6,-13
    100e:	0061                	c.nop	24
    1010:	0000                	unimp
    1012:	0404                	addi	s1,sp,512
    1014:	6905                	lui	s2,0x1
    1016:	746e                	ld	s0,248(sp)
    1018:	0300                	addi	s0,sp,384
    101a:	0202                	c.slli64	tp
    101c:	0000                	unimp
    101e:	4f02                	lw	t5,0(sp)
    1020:	7419                	lui	s0,0xfffe6
    1022:	0000                	unimp
    1024:	0200                	addi	s0,sp,256
    1026:	0704                	addi	s1,sp,896
    1028:	0101                	addi	sp,sp,0
    102a:	0000                	unimp
    102c:	0802                	c.slli64	a6
    102e:	b405                	j	a4e <_start-0x60fff5b2>
    1030:	0001                	nop
    1032:	0200                	addi	s0,sp,256
    1034:	0708                	addi	a0,sp,896
    1036:	00fc                	addi	a5,sp,76
    1038:	0000                	unimp
    103a:	0000cc03          	lbu	s8,0(ra) # a000 <_start-0x60ff6000>
    103e:	0300                	addi	s0,sp,384
    1040:	1318                	addi	a4,sp,416
    1042:	0034                	addi	a3,sp,8
    1044:	0000                	unimp
    1046:	00046c03          	lwu	s8,0(s0) # fffffffffffe6000 <stack_end+0xffffffff9efe55d8>
    104a:	0300                	addi	s0,sp,384
    104c:	132c                	addi	a1,sp,424
    104e:	0055                	c.nop	21
    1050:	0000                	unimp
    1052:	00020403          	lb	s0,0(tp) # 0 <_start-0x61000000>
    1056:	0300                	addi	s0,sp,384
    1058:	1430                	addi	a2,sp,552
    105a:	0068                	addi	a0,sp,12
    105c:	0000                	unimp
    105e:	a105                	j	147e <_start-0x60ffeb82>
    1060:	0000                	unimp
    1062:	0200                	addi	s0,sp,256
    1064:	0508                	addi	a0,sp,640
    1066:	000001af          	0x1af
    106a:	1002                	c.slli	zero,0x20
    106c:	3104                	fld	fs1,32(a0)
    106e:	02000003          	lb	zero,32(zero) # 20 <_start-0x60ffffe0>
    1072:	0801                	addi	a6,a6,0
    1074:	039d                	addi	t2,t2,7
    1076:	0000                	unimp
    1078:	0802                	c.slli64	a6
    107a:	0000f707          	vle64.v	v14,(ra),v0.t
    107e:	0600                	addi	s0,sp,768
    1080:	04f0                	addi	a2,sp,588
    1082:	0000                	unimp
    1084:	0301                	addi	t1,t1,0
    1086:	6105                	addi	sp,sp,32
    1088:	0000                	unimp
    108a:	1800                	addi	s0,sp,48
    108c:	00610007          	0x610007
    1090:	0000                	unimp
    1092:	1000                	addi	s0,sp,32
    1094:	0001                	nop
    1096:	0000                	unimp
    1098:	0000                	unimp
    109a:	0100                	addi	s0,sp,128
    109c:	ea9c                	sd	a5,16(a3)
    109e:	0001                	nop
    10a0:	0700                	addi	s0,sp,896
    10a2:	03e8                	addi	a0,sp,460
    10a4:	0000                	unimp
    10a6:	0301                	addi	t1,t1,0
    10a8:	ea25                	bnez	a2,1118 <_start-0x60ffeee8>
    10aa:	0001                	nop
    10ac:	7b00                	ld	s0,48(a4)
    10ae:	07000013          	li	zero,112
    10b2:	04fd                	addi	s1,s1,31
    10b4:	0000                	unimp
    10b6:	0301                	addi	t1,t1,0
    10b8:	9538                	0x9538
    10ba:	0000                	unimp
    10bc:	da00                	sw	s0,48(a2)
    10be:	07000013          	li	zero,112
    10c2:	04d8                	addi	a4,sp,580
    10c4:	0000                	unimp
    10c6:	0301                	addi	t1,t1,0
    10c8:	00006147          	fmsub.s	ft2,ft0,ft0,ft0,unknown
    10cc:	2600                	fld	fs0,8(a2)
    10ce:	0014                	0x14
    10d0:	0700                	addi	s0,sp,896
    10d2:	00000507          	vle8.v	v10,(zero),v0.t
    10d6:	0301                	addi	t1,t1,0
    10d8:	f058                	sd	a4,160(s0)
    10da:	0001                	nop
    10dc:	8700                	0x8700
    10de:	0014                	0x14
    10e0:	0700                	addi	s0,sp,896
    10e2:	04de                	slli	s1,s1,0x17
    10e4:	0000                	unimp
    10e6:	0301                	addi	t1,t1,0
    10e8:	f06d                	bnez	s0,10ca <_start-0x60ffef36>
    10ea:	0001                	nop
    10ec:	fb00                	sd	s0,48(a4)
    10ee:	0014                	0x14
    10f0:	0700                	addi	s0,sp,896
    10f2:	0400                	addi	s0,sp,512
    10f4:	0000                	unimp
    10f6:	0301                	addi	t1,t1,0
    10f8:	0000a17f          	radd32	sp,ra,zero
    10fc:	5a00                	lw	s0,48(a2)
    10fe:	0015                	c.nop	5
    1100:	0700                	addi	s0,sp,896
    1102:	04e6                	slli	s1,s1,0x19
    1104:	0000                	unimp
    1106:	0301                	addi	t1,t1,0
    1108:	a190                	fsd	fa2,0(a1)
    110a:	0000                	unimp
    110c:	a300                	fsd	fs0,0(a4)
    110e:	0015                	c.nop	5
    1110:	0700                	addi	s0,sp,896
    1112:	000003cf          	fnmadd.s	ft7,ft0,ft0,ft0,rne
    1116:	0301                	addi	t1,t1,0
    1118:	a1a4                	fsd	fs1,64(a1)
    111a:	0000                	unimp
    111c:	dc00                	sw	s0,56(s0)
    111e:	0015                	c.nop	5
    1120:	0800                	addi	s0,sp,16
    1122:	7072                	0x7072
    1124:	0100                	addi	s0,sp,128
    1126:	0e05                	addi	t3,t3,1
    1128:	01f6                	slli	gp,gp,0x1d
    112a:	0000                	unimp
    112c:	1615                	addi	a2,a2,-27
    112e:	0000                	unimp
    1130:	ea09                	bnez	a2,1142 <_start-0x60ffeebe>
    1132:	0001                	nop
    1134:	0100                	addi	s0,sp,128
    1136:	0e06                	slli	t3,t3,0x1
    1138:	00a1                	addi	ra,ra,8
    113a:	0000                	unimp
    113c:	0000164b          	fnmsub.s	fa2,ft0,ft0,ft0,rtz
    1140:	d409                	beqz	s0,104a <_start-0x60ffefb6>
    1142:	0004                	0x4
    1144:	0100                	addi	s0,sp,128
    1146:	0e08                	addi	a0,sp,784
    1148:	00a1                	addi	ra,ra,8
    114a:	0000                	unimp
    114c:	1695                	addi	a3,a3,-27
    114e:	0000                	unimp
    1150:	c40a                	sw	sp,8(sp)
    1152:	00610007          	0x610007
    1156:	0000                	unimp
    1158:	fc00                	sd	s0,56(s0)
    115a:	0001                	nop
    115c:	b700                	fsd	fs0,40(a4)
    115e:	0001                	nop
    1160:	0b00                	addi	s0,sp,400
    1162:	5a01                	li	s4,-32
    1164:	8202                	jr	tp
    1166:	0000                	unimp
    1168:	fc0c                	sd	a1,56(s0)
    116a:	00610007          	0x610007
    116e:	0000                	unimp
    1170:	0800                	addi	s0,sp,16
    1172:	0002                	c.slli64	zero
    1174:	0b00                	addi	s0,sp,400
    1176:	5a01                	li	s4,-32
    1178:	8402                	jr	s0
    117a:	0b00                	addi	s0,sp,400
    117c:	5b01                	li	s6,-32
    117e:	7802                	ld	a6,32(sp)
    1180:	0b00                	addi	s0,sp,400
    1182:	5c01                	li	s8,-32
    1184:	8a02                	jr	s4
    1186:	0b00                	addi	s0,sp,400
    1188:	5d01                	li	s10,-32
    118a:	8b02                	jr	s6
    118c:	0b00                	addi	s0,sp,400
    118e:	5e01                	li	t3,-32
    1190:	8602                	jr	a2
    1192:	0b00                	addi	s0,sp,400
    1194:	5f01                	li	t5,-32
    1196:	8702                	jr	a4
    1198:	0000                	unimp
    119a:	0d00                	addi	s0,sp,656
    119c:	ad08                	fsd	fa0,24(a0)
    119e:	0000                	unimp
    11a0:	0d00                	addi	s0,sp,656
    11a2:	a108                	fsd	fa0,0(a0)
    11a4:	0000                	unimp
    11a6:	0d00                	addi	s0,sp,656
    11a8:	8908                	0x8908
    11aa:	0000                	unimp
    11ac:	0e00                	addi	s0,sp,784
    11ae:	01f8                	addi	a4,sp,204
    11b0:	0000                	unimp
    11b2:	01f8                	addi	a4,sp,204
    11b4:	0000                	unimp
    11b6:	0c04                	addi	s1,sp,528
    11b8:	0e0a                	slli	t3,t3,0x2
    11ba:	0441                	addi	s0,s0,16
    11bc:	0000                	unimp
    11be:	0441                	addi	s0,s0,16
    11c0:	0000                	unimp
    11c2:	1404                	addi	s1,sp,544
    11c4:	0005                	c.nop	1

Disassembly of section .debug_abbrev:

0000000000000000 <.debug_abbrev>:
   0:	1101                	addi	sp,sp,-32
   2:	1000                	addi	s0,sp,32
   4:	1106                	slli	sp,sp,0x21
   6:	1201                	addi	tp,tp,-32
   8:	0301                	addi	t1,t1,0
   a:	1b0e                	slli	s6,s6,0x23
   c:	250e                	fld	fa0,192(sp)
   e:	130e                	slli	t1,t1,0x23
  10:	0005                	c.nop	1
  12:	0000                	unimp
  14:	1101                	addi	sp,sp,-32
  16:	2501                	sext.w	a0,a0
  18:	130e                	slli	t1,t1,0x23
  1a:	1b0e030b          	0x1b0e030b
  1e:	110e                	slli	sp,sp,0x23
  20:	1201                	addi	tp,tp,-32
  22:	00171007          	flh	ft0,1(a4) # 1d001 <_start-0x60fe2fff>
  26:	0200                	addi	s0,sp,256
  28:	0024                	addi	s1,sp,8
  2a:	0b3e0b0b          	0xb3e0b0b
  2e:	00000e03          	lb	t3,0(zero) # 0 <_start-0x61000000>
  32:	03001603          	lh	a2,48(zero) # 30 <_start-0x60ffffd0>
  36:	3a0e                	fld	fs4,224(sp)
  38:	390b3b0b          	0x390b3b0b
  3c:	0013490b          	0x13490b
  40:	0400                	addi	s0,sp,512
  42:	0024                	addi	s1,sp,8
  44:	0b3e0b0b          	0xb3e0b0b
  48:	00000803          	lb	a6,0(zero) # 0 <_start-0x61000000>
  4c:	2605                	addiw	a2,a2,1
  4e:	4900                	lw	s0,16(a0)
  50:	06000013          	li	zero,96
  54:	0035                	c.nop	13
  56:	1349                	addi	t1,t1,-14
  58:	0000                	unimp
  5a:	3f012e07          	flw	ft8,1008(sp)
  5e:	0319                	addi	t1,t1,6
  60:	3a0e                	fld	fs4,224(sp)
  62:	39053b0b          	0x39053b0b
  66:	4919270b          	0x4919270b
  6a:	12011113          	0x12011113
  6e:	97184007          	flq	ft0,-1679(a6) # fffffffffffdf971 <stack_end+0xffffffff9efdef49>
  72:	1942                	slli	s2,s2,0x30
  74:	1301                	addi	t1,t1,-32
  76:	0000                	unimp
  78:	0508                	addi	a0,sp,640
  7a:	0300                	addi	s0,sp,384
  7c:	3a0e                	fld	fs4,224(sp)
  7e:	39053b0b          	0x39053b0b
  82:	0213490b          	0x213490b
  86:	09000017          	auipc	zero,0x9000
  8a:	0005                	c.nop	1
  8c:	0b3a0803          	lb	a6,179(s4) # fffffffffffe00b3 <stack_end+0xffffffff9efdf68b>
  90:	0b39053b          	0xb39053b
  94:	1349                	addi	t1,t1,-14
  96:	1702                	slli	a4,a4,0x20
  98:	0000                	unimp
  9a:	890a                	mv	s2,sp
  9c:	0182                	c.slli64	gp
  9e:	1101                	addi	sp,sp,-32
  a0:	3101                	addiw	sp,sp,-32
  a2:	00130113          	addi	sp,t1,1
  a6:	0b00                	addi	s0,sp,400
  a8:	828a                	mv	t0,sp
  aa:	0001                	nop
  ac:	1802                	slli	a6,a6,0x20
  ae:	4291                	li	t0,4
  b0:	0018                	0x18
  b2:	0c00                	addi	s0,sp,528
  b4:	8289                	srli	a3,a3,0x2
  b6:	0101                	addi	sp,sp,0
  b8:	0111                	addi	sp,sp,4
  ba:	1331                	addi	t1,t1,-20
  bc:	0000                	unimp
  be:	0f0d                	addi	t5,t5,3
  c0:	0b00                	addi	s0,sp,400
  c2:	0013490b          	0x13490b
  c6:	0e00                	addi	s0,sp,784
  c8:	8289                	srli	a3,a3,0x2
  ca:	0101                	addi	sp,sp,0
  cc:	0111                	addi	sp,sp,4
  ce:	4295                	li	t0,5
  d0:	3119                	addiw	sp,sp,-26
  d2:	0f000013          	li	zero,240
  d6:	0034                	addi	a3,sp,8
  d8:	0b3a0e03          	lb	t3,179(s4)
  dc:	0b39053b          	0xb39053b
  e0:	1349                	addi	t1,t1,-14
  e2:	0b1c                	addi	a5,sp,400
  e4:	0000                	unimp
  e6:	3410                	fld	fa2,40(s0)
  e8:	0300                	addi	s0,sp,384
  ea:	3a08                	fld	fa0,48(a2)
  ec:	39053b0b          	0x39053b0b
  f0:	0213490b          	0x213490b
  f4:	0018                	0x18
  f6:	1100                	addi	s0,sp,160
  f8:	0034                	addi	a3,sp,8
  fa:	0b3a0e03          	lb	t3,179(s4)
  fe:	0b39053b          	0xb39053b
 102:	1349                	addi	t1,t1,-14
 104:	1702                	slli	a4,a4,0x20
 106:	0000                	unimp
 108:	3412                	fld	fs0,288(sp)
 10a:	0300                	addi	s0,sp,384
 10c:	3a08                	fld	fa0,48(a2)
 10e:	39053b0b          	0x39053b0b
 112:	0213490b          	0x213490b
 116:	13000017          	auipc	zero,0x13000
 11a:	0034                	addi	a3,sp,8
 11c:	0b3a0e03          	lb	t3,179(s4)
 120:	0b39053b          	0xb39053b
 124:	1349                	addi	t1,t1,-14
 126:	1802                	slli	a6,a6,0x20
 128:	0000                	unimp
 12a:	2e14                	fld	fa3,24(a2)
 12c:	3f01                	addiw	t5,t5,-32
 12e:	0319                	addi	t1,t1,6
 130:	3a0e                	fld	fs4,224(sp)
 132:	39053b0b          	0x39053b0b
 136:	4919270b          	0x4919270b
 13a:	010b2013          	slti	zero,s6,16
 13e:	15000013          	li	zero,336
 142:	0005                	c.nop	1
 144:	0b3a0e03          	lb	t3,179(s4)
 148:	0b39053b          	0xb39053b
 14c:	1349                	addi	t1,t1,-14
 14e:	0000                	unimp
 150:	3416                	fld	fs0,352(sp)
 152:	0300                	addi	s0,sp,384
 154:	3a0e                	fld	fs4,224(sp)
 156:	39053b0b          	0x39053b0b
 15a:	0013490b          	0x13490b
 15e:	1700                	addi	s0,sp,928
 160:	012e                	slli	sp,sp,0xb
 162:	0e03193f 053b0b3a 	0x53b0b3a0e03193f
 16a:	0b39                	addi	s6,s6,14
 16c:	01111927          	fsh	fa7,18(sp)
 170:	0712                	slli	a4,a4,0x4
 172:	1840                	addi	s0,sp,52
 174:	01194297          	auipc	t0,0x1194
 178:	18000013          	li	zero,384
 17c:	012e                	slli	sp,sp,0xb
 17e:	0e03193f 0b3b0b3a 	0xb3b0b3a0e03193f
 186:	0b39                	addi	s6,s6,14
 188:	01111927          	fsh	fa7,18(sp)
 18c:	0712                	slli	a4,a4,0x4
 18e:	1840                	addi	s0,sp,52
 190:	01194297          	auipc	t0,0x1194
 194:	19000013          	li	zero,400
 198:	0005                	c.nop	1
 19a:	0b3a0e03          	lb	t3,179(s4)
 19e:	0b390b3b          	0xb390b3b
 1a2:	1349                	addi	t1,t1,-14
 1a4:	1702                	slli	a4,a4,0x20
 1a6:	0000                	unimp
 1a8:	051a                	slli	a0,a0,0x6
 1aa:	0300                	addi	s0,sp,384
 1ac:	3a08                	fld	fa0,48(a2)
 1ae:	390b3b0b          	0x390b3b0b
 1b2:	0213490b          	0x213490b
 1b6:	1b000017          	auipc	zero,0x1b000
 1ba:	0034                	addi	a3,sp,8
 1bc:	0b3a0803          	lb	a6,179(s4)
 1c0:	0b390b3b          	0xb390b3b
 1c4:	1349                	addi	t1,t1,-14
 1c6:	1702                	slli	a4,a4,0x20
 1c8:	0000                	unimp
 1ca:	341c                	fld	fa5,40(s0)
 1cc:	0300                	addi	s0,sp,384
 1ce:	3a0e                	fld	fs4,224(sp)
 1d0:	390b3b0b          	0x390b3b0b
 1d4:	1c13490b          	0x1c13490b
 1d8:	0006                	c.slli	zero,0x1
 1da:	1d00                	addi	s0,sp,688
 1dc:	0034                	addi	a3,sp,8
 1de:	0b3a0e03          	lb	t3,179(s4)
 1e2:	0b390b3b          	0xb390b3b
 1e6:	1349                	addi	t1,t1,-14
 1e8:	0b1c                	addi	a5,sp,400
 1ea:	0000                	unimp
 1ec:	051e                	slli	a0,a0,0x7
 1ee:	0300                	addi	s0,sp,384
 1f0:	3a0e                	fld	fs4,224(sp)
 1f2:	390b3b0b          	0x390b3b0b
 1f6:	0213490b          	0x213490b
 1fa:	0018                	0x18
 1fc:	1f00                	addi	s0,sp,944
 1fe:	0034                	addi	a3,sp,8
 200:	0b3a0e03          	lb	t3,179(s4)
 204:	0b390b3b          	0xb390b3b
 208:	1349                	addi	t1,t1,-14
 20a:	1702                	slli	a4,a4,0x20
 20c:	0000                	unimp
 20e:	3420                	fld	fs0,104(s0)
 210:	0300                	addi	s0,sp,384
 212:	3a0e                	fld	fs4,224(sp)
 214:	390b3b0b          	0x390b3b0b
 218:	0213490b          	0x213490b
 21c:	0018                	0x18
 21e:	2100                	fld	fs0,0(a0)
 220:	012e                	slli	sp,sp,0xb
 222:	0e03193f 0b3b0b3a 	0xb3b0b3a0e03193f
 22a:	0b39                	addi	s6,s6,14
 22c:	13491927          	fsh	fs4,306(s2) # 1132 <_start-0x60ffeece>
 230:	0111                	addi	sp,sp,4
 232:	0712                	slli	a4,a4,0x4
 234:	1840                	addi	s0,sp,52
 236:	01194297          	auipc	t0,0x1194
 23a:	22000013          	li	zero,544
 23e:	012e                	slli	sp,sp,0xb
 240:	1331                	addi	t1,t1,-20
 242:	0111                	addi	sp,sp,4
 244:	0712                	slli	a4,a4,0x4
 246:	1840                	addi	s0,sp,52
 248:	00194297          	auipc	t0,0x194
 24c:	2300                	fld	fs0,0(a4)
 24e:	0005                	c.nop	1
 250:	1331                	addi	t1,t1,-20
 252:	1702                	slli	a4,a4,0x20
 254:	0000                	unimp
 256:	3424                	fld	fs1,104(s0)
 258:	3100                	fld	fs0,32(a0)
 25a:	00170213          	addi	tp,a4,1
 25e:	2500                	fld	fs0,8(a0)
 260:	011d                	addi	sp,sp,7
 262:	1331                	addi	t1,t1,-20
 264:	0111                	addi	sp,sp,4
 266:	0712                	slli	a4,a4,0x4
 268:	0b58                	addi	a4,sp,404
 26a:	0559                	addi	a0,a0,22
 26c:	13010b57          	vminu.vv	v22,v16,v2
 270:	0000                	unimp
 272:	0526                	slli	a0,a0,0x9
 274:	3100                	fld	fs0,32(a0)
 276:	00000013          	nop
 27a:	1101                	addi	sp,sp,-32
 27c:	2501                	sext.w	a0,a0
 27e:	130e                	slli	t1,t1,0x23
 280:	1b0e030b          	0x1b0e030b
 284:	110e                	slli	sp,sp,0x23
 286:	1201                	addi	tp,tp,-32
 288:	00171007          	flh	ft0,1(a4)
 28c:	0200                	addi	s0,sp,256
 28e:	0024                	addi	s1,sp,8
 290:	0b3e0b0b          	0xb3e0b0b
 294:	00000e03          	lb	t3,0(zero) # 0 <_start-0x61000000>
 298:	03001603          	lh	a2,48(zero) # 30 <_start-0x60ffffd0>
 29c:	3a0e                	fld	fs4,224(sp)
 29e:	390b3b0b          	0x390b3b0b
 2a2:	0013490b          	0x13490b
 2a6:	0400                	addi	s0,sp,512
 2a8:	0024                	addi	s1,sp,8
 2aa:	0b3e0b0b          	0xb3e0b0b
 2ae:	00000803          	lb	a6,0(zero) # 0 <_start-0x61000000>
 2b2:	3505                	addiw	a0,a0,-31
 2b4:	4900                	lw	s0,16(a0)
 2b6:	06000013          	li	zero,96
 2ba:	012e                	slli	sp,sp,0xb
 2bc:	0e03193f 0b3b0b3a 	0xb3b0b3a0e03193f
 2c4:	0b39                	addi	s6,s6,14
 2c6:	13491927          	fsh	fs4,306(s2)
 2ca:	0111                	addi	sp,sp,4
 2cc:	0712                	slli	a4,a4,0x4
 2ce:	1840                	addi	s0,sp,52
 2d0:	01194297          	auipc	t0,0x1194
 2d4:	07000013          	li	zero,112
 2d8:	0005                	c.nop	1
 2da:	0b3a0e03          	lb	t3,179(s4)
 2de:	0b390b3b          	0xb390b3b
 2e2:	1349                	addi	t1,t1,-14
 2e4:	1702                	slli	a4,a4,0x20
 2e6:	0000                	unimp
 2e8:	3408                	fld	fa0,40(s0)
 2ea:	0300                	addi	s0,sp,384
 2ec:	3a08                	fld	fa0,48(a2)
 2ee:	390b3b0b          	0x390b3b0b
 2f2:	0213490b          	0x213490b
 2f6:	09000017          	auipc	zero,0x9000
 2fa:	0034                	addi	a3,sp,8
 2fc:	0b3a0e03          	lb	t3,179(s4)
 300:	0b390b3b          	0xb390b3b
 304:	1349                	addi	t1,t1,-14
 306:	1702                	slli	a4,a4,0x20
 308:	0000                	unimp
 30a:	890a                	mv	s2,sp
 30c:	0182                	c.slli64	gp
 30e:	1101                	addi	sp,sp,-32
 310:	3101                	addiw	sp,sp,-32
 312:	00130113          	addi	sp,t1,1
 316:	0b00                	addi	s0,sp,400
 318:	828a                	mv	t0,sp
 31a:	0001                	nop
 31c:	1802                	slli	a6,a6,0x20
 31e:	4291                	li	t0,4
 320:	0018                	0x18
 322:	0c00                	addi	s0,sp,528
 324:	8289                	srli	a3,a3,0x2
 326:	0101                	addi	sp,sp,0
 328:	0111                	addi	sp,sp,4
 32a:	1331                	addi	t1,t1,-20
 32c:	0000                	unimp
 32e:	0f0d                	addi	t5,t5,3
 330:	0b00                	addi	s0,sp,400
 332:	0013490b          	0x13490b
 336:	0e00                	addi	s0,sp,784
 338:	002e                	c.slli	zero,0xb
 33a:	193c193f 0e030e6e 	0xe030e6e193c193f
 342:	0b3a                	slli	s6,s6,0xe
 344:	0b390b3b          	0xb390b3b
 348:	0000                	unimp
	...

Disassembly of section .debug_aranges:

0000000000000000 <.debug_aranges>:
   0:	002c                	addi	a1,sp,8
   2:	0000                	unimp
   4:	0002                	c.slli64	zero
   6:	0000                	unimp
   8:	0000                	unimp
   a:	0008                	0x8
   c:	0000                	unimp
   e:	0000                	unimp
  10:	0000                	unimp
  12:	6100                	ld	s0,0(a0)
  14:	0000                	unimp
  16:	0000                	unimp
  18:	0010                	0x10
	...
  2e:	0000                	unimp
  30:	002c                	addi	a1,sp,8
  32:	0000                	unimp
  34:	0002                	c.slli64	zero
  36:	002e                	c.slli	zero,0xb
  38:	0000                	unimp
  3a:	0008                	0x8
  3c:	0000                	unimp
  3e:	0000                	unimp
  40:	0010                	0x10
  42:	6100                	ld	s0,0(a0)
  44:	0000                	unimp
  46:	0000                	unimp
  48:	0708                	addi	a0,sp,896
	...
  5e:	0000                	unimp
  60:	002c                	addi	a1,sp,8
  62:	0000                	unimp
  64:	0002                	c.slli64	zero
  66:	0fb1                	addi	t6,t6,12
  68:	0000                	unimp
  6a:	0008                	0x8
  6c:	0000                	unimp
  6e:	0000                	unimp
  70:	0718                	addi	a4,sp,896
  72:	6100                	ld	s0,0(a0)
  74:	0000                	unimp
  76:	0000                	unimp
  78:	0110                	addi	a2,sp,128
	...

Disassembly of section .debug_str:

0000000000000000 <.debug_str>:
   0:	3a44                	fld	fs1,176(a2)
   2:	726f772f          	0x726f772f
   6:	30322f6b          	0x30322f6b
   a:	3232                	fld	ft4,296(sp)
   c:	396c612f          	0x396c612f
  10:	3030                	fld	fa2,96(s0)
  12:	2f30                	fld	fa2,88(a4)
  14:	642f7773          	csrrci	a4,0x642,30
  18:	6265                	lui	tp,0x19
  1a:	6775                	lui	a4,0x1d
  1c:	2f726567          	0x2f726567
  20:	6c61                	lui	s8,0x18
  22:	6f5f 6570 6f6e      	0x6f6e65706f5f
  28:	632f6463          	bltu	t5,s2,650 <_start-0x60fff9b0>
  2c:	72746e6f          	jal	t3,46f52 <_start-0x60fb90ae>
  30:	6269                	lui	tp,0x1a
  32:	616f6c2f          	0x616f6c2f
  36:	6564                	ld	s1,200(a0)
  38:	7372                	ld	t1,312(sp)
  3a:	616c662f          	0x616c662f
  3e:	712f6873          	csrrsi	a6,0x712,30
  42:	2f697073          	csrci	0x2f6,18
  46:	7764                	ld	s1,232(a4)
  48:	69737363          	bgeu	t1,s7,6ce <_start-0x60fff932>
  4c:	6372732f          	0x6372732f
  50:	6f6f622f          	0x6f6f622f
  54:	2f74                	fld	fa3,216(a4)
  56:	6972                	ld	s2,280(sp)
  58:	5c766373          	csrrsi	t1,0x5c7,12
  5c:	70617277          	0x70617277
  60:	6570                	ld	a2,200(a0)
  62:	2e72                	fld	ft8,280(sp)
  64:	3a440053          	0x3a440053
  68:	775c                	ld	a5,168(a4)
  6a:	5c6b726f          	jal	tp,b7630 <_start-0x60f489d0>
  6e:	3032                	fld	ft0,296(sp)
  70:	3232                	fld	ft4,296(sp)
  72:	615c                	ld	a5,128(a0)
  74:	396c                	fld	fa1,240(a0)
  76:	3030                	fld	fa2,96(s0)
  78:	5c30                	lw	a2,120(s0)
  7a:	645c7773          	csrrci	a4,0x645,24
  7e:	6265                	lui	tp,0x19
  80:	6775                	lui	a4,0x1d
  82:	5c726567          	0x5c726567
  86:	6c61                	lui	s8,0x18
  88:	6f5f 6570 6f6e      	0x6f6e65706f5f
  8e:	635c6463          	bltu	s8,s5,6b6 <_start-0x60fff94a>
  92:	72746e6f          	jal	t3,46fb8 <_start-0x60fb9048>
  96:	6269                	lui	tp,0x1a
  98:	6c5c                	ld	a5,152(s0)
  9a:	6564616f          	jal	sp,466f0 <_start-0x60fb9910>
  9e:	7372                	ld	t1,312(sp)
  a0:	665c                	ld	a5,136(a2)
  a2:	616c                	ld	a1,192(a0)
  a4:	715c6873          	csrrsi	a6,0x715,24
  a8:	5c697073          	csrci	0x5c6,18
  ac:	7764                	ld	s1,232(a4)
  ae:	69737363          	bgeu	t1,s7,734 <_start-0x60fff8cc>
  b2:	4700                	lw	s0,8(a4)
  b4:	554e                	lw	a0,240(sp)
  b6:	4120                	lw	s0,64(a0)
  b8:	2e322053          	0x2e322053
  bc:	312e3633          	0x312e3633
  c0:	7200                	ld	s0,32(a2)
  c2:	5f64                	lw	s1,124(a4)
  c4:	6176                	ld	sp,344(sp)
  c6:	756c                	ld	a1,232(a0)
  c8:	0065                	c.nop	25
  ca:	5f5f 6975 746e      	0x746e69755f5f
  d0:	5f38                	lw	a4,120(a4)
  d2:	0074                	addi	a3,sp,12
  d4:	7874                	ld	a3,240(s0)
  d6:	745f 746f 6c61      	0x6c61746f745f
  dc:	6c5f 6e65 7400      	0x74006e656c5f
  e2:	5f78                	lw	a4,124(a4)
  e4:	72617473          	csrrci	s0,0x726,2
  e8:	5f74                	lw	a3,124(a4)
  ea:	766c                	ld	a1,232(a2)
  ec:	6400                	ld	s0,8(s0)
  ee:	73736377          	0x73736377
  f2:	5f69                	li	t5,-6
  f4:	7874                	ld	a3,240(s0)
  f6:	6c00                	ld	s0,24(s0)
  f8:	20676e6f          	jal	t3,762fe <_start-0x60f89d02>
  fc:	6f6c                	ld	a1,216(a4)
  fe:	676e                	ld	a4,216(sp)
 100:	7520                	ld	s0,104(a0)
 102:	736e                	ld	t1,248(sp)
 104:	6769                	lui	a4,0x1a
 106:	656e                	ld	a0,216(sp)
 108:	2064                	fld	fs1,192(s0)
 10a:	6e69                	lui	t3,0x1a
 10c:	0074                	addi	a3,sp,12
 10e:	7764                	ld	s1,232(a4)
 110:	69737363          	bgeu	t1,s7,796 <_start-0x60fff86a>
 114:	635f 6e6f 6966      	0x69666e6f635f
 11a:	58545f67          	0x58545f67
 11e:	5446                	lw	s0,112(sp)
 120:	524c                	lw	a1,36(a2)
 122:	4400                	lw	s0,8(s0)
 124:	2f3a                	fld	ft10,392(sp)
 126:	6b726f77          	0x6b726f77
 12a:	3230322f          	0x3230322f
 12e:	2f32                	fld	ft10,264(sp)
 130:	6c61                	lui	s8,0x18
 132:	3039                	0x3039
 134:	3030                	fld	fa2,96(s0)
 136:	2f77732f          	0x2f77732f
 13a:	6564                	ld	s1,200(a0)
 13c:	7562                	ld	a0,56(sp)
 13e:	72656767          	0x72656767
 142:	5f6c612f          	0x5f6c612f
 146:	6e65706f          	j	5782c <_start-0x60fa87d4>
 14a:	2f64636f          	jal	t1,46440 <_start-0x60fb9bc0>
 14e:	746e6f63          	bltu	t3,t1,8ac <_start-0x60fff754>
 152:	6972                	ld	s2,280(sp)
 154:	2f62                	fld	ft10,24(sp)
 156:	6f6c                	ld	a1,216(a4)
 158:	6461                	lui	s0,0x18
 15a:	7265                	lui	tp,0xffff9
 15c:	6c662f73          	csrrs	t5,0x6c6,a2
 160:	7361                	lui	t1,0xffff8
 162:	2f68                	fld	fa0,216(a4)
 164:	7371                	lui	t1,0xffffc
 166:	6970                	ld	a2,208(a0)
 168:	6377642f          	0x6377642f
 16c:	2f697373          	csrrci	t1,0x2f6,18
 170:	2f637273          	csrrci	tp,0x2f6,6
 174:	7764                	ld	s1,232(a4)
 176:	69737363          	bgeu	t1,s7,7fc <_start-0x60fff804>
 17a:	632e                	ld	t1,200(sp)
 17c:	7400                	ld	s0,40(s0)
 17e:	6f6d                	lui	t5,0x1b
 180:	0064                	addi	s1,sp,12
 182:	6b726f77          	0x6b726f77
 186:	615f 6572 5f61      	0x5f616572615f
 18c:	72617473          	csrrci	s0,0x726,2
 190:	0074                	addi	a3,sp,12
 192:	63697073          	csrci	0x636,18
 196:	7274                	ld	a3,224(a2)
 198:	5f6c                	lw	a1,124(a4)
 19a:	6176                	ld	sp,344(sp)
 19c:	006c                	addi	a1,sp,12
 19e:	7764                	ld	s1,232(a4)
 1a0:	69737363          	bgeu	t1,s7,826 <_start-0x60fff7da>
 1a4:	635f 6e6f 6966      	0x69666e6f635f
 1aa:	78745f67          	0x78745f67
 1ae:	6c00                	ld	s0,24(s0)
 1b0:	20676e6f          	jal	t3,763b6 <_start-0x60f89c4a>
 1b4:	6f6c                	ld	a1,216(a4)
 1b6:	676e                	ld	a4,216(sp)
 1b8:	6920                	ld	s0,80(a0)
 1ba:	746e                	ld	s0,248(sp)
 1bc:	6400                	ld	s0,8(s0)
 1be:	73736377          	0x73736377
 1c2:	5f69                	li	t5,-6
 1c4:	7874                	ld	a3,240(s0)
 1c6:	625f 6675 6e5f      	0x6e5f6675625f
 1cc:	61775f6f          	jal	t5,75fe2 <_start-0x60f8a01e>
 1d0:	7469                	lui	s0,0xffffa
 1d2:	6900                	ld	s0,16(a0)
 1d4:	5f6e                	lw	t5,248(sp)
 1d6:	7562                	ld	a0,56(sp)
 1d8:	0066                	c.slli	zero,0x19
 1da:	7764                	ld	s1,232(a4)
 1dc:	69737363          	bgeu	t1,s7,862 <_start-0x60fff79e>
 1e0:	745f 5f78 6d65      	0x6d655f78745f
 1e6:	7470                	ld	a2,232(s0)
 1e8:	0079                	c.nop	30
 1ea:	6572                	ld	a0,280(sp)
 1ec:	7674                	ld	a3,232(a2)
 1ee:	6c61                	lui	s8,0x18
 1f0:	7400                	ld	s0,40(s0)
 1f2:	6678                	ld	a4,200(a2)
 1f4:	6874                	ld	a3,208(s0)
 1f6:	0072                	c.slli	zero,0x1c
 1f8:	74696177          	0x74696177
 1fc:	665f 6669 006f      	0x6f6669665f
 202:	5f5f 6975 746e      	0x746e69755f5f
 208:	745f3233          	0x745f3233
 20c:	7700                	ld	s0,40(a4)
 20e:	5f72                	lw	t5,60(sp)
 210:	6176                	ld	sp,344(sp)
 212:	756c                	ld	a1,232(a0)
 214:	0065                	c.nop	25
 216:	6572                	ld	a0,280(sp)
 218:	5f74                	lw	a3,124(a4)
 21a:	6176                	ld	sp,344(sp)
 21c:	756c                	ld	a1,232(a0)
 21e:	0065                	c.nop	25
 220:	20554e47          	fmsub.s	ft8,fa0,ft5,ft4,rmm
 224:	20373143          	fmadd.s	ft2,fa4,ft3,ft4,rup
 228:	3031                	0x3031
 22a:	322e                	fld	ft4,232(sp)
 22c:	302e                	fld	ft0,232(sp)
 22e:	2d20                	fld	fs0,88(a0)
 230:	616d                	addi	sp,sp,240
 232:	6372                	ld	t1,280(sp)
 234:	3d68                	fld	fa0,248(a0)
 236:	7672                	ld	a2,312(sp)
 238:	3436                	fld	fs0,360(sp)
 23a:	2069                	0x2069
 23c:	6d2d                	lui	s10,0xb
 23e:	6261                	lui	tp,0x18
 240:	3d69                	addiw	s10,s10,-6
 242:	706c                	ld	a1,224(s0)
 244:	3436                	fld	fs0,360(sp)
 246:	2d20                	fld	fs0,88(a0)
 248:	746d                	lui	s0,0xffffb
 24a:	6e75                	lui	t3,0x1d
 24c:	3d65                	addiw	s10,s10,-7
 24e:	6f72                	ld	t5,280(sp)
 250:	74656b63          	bltu	a0,t1,9a6 <_start-0x60fff65a>
 254:	2d20                	fld	fs0,88(a0)
 256:	616d                	addi	sp,sp,240
 258:	6372                	ld	t1,280(sp)
 25a:	3d68                	fld	fa0,248(a0)
 25c:	7672                	ld	a2,312(sp)
 25e:	3436                	fld	fs0,360(sp)
 260:	2069                	0x2069
 262:	672d                	lui	a4,0xb
 264:	2d20                	fld	fs0,88(a0)
 266:	2d20734f          	fnmadd.h	ft6,ft0,fs2,ft5
 26a:	6e66                	ld	t3,88(sp)
 26c:	75622d6f          	jal	s10,229c2 <_start-0x60fdd63e>
 270:	6c69                	lui	s8,0x1a
 272:	6974                	ld	a3,208(a0)
 274:	206e                	fld	ft0,216(sp)
 276:	662d                	lui	a2,0xb
 278:	4950                	lw	a2,20(a0)
 27a:	6e690043          	fmadd.q	ft0,fs2,ft6,fa3,rne
 27e:	635f 746e 7400      	0x7400746e635f
 284:	6d69                	lui	s10,0x1a
 286:	6f65                	lui	t5,0x19
 288:	7475                	lui	s0,0xffffd
 28a:	6400                	ld	s0,8(s0)
 28c:	73736377          	0x73736377
 290:	5f69                	li	t5,-6
 292:	74696177          	0x74696177
 296:	665f 616c 6873      	0x6873616c665f
 29c:	695f 6c64 0065      	0x656c64695f
 2a2:	726f6873          	csrrsi	a6,0x726,30
 2a6:	2074                	fld	fa3,192(s0)
 2a8:	6e75                	lui	t3,0x1d
 2aa:	6e676973          	csrrsi	s2,0x6e6,14
 2ae:	6465                	lui	s0,0x19
 2b0:	6920                	ld	s0,80(a0)
 2b2:	746e                	ld	s0,248(sp)
 2b4:	6600                	ld	s0,8(a2)
 2b6:	616c                	ld	a1,192(a0)
 2b8:	695f6873          	csrrsi	a6,0x695,30
 2bc:	666e                	ld	a2,216(sp)
 2be:	756f006f          	j	f0a14 <_start-0x60f0f5ec>
 2c2:	5f74                	lw	a3,124(a4)
 2c4:	00746e63          	bltu	s0,t2,2e0 <_start-0x60fffd20>
 2c8:	63697373          	csrrci	t1,0x636,18
 2cc:	655f 006e 7764      	0x7764006e655f
 2d2:	69737363          	bgeu	t1,s7,958 <_start-0x60fff6a8>
 2d6:	725f 6165 5f64      	0x5f646165725f
 2dc:	6170                	ld	a2,192(a0)
 2de:	64006567          	0x64006567
 2e2:	73736377          	0x73736377
 2e6:	5f69                	li	t5,-6
 2e8:	6e65                	lui	t3,0x19
 2ea:	6261                	lui	tp,0x18
 2ec:	656c                	ld	a1,200(a0)
 2ee:	6400                	ld	s0,8(s0)
 2f0:	73736377          	0x73736377
 2f4:	5f69                	li	t5,-6
 2f6:	666e6f63          	bltu	t3,t1,974 <_start-0x60fff68c>
 2fa:	6769                	lui	a4,0x1a
 2fc:	655f 7065 6f72      	0x6f727065655f
 302:	006d                	c.nop	27
 304:	7764                	ld	s1,232(a4)
 306:	69737363          	bgeu	t1,s7,98c <_start-0x60fff674>
 30a:	735f 7465 625f      	0x625f7465735f
 310:	7469                	lui	s0,0xffffa
 312:	77640073          	0x77640073
 316:	69737363          	bgeu	t1,s7,99c <_start-0x60fff664>
 31a:	745f 5f78 7562      	0x75625f78745f
 320:	0066                	c.slli	zero,0x19
 322:	7764                	ld	s1,232(a4)
 324:	69737363          	bgeu	t1,s7,9aa <_start-0x60fff656>
 328:	645f 7369 6261      	0x62617369645f
 32e:	656c                	ld	a1,200(a0)
 330:	6c00                	ld	s0,24(s0)
 332:	20676e6f          	jal	t3,76538 <_start-0x60f89ac8>
 336:	6f64                	ld	s1,216(a4)
 338:	6275                	lui	tp,0x1d
 33a:	656c                	ld	a1,200(a0)
 33c:	6100                	ld	s0,0(a0)
 33e:	6464                	ld	s1,200(s0)
 340:	6572                	ld	a0,280(sp)
 342:	64007373          	csrrci	t1,0x640,0
 346:	73736377          	0x73736377
 34a:	5f69                	li	t5,-6
 34c:	666e6f63          	bltu	t3,t1,9ca <_start-0x60fff636>
 350:	6769                	lui	a4,0x1a
 352:	435f 5254 524c      	0x524c5254435f
 358:	0030                	addi	a2,sp,8
 35a:	7271                	lui	tp,0xffffc
 35c:	6165                	addi	sp,sp,112
 35e:	5f64                	lw	s1,124(a4)
 360:	00646d63          	bltu	s0,t1,37a <_start-0x60fffc86>
 364:	7764                	ld	s1,232(a4)
 366:	69737363          	bgeu	t1,s7,9ec <_start-0x60fff614>
 36a:	635f 6e6f 6966      	0x69666e6f635f
 370:	58525f67          	0x58525f67
 374:	5446                	lw	s0,112(sp)
 376:	524c                	lw	a1,36(a2)
 378:	6200                	ld	s0,0(a2)
 37a:	7469                	lui	s0,0xffffa
 37c:	616d                	addi	sp,sp,240
 37e:	64006b73          	csrrsi	s6,0x640,0
 382:	73736377          	0x73736377
 386:	5f69                	li	t5,-6
 388:	6c66                	ld	s8,88(sp)
 38a:	7361                	lui	t1,0xffff8
 38c:	5f68                	lw	a0,124(a4)
 38e:	655f7277          	0x655f7277
 392:	006e                	c.slli	zero,0x1b
 394:	6e75                	lui	t3,0x1d
 396:	6e676973          	csrrsi	s2,0x6e6,14
 39a:	6465                	lui	s0,0x19
 39c:	6320                	ld	s0,64(a4)
 39e:	6168                	ld	a0,192(a0)
 3a0:	0072                	c.slli	zero,0x1c
 3a2:	6966                	ld	s2,88(sp)
 3a4:	6f66                	ld	t5,88(sp)
 3a6:	6e5f 746f 665f      	0x665f746f6e5f
 3ac:	6c75                	lui	s8,0x1d
 3ae:	006c                	addi	a1,sp,12
 3b0:	726f6873          	csrrsi	a6,0x726,30
 3b4:	2074                	fld	fa3,192(s0)
 3b6:	6e69                	lui	t3,0x1a
 3b8:	0074                	addi	a3,sp,12
 3ba:	7764                	ld	s1,232(a4)
 3bc:	69737363          	bgeu	t1,s7,a42 <_start-0x60fff5be>
 3c0:	635f 6e6f 6966      	0x69666e6f635f
 3c6:	54435f67          	0x54435f67
 3ca:	4c52                	lw	s8,20(sp)
 3cc:	3152                	fld	ft2,304(sp)
 3ce:	7300                	ld	s0,32(a4)
 3d0:	6970                	ld	a2,208(a0)
 3d2:	6c727463          	bgeu	tp,t2,a9a <_start-0x60fff566>
 3d6:	6400                	ld	s0,8(s0)
 3d8:	73736377          	0x73736377
 3dc:	5f69                	li	t5,-6
 3de:	7874                	ld	a3,240(s0)
 3e0:	775f6d77          	0x775f6d77
 3e4:	6961                	lui	s2,0x18
 3e6:	0074                	addi	a3,sp,12
 3e8:	6c727463          	bgeu	tp,t2,ab0 <_start-0x60fff550>
 3ec:	625f 7361 0065      	0x657361625f
 3f2:	5f697073          	csrci	0x5f6,18
 3f6:	6572                	ld	a0,280(sp)
 3f8:	0066                	c.slli	zero,0x19
 3fa:	6e69                	lui	t3,0x1a
 3fc:	6564                	ld	s1,200(a0)
 3fe:	0078                	addi	a4,sp,12
 400:	7366666f          	jal	a2,66b36 <_start-0x60f994ca>
 404:	7465                	lui	s0,0xffff9
 406:	6400                	ld	s0,8(s0)
 408:	73736377          	0x73736377
 40c:	5f69                	li	t5,-6
 40e:	7872                	ld	a6,312(sp)
 410:	7200                	ld	s0,32(a2)
 412:	5f78                	lw	a4,124(a4)
 414:	656c                	ld	a1,200(a0)
 416:	006e                	c.slli	zero,0x1b
 418:	7764                	ld	s1,232(a4)
 41a:	69737363          	bgeu	t1,s7,aa0 <_start-0x60fff560>
 41e:	675f 7465 625f      	0x625f7465675f
 424:	7469                	lui	s0,0xffffa
 426:	756f0073          	0x756f0073
 42a:	5f74                	lw	a3,124(a4)
 42c:	7562                	ld	a0,56(sp)
 42e:	0066                	c.slli	zero,0x19
 430:	7764                	ld	s1,232(a4)
 432:	69737363          	bgeu	t1,s7,ab8 <_start-0x60fff548>
 436:	635f 6e6f 6966      	0x69666e6f635f
 43c:	78725f67          	0x78725f67
 440:	6400                	ld	s0,8(s0)
 442:	73736377          	0x73736377
 446:	5f69                	li	t5,-6
 448:	74697277          	0x74697277
 44c:	5f65                	li	t5,-7
 44e:	7562                	ld	a0,56(sp)
 450:	6666                	ld	a2,88(sp)
 452:	7265                	lui	tp,0xffff9
 454:	6400                	ld	s0,8(s0)
 456:	73736377          	0x73736377
 45a:	5f69                	li	t5,-6
 45c:	7872                	ld	a6,312(sp)
 45e:	625f 6675 7200      	0x72006675625f
 464:	7365                	lui	t1,0xffff9
 466:	6c75                	lui	s8,0x1d
 468:	0074                	addi	a3,sp,12
 46a:	5f5f 6e69 3374      	0x33746e695f5f
 470:	5f32                	lw	t5,44(sp)
 472:	0074                	addi	a3,sp,12
 474:	3a44                	fld	fs1,176(a2)
 476:	726f772f          	0x726f772f
 47a:	30322f6b          	0x30322f6b
 47e:	3232                	fld	ft4,296(sp)
 480:	396c612f          	0x396c612f
 484:	3030                	fld	fa2,96(s0)
 486:	2f30                	fld	fa2,88(a4)
 488:	642f7773          	csrrci	a4,0x642,30
 48c:	6265                	lui	tp,0x19
 48e:	6775                	lui	a4,0x1d
 490:	2f726567          	0x2f726567
 494:	6c61                	lui	s8,0x18
 496:	6f5f 6570 6f6e      	0x6f6e65706f5f
 49c:	632f6463          	bltu	t5,s2,ac4 <_start-0x60fff53c>
 4a0:	72746e6f          	jal	t3,473c6 <_start-0x60fb8c3a>
 4a4:	6269                	lui	tp,0x1a
 4a6:	616f6c2f          	0x616f6c2f
 4aa:	6564                	ld	s1,200(a0)
 4ac:	7372                	ld	t1,312(sp)
 4ae:	616c662f          	0x616c662f
 4b2:	712f6873          	csrrsi	a6,0x712,30
 4b6:	2f697073          	csrci	0x2f6,18
 4ba:	7764                	ld	s1,232(a4)
 4bc:	69737363          	bgeu	t1,s7,b42 <_start-0x60fff4be>
 4c0:	6372732f          	0x6372732f
 4c4:	6377642f          	0x6377642f
 4c8:	5f697373          	csrrci	t1,0x5f6,18
 4cc:	7361                	lui	t1,0xffff8
 4ce:	6e79                	lui	t3,0x1e
 4d0:	00632e63          	0x632e63
 4d4:	5f727563          	bgeu	tp,s7,abe <_start-0x60fff542>
 4d8:	6e756f63          	bltu	a0,t2,bd6 <_start-0x60fff42a>
 4dc:	0074                	addi	a3,sp,12
 4de:	7562                	ld	a0,56(sp)
 4e0:	5f66                	lw	t5,120(sp)
 4e2:	6e65                	lui	t3,0x19
 4e4:	0064                	addi	s1,sp,12
 4e6:	7071                	c.lui	zero,0xffffc
 4e8:	6f72                	ld	t5,280(sp)
 4ea:	6d635f67          	0x6d635f67
 4ee:	0064                	addi	s1,sp,12
 4f0:	6c66                	ld	s8,88(sp)
 4f2:	7361                	lui	t1,0xffff8
 4f4:	5f68                	lw	a0,124(a4)
 4f6:	7764                	ld	s1,232(a4)
 4f8:	69737363          	bgeu	t1,s7,b7e <_start-0x60fff482>
 4fc:	7000                	ld	s0,32(s0)
 4fe:	6761                	lui	a4,0x18
 500:	5f65                	li	t5,-7
 502:	657a6973          	csrrsi	s2,0x657,20
 506:	6200                	ld	s0,0(a2)
 508:	6675                	lui	a2,0x1d
 50a:	735f 6174 7472      	0x74726174735f
	...

Disassembly of section .debug_loc:

0000000000000000 <.debug_loc>:
       0:	066c                	addi	a1,sp,780
       2:	0000                	unimp
       4:	0000                	unimp
       6:	0000                	unimp
       8:	069f 0000 0000      	0x69f
       e:	0000                	unimp
      10:	0001                	nop
      12:	9f5a                	add	t5,t5,s6
      14:	0006                	c.slli	zero,0x1
      16:	0000                	unimp
      18:	0000                	unimp
      1a:	ec00                	sd	s0,24(s0)
      1c:	0006                	c.slli	zero,0x1
      1e:	0000                	unimp
      20:	0000                	unimp
      22:	0100                	addi	s0,sp,128
      24:	5800                	lw	s0,48(s0)
      26:	06ec                	addi	a1,sp,844
      28:	0000                	unimp
      2a:	0000                	unimp
      2c:	0000                	unimp
      2e:	0708                	addi	a0,sp,896
      30:	0000                	unimp
      32:	0000                	unimp
      34:	0000                	unimp
      36:	0004                	0x4
      38:	9f5a01f3          	0x9f5a01f3
	...
      4c:	066c                	addi	a1,sp,780
      4e:	0000                	unimp
      50:	0000                	unimp
      52:	0000                	unimp
      54:	069f 0000 0000      	0x69f
      5a:	0000                	unimp
      5c:	0001                	nop
      5e:	00069f5b          	0x69f5b
      62:	0000                	unimp
      64:	0000                	unimp
      66:	f400                	sd	s0,40(s0)
      68:	0006                	c.slli	zero,0x1
      6a:	0000                	unimp
      6c:	0000                	unimp
      6e:	0100                	addi	s0,sp,128
      70:	6200                	ld	s0,0(a2)
      72:	06f4                	addi	a3,sp,844
      74:	0000                	unimp
      76:	0000                	unimp
      78:	0000                	unimp
      7a:	0708                	addi	a0,sp,896
      7c:	0000                	unimp
      7e:	0000                	unimp
      80:	0000                	unimp
      82:	0004                	0x4
      84:	9f5b01f3          	0x9f5b01f3
	...
      98:	066c                	addi	a1,sp,780
      9a:	0000                	unimp
      9c:	0000                	unimp
      9e:	0000                	unimp
      a0:	069f 0000 0000      	0x69f
      a6:	0000                	unimp
      a8:	0001                	nop
      aa:	9f5c                	0x9f5c
      ac:	0006                	c.slli	zero,0x1
      ae:	0000                	unimp
      b0:	0000                	unimp
      b2:	0800                	addi	s0,sp,16
      b4:	00000007          	vle8.v	v0,(zero),v0.t
      b8:	0000                	unimp
      ba:	0400                	addi	s0,sp,512
      bc:	f300                	sd	s0,32(a4)
      be:	5c01                	li	s8,-32
      c0:	009f 0000 0000      	0x9f
	...
      ce:	0000                	unimp
      d0:	6c00                	ld	s0,24(s0)
      d2:	0006                	c.slli	zero,0x1
      d4:	0000                	unimp
      d6:	0000                	unimp
      d8:	9f00                	0x9f00
      da:	0006                	c.slli	zero,0x1
      dc:	0000                	unimp
      de:	0000                	unimp
      e0:	0100                	addi	s0,sp,128
      e2:	5d00                	lw	s0,56(a0)
      e4:	069f 0000 0000      	0x69f
      ea:	0000                	unimp
      ec:	0708                	addi	a0,sp,896
      ee:	0000                	unimp
      f0:	0000                	unimp
      f2:	0000                	unimp
      f4:	0004                	0x4
      f6:	9f5d01f3          	0x9f5d01f3
	...
     10a:	066c                	addi	a1,sp,780
     10c:	0000                	unimp
     10e:	0000                	unimp
     110:	0000                	unimp
     112:	069f 0000 0000      	0x69f
     118:	0000                	unimp
     11a:	0001                	nop
     11c:	9f5e                	add	t5,t5,s7
     11e:	0006                	c.slli	zero,0x1
     120:	0000                	unimp
     122:	0000                	unimp
     124:	0800                	addi	s0,sp,16
     126:	00000007          	vle8.v	v0,(zero),v0.t
     12a:	0000                	unimp
     12c:	0400                	addi	s0,sp,512
     12e:	f300                	sd	s0,32(a4)
     130:	5e01                	li	t3,-32
     132:	009f 0000 0000      	0x9f
	...
     140:	0000                	unimp
     142:	cc00                	sw	s0,24(s0)
     144:	0005                	c.nop	1
     146:	0000                	unimp
     148:	0000                	unimp
     14a:	0700                	addi	s0,sp,896
     14c:	0006                	c.slli	zero,0x1
     14e:	0000                	unimp
     150:	0000                	unimp
     152:	0100                	addi	s0,sp,128
     154:	5a00                	lw	s0,48(a2)
     156:	00000607          	vle8.v	v12,(zero),v0.t
     15a:	0000                	unimp
     15c:	0000                	unimp
     15e:	0650                	addi	a2,sp,772
     160:	0000                	unimp
     162:	0000                	unimp
     164:	0000                	unimp
     166:	0001                	nop
     168:	5058                	lw	a4,36(s0)
     16a:	0006                	c.slli	zero,0x1
     16c:	0000                	unimp
     16e:	0000                	unimp
     170:	6b00                	ld	s0,16(a4)
     172:	0006                	c.slli	zero,0x1
     174:	0000                	unimp
     176:	0000                	unimp
     178:	0100                	addi	s0,sp,128
     17a:	5a00                	lw	s0,48(a2)
     17c:	0000066b          	0x66b
     180:	0000                	unimp
     182:	0000                	unimp
     184:	066c                	addi	a1,sp,780
     186:	0000                	unimp
     188:	0000                	unimp
     18a:	0000                	unimp
     18c:	0004                	0x4
     18e:	9f5a01f3          	0x9f5a01f3
	...
     1a2:	05cc                	addi	a1,sp,708
     1a4:	0000                	unimp
     1a6:	0000                	unimp
     1a8:	0000                	unimp
     1aa:	05dc                	addi	a5,sp,708
     1ac:	0000                	unimp
     1ae:	0000                	unimp
     1b0:	0000                	unimp
     1b2:	0001                	nop
     1b4:	0005dc5b          	0x5dc5b
     1b8:	0000                	unimp
     1ba:	0000                	unimp
     1bc:	5c00                	lw	s0,56(s0)
     1be:	0006                	c.slli	zero,0x1
     1c0:	0000                	unimp
     1c2:	0000                	unimp
     1c4:	0100                	addi	s0,sp,128
     1c6:	6200                	ld	s0,0(a2)
     1c8:	065c                	addi	a5,sp,772
     1ca:	0000                	unimp
     1cc:	0000                	unimp
     1ce:	0000                	unimp
     1d0:	066c                	addi	a1,sp,780
     1d2:	0000                	unimp
     1d4:	0000                	unimp
     1d6:	0000                	unimp
     1d8:	0004                	0x4
     1da:	9f5b01f3          	0x9f5b01f3
	...
     1ee:	05cc                	addi	a1,sp,708
     1f0:	0000                	unimp
     1f2:	0000                	unimp
     1f4:	0000                	unimp
     1f6:	00000607          	vle8.v	v12,(zero),v0.t
     1fa:	0000                	unimp
     1fc:	0000                	unimp
     1fe:	0001                	nop
     200:	075c                	addi	a5,sp,900
     202:	0006                	c.slli	zero,0x1
     204:	0000                	unimp
     206:	0000                	unimp
     208:	6c00                	ld	s0,24(s0)
     20a:	0006                	c.slli	zero,0x1
     20c:	0000                	unimp
     20e:	0000                	unimp
     210:	0400                	addi	s0,sp,512
     212:	f300                	sd	s0,32(a4)
     214:	5c01                	li	s8,-32
     216:	009f 0000 0000      	0x9f
	...
     224:	0000                	unimp
     226:	cc00                	sw	s0,24(s0)
     228:	0005                	c.nop	1
     22a:	0000                	unimp
     22c:	0000                	unimp
     22e:	0700                	addi	s0,sp,896
     230:	0006                	c.slli	zero,0x1
     232:	0000                	unimp
     234:	0000                	unimp
     236:	0100                	addi	s0,sp,128
     238:	5d00                	lw	s0,56(a0)
     23a:	00000607          	vle8.v	v12,(zero),v0.t
     23e:	0000                	unimp
     240:	0000                	unimp
     242:	066c                	addi	a1,sp,780
     244:	0000                	unimp
     246:	0000                	unimp
     248:	0000                	unimp
     24a:	0004                	0x4
     24c:	9f5d01f3          	0x9f5d01f3
	...
     260:	05cc                	addi	a1,sp,708
     262:	0000                	unimp
     264:	0000                	unimp
     266:	0000                	unimp
     268:	00000607          	vle8.v	v12,(zero),v0.t
     26c:	0000                	unimp
     26e:	0000                	unimp
     270:	0001                	nop
     272:	075e                	slli	a4,a4,0x17
     274:	0006                	c.slli	zero,0x1
     276:	0000                	unimp
     278:	0000                	unimp
     27a:	6c00                	ld	s0,24(s0)
     27c:	0006                	c.slli	zero,0x1
     27e:	0000                	unimp
     280:	0000                	unimp
     282:	0400                	addi	s0,sp,512
     284:	f300                	sd	s0,32(a4)
     286:	5e01                	li	t3,-32
     288:	009f 0000 0000      	0x9f
	...
     296:	0000                	unimp
     298:	cc00                	sw	s0,24(s0)
     29a:	0005                	c.nop	1
     29c:	0000                	unimp
     29e:	0000                	unimp
     2a0:	0700                	addi	s0,sp,896
     2a2:	0006                	c.slli	zero,0x1
     2a4:	0000                	unimp
     2a6:	0000                	unimp
     2a8:	0100                	addi	s0,sp,128
     2aa:	5f00                	lw	s0,56(a4)
     2ac:	00000607          	vle8.v	v12,(zero),v0.t
     2b0:	0000                	unimp
     2b2:	0000                	unimp
     2b4:	066c                	addi	a1,sp,780
     2b6:	0000                	unimp
     2b8:	0000                	unimp
     2ba:	0000                	unimp
     2bc:	0004                	0x4
     2be:	9f5f01f3          	0x9f5f01f3
	...
     2d2:	0584                	addi	s1,sp,704
     2d4:	0000                	unimp
     2d6:	0000                	unimp
     2d8:	0000                	unimp
     2da:	000005a3          	sb	zero,11(zero) # b <_start-0x60fffff5>
     2de:	0000                	unimp
     2e0:	0000                	unimp
     2e2:	0001                	nop
     2e4:	a35a                	fsd	fs6,384(sp)
     2e6:	0005                	c.nop	1
     2e8:	0000                	unimp
     2ea:	0000                	unimp
     2ec:	c000                	sw	s0,0(s0)
     2ee:	0005                	c.nop	1
     2f0:	0000                	unimp
     2f2:	0000                	unimp
     2f4:	0100                	addi	s0,sp,128
     2f6:	5800                	lw	s0,48(s0)
     2f8:	05c0                	addi	s0,sp,708
     2fa:	0000                	unimp
     2fc:	0000                	unimp
     2fe:	0000                	unimp
     300:	05cc                	addi	a1,sp,708
     302:	0000                	unimp
     304:	0000                	unimp
     306:	0000                	unimp
     308:	0004                	0x4
     30a:	9f5a01f3          	0x9f5a01f3
	...
     31e:	0584                	addi	s1,sp,704
     320:	0000                	unimp
     322:	0000                	unimp
     324:	0000                	unimp
     326:	000005a3          	sb	zero,11(zero) # b <_start-0x60fffff5>
     32a:	0000                	unimp
     32c:	0000                	unimp
     32e:	0001                	nop
     330:	0005a35b          	0x5a35b
     334:	0000                	unimp
     336:	0000                	unimp
     338:	cc00                	sw	s0,24(s0)
     33a:	0005                	c.nop	1
     33c:	0000                	unimp
     33e:	0000                	unimp
     340:	0400                	addi	s0,sp,512
     342:	f300                	sd	s0,32(a4)
     344:	5b01                	li	s6,-32
     346:	009f 0000 0000      	0x9f
	...
     354:	0000                	unimp
     356:	0400                	addi	s0,sp,512
     358:	0005                	c.nop	1
     35a:	0000                	unimp
     35c:	0000                	unimp
     35e:	2300                	fld	fs0,0(a4)
     360:	0005                	c.nop	1
     362:	0000                	unimp
     364:	0000                	unimp
     366:	0100                	addi	s0,sp,128
     368:	5a00                	lw	s0,48(a2)
     36a:	00000523          	sb	zero,10(zero) # a <_start-0x60fffff6>
     36e:	0000                	unimp
     370:	0000                	unimp
     372:	0544                	addi	s1,sp,644
     374:	0000                	unimp
     376:	0000                	unimp
     378:	0000                	unimp
     37a:	0001                	nop
     37c:	4458                	lw	a4,12(s0)
     37e:	0005                	c.nop	1
     380:	0000                	unimp
     382:	0000                	unimp
     384:	5000                	lw	s0,32(s0)
     386:	0005                	c.nop	1
     388:	0000                	unimp
     38a:	0000                	unimp
     38c:	0400                	addi	s0,sp,512
     38e:	f300                	sd	s0,32(a4)
     390:	5a01                	li	s4,-32
     392:	509f 0005 0000      	0x5509f
     398:	0000                	unimp
     39a:	8400                	0x8400
     39c:	0005                	c.nop	1
     39e:	0000                	unimp
     3a0:	0000                	unimp
     3a2:	0100                	addi	s0,sp,128
     3a4:	5800                	lw	s0,48(s0)
	...
     3b6:	0534                	addi	a3,sp,648
     3b8:	0000                	unimp
     3ba:	0000                	unimp
     3bc:	0000                	unimp
     3be:	053c                	addi	a5,sp,648
     3c0:	0000                	unimp
     3c2:	0000                	unimp
     3c4:	0000                	unimp
     3c6:	0001                	nop
     3c8:	505a                	0x505a
     3ca:	0005                	c.nop	1
     3cc:	0000                	unimp
     3ce:	0000                	unimp
     3d0:	5400                	lw	s0,40(s0)
     3d2:	0005                	c.nop	1
     3d4:	0000                	unimp
     3d6:	0000                	unimp
     3d8:	0100                	addi	s0,sp,128
     3da:	5a00                	lw	s0,48(a2)
	...
     3ec:	0498                	addi	a4,sp,576
     3ee:	0000                	unimp
     3f0:	0000                	unimp
     3f2:	0000                	unimp
     3f4:	04c0                	addi	s0,sp,580
     3f6:	0000                	unimp
     3f8:	0000                	unimp
     3fa:	0000                	unimp
     3fc:	0001                	nop
     3fe:	c05a                	sw	s6,0(sp)
     400:	0004                	0x4
     402:	0000                	unimp
     404:	0000                	unimp
     406:	d400                	sw	s0,40(s0)
     408:	0004                	0x4
     40a:	0000                	unimp
     40c:	0000                	unimp
     40e:	0100                	addi	s0,sp,128
     410:	6200                	ld	s0,0(a2)
     412:	04d4                	addi	a3,sp,580
     414:	0000                	unimp
     416:	0000                	unimp
     418:	0000                	unimp
     41a:	04e4                	addi	s1,sp,588
     41c:	0000                	unimp
     41e:	0000                	unimp
     420:	0000                	unimp
     422:	0004                	0x4
     424:	9f5a01f3          	0x9f5a01f3
     428:	04e4                	addi	s1,sp,588
     42a:	0000                	unimp
     42c:	0000                	unimp
     42e:	0000                	unimp
     430:	0504                	addi	s1,sp,640
     432:	0000                	unimp
     434:	0000                	unimp
     436:	0000                	unimp
     438:	0001                	nop
     43a:	0062                	c.slli	zero,0x18
	...
     448:	0000                	unimp
     44a:	9800                	0x9800
     44c:	0004                	0x4
     44e:	0000                	unimp
     450:	0000                	unimp
     452:	c000                	sw	s0,0(s0)
     454:	0004                	0x4
     456:	0000                	unimp
     458:	0000                	unimp
     45a:	0100                	addi	s0,sp,128
     45c:	5b00                	lw	s0,48(a4)
     45e:	04c0                	addi	s0,sp,580
     460:	0000                	unimp
     462:	0000                	unimp
     464:	0000                	unimp
     466:	04d8                	addi	a4,sp,580
     468:	0000                	unimp
     46a:	0000                	unimp
     46c:	0000                	unimp
     46e:	0001                	nop
     470:	0004d863          	bgez	s1,480 <_start-0x60fffb80>
     474:	0000                	unimp
     476:	0000                	unimp
     478:	e400                	sd	s0,8(s0)
     47a:	0004                	0x4
     47c:	0000                	unimp
     47e:	0000                	unimp
     480:	0400                	addi	s0,sp,512
     482:	f300                	sd	s0,32(a4)
     484:	5b01                	li	s6,-32
     486:	e49f 0004 0000      	0x4e49f
     48c:	0000                	unimp
     48e:	0400                	addi	s0,sp,512
     490:	0005                	c.nop	1
     492:	0000                	unimp
     494:	0000                	unimp
     496:	0100                	addi	s0,sp,128
     498:	6300                	ld	s0,0(a4)
	...
     4aa:	0498                	addi	a4,sp,576
     4ac:	0000                	unimp
     4ae:	0000                	unimp
     4b0:	0000                	unimp
     4b2:	04c0                	addi	s0,sp,580
     4b4:	0000                	unimp
     4b6:	0000                	unimp
     4b8:	0000                	unimp
     4ba:	0001                	nop
     4bc:	c05c                	sw	a5,4(s0)
     4be:	0004                	0x4
     4c0:	0000                	unimp
     4c2:	0000                	unimp
     4c4:	0400                	addi	s0,sp,512
     4c6:	0005                	c.nop	1
     4c8:	0000                	unimp
     4ca:	0000                	unimp
     4cc:	0400                	addi	s0,sp,512
     4ce:	f300                	sd	s0,32(a4)
     4d0:	5c01                	li	s8,-32
     4d2:	009f 0000 0000      	0x9f
	...
     4e0:	0000                	unimp
     4e2:	9800                	0x9800
     4e4:	0004                	0x4
     4e6:	0000                	unimp
     4e8:	0000                	unimp
     4ea:	c000                	sw	s0,0(s0)
     4ec:	0004                	0x4
     4ee:	0000                	unimp
     4f0:	0000                	unimp
     4f2:	0200                	addi	s0,sp,256
     4f4:	3000                	fld	fs0,32(s0)
     4f6:	c09f 0004 0000      	0x4c09f
     4fc:	0000                	unimp
     4fe:	cc00                	sw	s0,24(s0)
     500:	0004                	0x4
     502:	0000                	unimp
     504:	0000                	unimp
     506:	0100                	addi	s0,sp,128
     508:	5800                	lw	s0,48(s0)
     50a:	04e4                	addi	s1,sp,588
     50c:	0000                	unimp
     50e:	0000                	unimp
     510:	0000                	unimp
     512:	0500                	addi	s0,sp,640
     514:	0000                	unimp
     516:	0000                	unimp
     518:	0000                	unimp
     51a:	0001                	nop
     51c:	0058                	addi	a4,sp,4
	...
     52a:	0000                	unimp
     52c:	3c00                	fld	fs0,56(s0)
     52e:	0004                	0x4
     530:	0000                	unimp
     532:	0000                	unimp
     534:	6300                	ld	s0,0(a4)
     536:	0004                	0x4
     538:	0000                	unimp
     53a:	0000                	unimp
     53c:	0100                	addi	s0,sp,128
     53e:	5a00                	lw	s0,48(a2)
     540:	00000463          	beqz	zero,548 <_start-0x60fffab8>
     544:	0000                	unimp
     546:	0000                	unimp
     548:	0488                	addi	a0,sp,576
     54a:	0000                	unimp
     54c:	0000                	unimp
     54e:	0000                	unimp
     550:	0001                	nop
     552:	8859                	andi	s0,s0,22
     554:	0004                	0x4
     556:	0000                	unimp
     558:	0000                	unimp
     55a:	9000                	0x9000
     55c:	0004                	0x4
     55e:	0000                	unimp
     560:	0000                	unimp
     562:	0400                	addi	s0,sp,512
     564:	f300                	sd	s0,32(a4)
     566:	5a01                	li	s4,-32
     568:	909f 0004 0000      	0x4909f
     56e:	0000                	unimp
     570:	9800                	0x9800
     572:	0004                	0x4
     574:	0000                	unimp
     576:	0000                	unimp
     578:	0100                	addi	s0,sp,128
     57a:	5900                	lw	s0,48(a0)
	...
     58c:	043c                	addi	a5,sp,520
     58e:	0000                	unimp
     590:	0000                	unimp
     592:	0000                	unimp
     594:	0454                	addi	a3,sp,516
     596:	0000                	unimp
     598:	0000                	unimp
     59a:	0000                	unimp
     59c:	0001                	nop
     59e:	0004545b          	0x4545b
     5a2:	0000                	unimp
     5a4:	0000                	unimp
     5a6:	8400                	0x8400
     5a8:	0004                	0x4
     5aa:	0000                	unimp
     5ac:	0000                	unimp
     5ae:	0100                	addi	s0,sp,128
     5b0:	5800                	lw	s0,48(s0)
     5b2:	0484                	addi	s1,sp,576
     5b4:	0000                	unimp
     5b6:	0000                	unimp
     5b8:	0000                	unimp
     5ba:	0490                	addi	a2,sp,576
     5bc:	0000                	unimp
     5be:	0000                	unimp
     5c0:	0000                	unimp
     5c2:	0004                	0x4
     5c4:	9f5b01f3          	0x9f5b01f3
     5c8:	0490                	addi	a2,sp,576
     5ca:	0000                	unimp
     5cc:	0000                	unimp
     5ce:	0000                	unimp
     5d0:	0498                	addi	a4,sp,576
     5d2:	0000                	unimp
     5d4:	0000                	unimp
     5d6:	0000                	unimp
     5d8:	0001                	nop
     5da:	0058                	addi	a4,sp,4
	...
     5e8:	0000                	unimp
     5ea:	7400                	ld	s0,40(s0)
     5ec:	0004                	0x4
     5ee:	0000                	unimp
     5f0:	0000                	unimp
     5f2:	7c00                	ld	s0,56(s0)
     5f4:	0004                	0x4
     5f6:	0000                	unimp
     5f8:	0000                	unimp
     5fa:	0100                	addi	s0,sp,128
     5fc:	5f00                	lw	s0,56(a4)
	...
     60e:	0414                	addi	a3,sp,512
     610:	0000                	unimp
     612:	0000                	unimp
     614:	0000                	unimp
     616:	00000427          	vse8.v	v8,(zero),v0.t
     61a:	0000                	unimp
     61c:	0000                	unimp
     61e:	0001                	nop
     620:	275a                	fld	fa4,400(sp)
     622:	0004                	0x4
     624:	0000                	unimp
     626:	0000                	unimp
     628:	3000                	fld	fs0,32(s0)
     62a:	0004                	0x4
     62c:	0000                	unimp
     62e:	0000                	unimp
     630:	0100                	addi	s0,sp,128
     632:	5800                	lw	s0,48(s0)
     634:	0430                	addi	a2,sp,520
     636:	0000                	unimp
     638:	0000                	unimp
     63a:	0000                	unimp
     63c:	0000043b          	addw	s0,zero,zero
     640:	0000                	unimp
     642:	0000                	unimp
     644:	0001                	nop
     646:	3b5a                	fld	fs6,432(sp)
     648:	0004                	0x4
     64a:	0000                	unimp
     64c:	0000                	unimp
     64e:	3c00                	fld	fs0,56(s0)
     650:	0004                	0x4
     652:	0000                	unimp
     654:	0000                	unimp
     656:	0400                	addi	s0,sp,512
     658:	f300                	sd	s0,32(a4)
     65a:	5a01                	li	s4,-32
     65c:	009f 0000 0000      	0x9f
	...
     66a:	0000                	unimp
     66c:	1400                	addi	s0,sp,544
     66e:	0004                	0x4
     670:	0000                	unimp
     672:	0000                	unimp
     674:	2700                	fld	fs0,8(a4)
     676:	0004                	0x4
     678:	0000                	unimp
     67a:	0000                	unimp
     67c:	0100                	addi	s0,sp,128
     67e:	5b00                	lw	s0,48(a4)
     680:	00000427          	vse8.v	v8,(zero),v0.t
     684:	0000                	unimp
     686:	0000                	unimp
     688:	043c                	addi	a5,sp,520
     68a:	0000                	unimp
     68c:	0000                	unimp
     68e:	0000                	unimp
     690:	0004                	0x4
     692:	9f5b01f3          	0x9f5b01f3
	...
     6a6:	0414                	addi	a3,sp,512
     6a8:	0000                	unimp
     6aa:	0000                	unimp
     6ac:	0000                	unimp
     6ae:	00000427          	vse8.v	v8,(zero),v0.t
     6b2:	0000                	unimp
     6b4:	0000                	unimp
     6b6:	0001                	nop
     6b8:	275c                	fld	fa5,136(a4)
     6ba:	0004                	0x4
     6bc:	0000                	unimp
     6be:	0000                	unimp
     6c0:	3c00                	fld	fs0,56(s0)
     6c2:	0004                	0x4
     6c4:	0000                	unimp
     6c6:	0000                	unimp
     6c8:	0400                	addi	s0,sp,512
     6ca:	f300                	sd	s0,32(a4)
     6cc:	5c01                	li	s8,-32
     6ce:	009f 0000 0000      	0x9f
	...
     6dc:	0000                	unimp
     6de:	ac00                	fsd	fs0,24(s0)
     6e0:	00000003          	lb	zero,0(zero) # 0 <_start-0x61000000>
     6e4:	0000                	unimp
     6e6:	d400                	sw	s0,40(s0)
     6e8:	00000003          	lb	zero,0(zero) # 0 <_start-0x61000000>
     6ec:	0000                	unimp
     6ee:	0100                	addi	s0,sp,128
     6f0:	5a00                	lw	s0,48(a2)
     6f2:	03d4                	addi	a3,sp,452
     6f4:	0000                	unimp
     6f6:	0000                	unimp
     6f8:	0000                	unimp
     6fa:	03ec                	addi	a1,sp,460
     6fc:	0000                	unimp
     6fe:	0000                	unimp
     700:	0000                	unimp
     702:	0001                	nop
     704:	ec62                	sd	s8,24(sp)
     706:	00000003          	lb	zero,0(zero) # 0 <_start-0x61000000>
     70a:	0000                	unimp
     70c:	fc00                	sd	s0,56(s0)
     70e:	00000003          	lb	zero,0(zero) # 0 <_start-0x61000000>
     712:	0000                	unimp
     714:	0400                	addi	s0,sp,512
     716:	f300                	sd	s0,32(a4)
     718:	5a01                	li	s4,-32
     71a:	fc9f 0003 0000      	0x3fc9f
     720:	0000                	unimp
     722:	1400                	addi	s0,sp,544
     724:	0004                	0x4
     726:	0000                	unimp
     728:	0000                	unimp
     72a:	0100                	addi	s0,sp,128
     72c:	6200                	ld	s0,0(a2)
	...
     73e:	03ac                	addi	a1,sp,456
     740:	0000                	unimp
     742:	0000                	unimp
     744:	0000                	unimp
     746:	03d4                	addi	a3,sp,452
     748:	0000                	unimp
     74a:	0000                	unimp
     74c:	0000                	unimp
     74e:	0001                	nop
     750:	0003d45b          	0x3d45b
     754:	0000                	unimp
     756:	0000                	unimp
     758:	f000                	sd	s0,32(s0)
     75a:	00000003          	lb	zero,0(zero) # 0 <_start-0x61000000>
     75e:	0000                	unimp
     760:	0100                	addi	s0,sp,128
     762:	6300                	ld	s0,0(a4)
     764:	03f0                	addi	a2,sp,460
     766:	0000                	unimp
     768:	0000                	unimp
     76a:	0000                	unimp
     76c:	03fc                	addi	a5,sp,460
     76e:	0000                	unimp
     770:	0000                	unimp
     772:	0000                	unimp
     774:	0004                	0x4
     776:	9f5b01f3          	0x9f5b01f3
     77a:	03fc                	addi	a5,sp,460
     77c:	0000                	unimp
     77e:	0000                	unimp
     780:	0000                	unimp
     782:	0414                	addi	a3,sp,512
     784:	0000                	unimp
     786:	0000                	unimp
     788:	0000                	unimp
     78a:	0001                	nop
     78c:	00000063          	beqz	zero,78c <_start-0x60fff874>
	...
     79c:	ac00                	fsd	fs0,24(s0)
     79e:	00000003          	lb	zero,0(zero) # 0 <_start-0x61000000>
     7a2:	0000                	unimp
     7a4:	d400                	sw	s0,40(s0)
     7a6:	00000003          	lb	zero,0(zero) # 0 <_start-0x61000000>
     7aa:	0000                	unimp
     7ac:	0100                	addi	s0,sp,128
     7ae:	5c00                	lw	s0,56(s0)
     7b0:	03d4                	addi	a3,sp,452
     7b2:	0000                	unimp
     7b4:	0000                	unimp
     7b6:	0000                	unimp
     7b8:	0414                	addi	a3,sp,512
     7ba:	0000                	unimp
     7bc:	0000                	unimp
     7be:	0000                	unimp
     7c0:	0004                	0x4
     7c2:	9f5c01f3          	0x9f5c01f3
	...
     7d6:	03ac                	addi	a1,sp,456
     7d8:	0000                	unimp
     7da:	0000                	unimp
     7dc:	0000                	unimp
     7de:	03d4                	addi	a3,sp,452
     7e0:	0000                	unimp
     7e2:	0000                	unimp
     7e4:	0000                	unimp
     7e6:	0002                	c.slli64	zero
     7e8:	9f30                	0x9f30
     7ea:	03d4                	addi	a3,sp,452
     7ec:	0000                	unimp
     7ee:	0000                	unimp
     7f0:	0000                	unimp
     7f2:	03e4                	addi	s1,sp,460
     7f4:	0000                	unimp
     7f6:	0000                	unimp
     7f8:	0000                	unimp
     7fa:	0001                	nop
     7fc:	e458                	sd	a4,136(s0)
     7fe:	00000003          	lb	zero,0(zero) # 0 <_start-0x61000000>
     802:	0000                	unimp
     804:	fc00                	sd	s0,56(s0)
     806:	00000003          	lb	zero,0(zero) # 0 <_start-0x61000000>
     80a:	0000                	unimp
     80c:	0100                	addi	s0,sp,128
     80e:	5f00                	lw	s0,56(a4)
     810:	03fc                	addi	a5,sp,460
     812:	0000                	unimp
     814:	0000                	unimp
     816:	0000                	unimp
     818:	040c                	addi	a1,sp,512
     81a:	0000                	unimp
     81c:	0000                	unimp
     81e:	0000                	unimp
     820:	0001                	nop
     822:	0058                	addi	a4,sp,4
	...
     830:	0000                	unimp
     832:	6000                	ld	s0,0(s0)
     834:	00000003          	lb	zero,0(zero) # 0 <_start-0x61000000>
     838:	0000                	unimp
     83a:	7800                	ld	s0,48(s0)
     83c:	00000003          	lb	zero,0(zero) # 0 <_start-0x61000000>
     840:	0000                	unimp
     842:	0100                	addi	s0,sp,128
     844:	5a00                	lw	s0,48(a2)
     846:	0378                	addi	a4,sp,396
     848:	0000                	unimp
     84a:	0000                	unimp
     84c:	0000                	unimp
     84e:	039c                	addi	a5,sp,448
     850:	0000                	unimp
     852:	0000                	unimp
     854:	0000                	unimp
     856:	0001                	nop
     858:	9c58                	0x9c58
     85a:	00000003          	lb	zero,0(zero) # 0 <_start-0x61000000>
     85e:	0000                	unimp
     860:	ac00                	fsd	fs0,24(s0)
     862:	00000003          	lb	zero,0(zero) # 0 <_start-0x61000000>
     866:	0000                	unimp
     868:	0400                	addi	s0,sp,512
     86a:	f300                	sd	s0,32(a4)
     86c:	5a01                	li	s4,-32
     86e:	009f 0000 0000      	0x9f
	...
     87c:	0000                	unimp
     87e:	6000                	ld	s0,0(s0)
     880:	00000003          	lb	zero,0(zero) # 0 <_start-0x61000000>
     884:	0000                	unimp
     886:	7800                	ld	s0,48(s0)
     888:	00000003          	lb	zero,0(zero) # 0 <_start-0x61000000>
     88c:	0000                	unimp
     88e:	0100                	addi	s0,sp,128
     890:	5b00                	lw	s0,48(a4)
     892:	0378                	addi	a4,sp,396
     894:	0000                	unimp
     896:	0000                	unimp
     898:	0000                	unimp
     89a:	03ac                	addi	a1,sp,456
     89c:	0000                	unimp
     89e:	0000                	unimp
     8a0:	0000                	unimp
     8a2:	0004                	0x4
     8a4:	9f5b01f3          	0x9f5b01f3
	...
     8b8:	038c                	addi	a1,sp,448
     8ba:	0000                	unimp
     8bc:	0000                	unimp
     8be:	0000                	unimp
     8c0:	03a4                	addi	s1,sp,456
     8c2:	0000                	unimp
     8c4:	0000                	unimp
     8c6:	0000                	unimp
     8c8:	0001                	nop
     8ca:	005a                	c.slli	zero,0x16
	...
     8d8:	0000                	unimp
     8da:	b000                	fsd	fs0,32(s0)
     8dc:	0002                	c.slli64	zero
     8de:	0000                	unimp
     8e0:	0000                	unimp
     8e2:	c000                	sw	s0,0(s0)
     8e4:	0002                	c.slli64	zero
     8e6:	0000                	unimp
     8e8:	0000                	unimp
     8ea:	0100                	addi	s0,sp,128
     8ec:	5a00                	lw	s0,48(a2)
     8ee:	02c0                	addi	s0,sp,324
     8f0:	0000                	unimp
     8f2:	0000                	unimp
     8f4:	0000                	unimp
     8f6:	02e0                	addi	s0,sp,332
     8f8:	0000                	unimp
     8fa:	0000                	unimp
     8fc:	0000                	unimp
     8fe:	0001                	nop
     900:	e058                	sd	a4,128(s0)
     902:	0002                	c.slli64	zero
     904:	0000                	unimp
     906:	0000                	unimp
     908:	e800                	sd	s0,16(s0)
     90a:	0002                	c.slli64	zero
     90c:	0000                	unimp
     90e:	0000                	unimp
     910:	0400                	addi	s0,sp,512
     912:	f300                	sd	s0,32(a4)
     914:	5a01                	li	s4,-32
     916:	009f 0000 0000      	0x9f
	...
     924:	0000                	unimp
     926:	1c00                	addi	s0,sp,560
     928:	0002                	c.slli64	zero
     92a:	0000                	unimp
     92c:	0000                	unimp
     92e:	4700                	lw	s0,8(a4)
     930:	0002                	c.slli64	zero
     932:	0000                	unimp
     934:	0000                	unimp
     936:	0100                	addi	s0,sp,128
     938:	5a00                	lw	s0,48(a2)
     93a:	00000247          	fmsub.s	ft4,ft0,ft0,ft0,rne
     93e:	0000                	unimp
     940:	0000                	unimp
     942:	0298                	addi	a4,sp,320
     944:	0000                	unimp
     946:	0000                	unimp
     948:	0000                	unimp
     94a:	0001                	nop
     94c:	9858                	0x9858
     94e:	0002                	c.slli64	zero
     950:	0000                	unimp
     952:	0000                	unimp
     954:	af00                	fsd	fs0,24(a4)
     956:	0002                	c.slli64	zero
     958:	0000                	unimp
     95a:	0000                	unimp
     95c:	0100                	addi	s0,sp,128
     95e:	5a00                	lw	s0,48(a2)
     960:	000002af          	0x2af
     964:	0000                	unimp
     966:	0000                	unimp
     968:	02b0                	addi	a2,sp,328
     96a:	0000                	unimp
     96c:	0000                	unimp
     96e:	0000                	unimp
     970:	0004                	0x4
     972:	9f5a01f3          	0x9f5a01f3
	...
     986:	021c                	addi	a5,sp,256
     988:	0000                	unimp
     98a:	0000                	unimp
     98c:	0000                	unimp
     98e:	00000247          	fmsub.s	ft4,ft0,ft0,ft0,rne
     992:	0000                	unimp
     994:	0000                	unimp
     996:	0001                	nop
     998:	0002475b          	0x2475b
     99c:	0000                	unimp
     99e:	0000                	unimp
     9a0:	b000                	fsd	fs0,32(s0)
     9a2:	0002                	c.slli64	zero
     9a4:	0000                	unimp
     9a6:	0000                	unimp
     9a8:	0400                	addi	s0,sp,512
     9aa:	f300                	sd	s0,32(a4)
     9ac:	5b01                	li	s6,-32
     9ae:	009f 0000 0000      	0x9f
	...
     9bc:	0000                	unimp
     9be:	1c00                	addi	s0,sp,560
     9c0:	0002                	c.slli64	zero
     9c2:	0000                	unimp
     9c4:	0000                	unimp
     9c6:	4700                	lw	s0,8(a4)
     9c8:	0002                	c.slli64	zero
     9ca:	0000                	unimp
     9cc:	0000                	unimp
     9ce:	0100                	addi	s0,sp,128
     9d0:	5c00                	lw	s0,56(s0)
     9d2:	00000247          	fmsub.s	ft4,ft0,ft0,ft0,rne
     9d6:	0000                	unimp
     9d8:	0000                	unimp
     9da:	02b0                	addi	a2,sp,328
     9dc:	0000                	unimp
     9de:	0000                	unimp
     9e0:	0000                	unimp
     9e2:	0004                	0x4
     9e4:	9f5c01f3          	0x9f5c01f3
	...
     9f8:	021c                	addi	a5,sp,256
     9fa:	0000                	unimp
     9fc:	0000                	unimp
     9fe:	0000                	unimp
     a00:	00000247          	fmsub.s	ft4,ft0,ft0,ft0,rne
     a04:	0000                	unimp
     a06:	0000                	unimp
     a08:	0001                	nop
     a0a:	475d                	li	a4,23
     a0c:	0002                	c.slli64	zero
     a0e:	0000                	unimp
     a10:	0000                	unimp
     a12:	b000                	fsd	fs0,32(s0)
     a14:	0002                	c.slli64	zero
     a16:	0000                	unimp
     a18:	0000                	unimp
     a1a:	0400                	addi	s0,sp,512
     a1c:	f300                	sd	s0,32(a4)
     a1e:	5d01                	li	s10,-32
     a20:	009f 0000 0000      	0x9f
	...
     a2e:	0000                	unimp
     a30:	7800                	ld	s0,48(s0)
     a32:	0001                	nop
     a34:	0000                	unimp
     a36:	0000                	unimp
     a38:	ab00                	fsd	fs0,16(a4)
     a3a:	0001                	nop
     a3c:	0000                	unimp
     a3e:	0000                	unimp
     a40:	0100                	addi	s0,sp,128
     a42:	5a00                	lw	s0,48(a2)
     a44:	000001ab          	0x1ab
     a48:	0000                	unimp
     a4a:	0000                	unimp
     a4c:	0200                	addi	s0,sp,256
     a4e:	0000                	unimp
     a50:	0000                	unimp
     a52:	0000                	unimp
     a54:	0001                	nop
     a56:	0058                	addi	a4,sp,4
     a58:	0002                	c.slli64	zero
     a5a:	0000                	unimp
     a5c:	0000                	unimp
     a5e:	1b00                	addi	s0,sp,432
     a60:	0002                	c.slli64	zero
     a62:	0000                	unimp
     a64:	0000                	unimp
     a66:	0100                	addi	s0,sp,128
     a68:	5a00                	lw	s0,48(a2)
     a6a:	0000021b          	sext.w	tp,zero
     a6e:	0000                	unimp
     a70:	0000                	unimp
     a72:	021c                	addi	a5,sp,256
     a74:	0000                	unimp
     a76:	0000                	unimp
     a78:	0000                	unimp
     a7a:	0004                	0x4
     a7c:	9f5a01f3          	0x9f5a01f3
	...
     a90:	0178                	addi	a4,sp,140
     a92:	0000                	unimp
     a94:	0000                	unimp
     a96:	0000                	unimp
     a98:	000001ab          	0x1ab
     a9c:	0000                	unimp
     a9e:	0000                	unimp
     aa0:	0001                	nop
     aa2:	0001ab5b          	0x1ab5b
     aa6:	0000                	unimp
     aa8:	0000                	unimp
     aaa:	1c00                	addi	s0,sp,560
     aac:	0002                	c.slli64	zero
     aae:	0000                	unimp
     ab0:	0000                	unimp
     ab2:	0400                	addi	s0,sp,512
     ab4:	f300                	sd	s0,32(a4)
     ab6:	5b01                	li	s6,-32
     ab8:	009f 0000 0000      	0x9f
	...
     ac6:	0000                	unimp
     ac8:	7800                	ld	s0,48(s0)
     aca:	0001                	nop
     acc:	0000                	unimp
     ace:	0000                	unimp
     ad0:	ab00                	fsd	fs0,16(a4)
     ad2:	0001                	nop
     ad4:	0000                	unimp
     ad6:	0000                	unimp
     ad8:	0100                	addi	s0,sp,128
     ada:	5c00                	lw	s0,56(s0)
     adc:	000001ab          	0x1ab
     ae0:	0000                	unimp
     ae2:	0000                	unimp
     ae4:	021c                	addi	a5,sp,256
     ae6:	0000                	unimp
     ae8:	0000                	unimp
     aea:	0000                	unimp
     aec:	0004                	0x4
     aee:	9f5c01f3          	0x9f5c01f3
	...
     b02:	0178                	addi	a4,sp,140
     b04:	0000                	unimp
     b06:	0000                	unimp
     b08:	0000                	unimp
     b0a:	000001ab          	0x1ab
     b0e:	0000                	unimp
     b10:	0000                	unimp
     b12:	0001                	nop
     b14:	ab5d                	j	10ca <_start-0x60ffef36>
     b16:	0001                	nop
     b18:	0000                	unimp
     b1a:	0000                	unimp
     b1c:	1c00                	addi	s0,sp,560
     b1e:	0002                	c.slli64	zero
     b20:	0000                	unimp
     b22:	0000                	unimp
     b24:	0400                	addi	s0,sp,512
     b26:	f300                	sd	s0,32(a4)
     b28:	5d01                	li	s10,-32
     b2a:	009f 0000 0000      	0x9f
	...
     b38:	0000                	unimp
     b3a:	7800                	ld	s0,48(s0)
     b3c:	0001                	nop
     b3e:	0000                	unimp
     b40:	0000                	unimp
     b42:	ab00                	fsd	fs0,16(a4)
     b44:	0001                	nop
     b46:	0000                	unimp
     b48:	0000                	unimp
     b4a:	0100                	addi	s0,sp,128
     b4c:	5e00                	lw	s0,56(a2)
     b4e:	000001ab          	0x1ab
     b52:	0000                	unimp
     b54:	0000                	unimp
     b56:	021c                	addi	a5,sp,256
     b58:	0000                	unimp
     b5a:	0000                	unimp
     b5c:	0000                	unimp
     b5e:	0004                	0x4
     b60:	9f5e01f3          	0x9f5e01f3
	...
     b74:	0114                	addi	a3,sp,128
     b76:	0000                	unimp
     b78:	0000                	unimp
     b7a:	0000                	unimp
     b7c:	0000012f          	0x12f
     b80:	0000                	unimp
     b82:	0000                	unimp
     b84:	0001                	nop
     b86:	2f5a                	fld	ft10,400(sp)
     b88:	0001                	nop
     b8a:	0000                	unimp
     b8c:	0000                	unimp
     b8e:	6800                	ld	s0,16(s0)
     b90:	0001                	nop
     b92:	0000                	unimp
     b94:	0000                	unimp
     b96:	0100                	addi	s0,sp,128
     b98:	5800                	lw	s0,48(s0)
     b9a:	0168                	addi	a0,sp,140
     b9c:	0000                	unimp
     b9e:	0000                	unimp
     ba0:	0000                	unimp
     ba2:	00000177          	0x177
     ba6:	0000                	unimp
     ba8:	0000                	unimp
     baa:	0001                	nop
     bac:	775a                	ld	a4,432(sp)
     bae:	0001                	nop
     bb0:	0000                	unimp
     bb2:	0000                	unimp
     bb4:	7800                	ld	s0,48(s0)
     bb6:	0001                	nop
     bb8:	0000                	unimp
     bba:	0000                	unimp
     bbc:	0400                	addi	s0,sp,512
     bbe:	f300                	sd	s0,32(a4)
     bc0:	5a01                	li	s4,-32
     bc2:	009f 0000 0000      	0x9f
	...
     bd0:	0000                	unimp
     bd2:	1400                	addi	s0,sp,544
     bd4:	0001                	nop
     bd6:	0000                	unimp
     bd8:	0000                	unimp
     bda:	2f00                	fld	fs0,24(a4)
     bdc:	0001                	nop
     bde:	0000                	unimp
     be0:	0000                	unimp
     be2:	0100                	addi	s0,sp,128
     be4:	5b00                	lw	s0,48(a4)
     be6:	0000012f          	0x12f
     bea:	0000                	unimp
     bec:	0000                	unimp
     bee:	0178                	addi	a4,sp,140
     bf0:	0000                	unimp
     bf2:	0000                	unimp
     bf4:	0000                	unimp
     bf6:	0004                	0x4
     bf8:	9f5b01f3          	0x9f5b01f3
	...
     c0c:	00ec                	addi	a1,sp,76
     c0e:	0000                	unimp
     c10:	0000                	unimp
     c12:	0000                	unimp
     c14:	00000113          	li	sp,0
     c18:	0000                	unimp
     c1a:	0000                	unimp
     c1c:	0001                	nop
     c1e:	135a                	slli	t1,t1,0x36
     c20:	0001                	nop
     c22:	0000                	unimp
     c24:	0000                	unimp
     c26:	1400                	addi	s0,sp,544
     c28:	0001                	nop
     c2a:	0000                	unimp
     c2c:	0000                	unimp
     c2e:	0400                	addi	s0,sp,512
     c30:	f300                	sd	s0,32(a4)
     c32:	5a01                	li	s4,-32
     c34:	009f 0000 0000      	0x9f
	...
     c42:	0000                	unimp
     c44:	ec00                	sd	s0,24(s0)
     c46:	0000                	unimp
     c48:	0000                	unimp
     c4a:	0000                	unimp
     c4c:	f800                	sd	s0,48(s0)
     c4e:	0000                	unimp
     c50:	0000                	unimp
     c52:	0000                	unimp
     c54:	0100                	addi	s0,sp,128
     c56:	5b00                	lw	s0,48(a4)
     c58:	00f8                	addi	a4,sp,76
     c5a:	0000                	unimp
     c5c:	0000                	unimp
     c5e:	0000                	unimp
     c60:	0114                	addi	a3,sp,128
     c62:	0000                	unimp
     c64:	0000                	unimp
     c66:	0000                	unimp
     c68:	0004                	0x4
     c6a:	9f5b01f3          	0x9f5b01f3
	...
     c7e:	00ec                	addi	a1,sp,76
     c80:	0000                	unimp
     c82:	0000                	unimp
     c84:	0000                	unimp
     c86:	00f0                	addi	a2,sp,76
     c88:	0000                	unimp
     c8a:	0000                	unimp
     c8c:	0000                	unimp
     c8e:	0001                	nop
     c90:	f05c                	sd	a5,160(s0)
     c92:	0000                	unimp
     c94:	0000                	unimp
     c96:	0000                	unimp
     c98:	1400                	addi	s0,sp,544
     c9a:	0001                	nop
     c9c:	0000                	unimp
     c9e:	0000                	unimp
     ca0:	0400                	addi	s0,sp,512
     ca2:	f300                	sd	s0,32(a4)
     ca4:	5c01                	li	s8,-32
     ca6:	009f 0000 0000      	0x9f
	...
     cb4:	0000                	unimp
     cb6:	ec00                	sd	s0,24(s0)
     cb8:	0000                	unimp
     cba:	0000                	unimp
     cbc:	0000                	unimp
     cbe:	f000                	sd	s0,32(s0)
     cc0:	0000                	unimp
     cc2:	0000                	unimp
     cc4:	0000                	unimp
     cc6:	1000                	addi	s0,sp,32
     cc8:	7c00                	ld	s0,56(s0)
     cca:	4000                	lw	s0,0(s0)
     ccc:	0824                	addi	s1,sp,24
     cce:	1a2440ff          	0x1a2440ff
     cd2:	ff08007b          	0xff08007b
     cd6:	211a                	fld	ft2,384(sp)
     cd8:	f09f 0000 0000      	0xf09f
     cde:	0000                	unimp
     ce0:	f800                	sd	s0,48(s0)
     ce2:	0000                	unimp
     ce4:	0000                	unimp
     ce6:	0000                	unimp
     ce8:	1100                	addi	s0,sp,160
     cea:	f300                	sd	s0,32(a4)
     cec:	5c01                	li	s8,-32
     cee:	2440                	fld	fs0,136(s0)
     cf0:	ff08                	sd	a0,56(a4)
     cf2:	2440                	fld	fs0,136(s0)
     cf4:	7b1a                	ld	s6,416(sp)
     cf6:	0800                	addi	s0,sp,16
     cf8:	9f211aff          	kmmwb2.u	s5,sp,s2
     cfc:	00f8                	addi	a4,sp,76
     cfe:	0000                	unimp
     d00:	0000                	unimp
     d02:	0000                	unimp
     d04:	0114                	addi	a3,sp,128
     d06:	0000                	unimp
     d08:	0000                	unimp
     d0a:	0000                	unimp
     d0c:	0012                	c.slli	zero,0x4
     d0e:	405c01f3          	0x405c01f3
     d12:	0824                	addi	s1,sp,24
     d14:	1a2440ff          	0x1a2440ff
     d18:	085b01f3          	0x85b01f3
     d1c:	9f211aff          	kmmwb2.u	s5,sp,s2
	...
     d30:	00dc                	addi	a5,sp,68
     d32:	0000                	unimp
     d34:	0000                	unimp
     d36:	0000                	unimp
     d38:	000000eb          	0xeb
     d3c:	0000                	unimp
     d3e:	0000                	unimp
     d40:	0001                	nop
     d42:	eb5a                	sd	s6,400(sp)
     d44:	0000                	unimp
     d46:	0000                	unimp
     d48:	0000                	unimp
     d4a:	ec00                	sd	s0,24(s0)
     d4c:	0000                	unimp
     d4e:	0000                	unimp
     d50:	0000                	unimp
     d52:	0400                	addi	s0,sp,512
     d54:	f300                	sd	s0,32(a4)
     d56:	5a01                	li	s4,-32
     d58:	009f 0000 0000      	0x9f
	...
     d66:	0000                	unimp
     d68:	dc00                	sw	s0,56(s0)
     d6a:	0000                	unimp
     d6c:	0000                	unimp
     d6e:	0000                	unimp
     d70:	e800                	sd	s0,16(s0)
     d72:	0000                	unimp
     d74:	0000                	unimp
     d76:	0000                	unimp
     d78:	0100                	addi	s0,sp,128
     d7a:	5b00                	lw	s0,48(a4)
     d7c:	00e8                	addi	a0,sp,76
     d7e:	0000                	unimp
     d80:	0000                	unimp
     d82:	0000                	unimp
     d84:	00ec                	addi	a1,sp,76
     d86:	0000                	unimp
     d88:	0000                	unimp
     d8a:	0000                	unimp
     d8c:	0004                	0x4
     d8e:	9f5b01f3          	0x9f5b01f3
	...
     da2:	00dc                	addi	a5,sp,68
     da4:	0000                	unimp
     da6:	0000                	unimp
     da8:	0000                	unimp
     daa:	00e8                	addi	a0,sp,76
     dac:	0000                	unimp
     dae:	0000                	unimp
     db0:	0000                	unimp
     db2:	0006                	c.slli	zero,0x1
     db4:	ff08007b          	0xff08007b
     db8:	9f1a                	add	t5,t5,t1
     dba:	00e8                	addi	a0,sp,76
     dbc:	0000                	unimp
     dbe:	0000                	unimp
     dc0:	0000                	unimp
     dc2:	00ec                	addi	a1,sp,76
     dc4:	0000                	unimp
     dc6:	0000                	unimp
     dc8:	0000                	unimp
     dca:	01f30007          	0x1f30007
     dce:	1aff085b          	0x1aff085b
     dd2:	009f 0000 0000      	0x9f
	...
     de0:	0000                	unimp
     de2:	c800                	sw	s0,16(s0)
     de4:	0000                	unimp
     de6:	0000                	unimp
     de8:	0000                	unimp
     dea:	db00                	sw	s0,48(a4)
     dec:	0000                	unimp
     dee:	0000                	unimp
     df0:	0000                	unimp
     df2:	0100                	addi	s0,sp,128
     df4:	5a00                	lw	s0,48(a2)
     df6:	000000db          	0xdb
     dfa:	0000                	unimp
     dfc:	0000                	unimp
     dfe:	00dc                	addi	a5,sp,68
     e00:	0000                	unimp
     e02:	0000                	unimp
     e04:	0000                	unimp
     e06:	0004                	0x4
     e08:	9f5a01f3          	0x9f5a01f3
	...
     e1c:	00c8                	addi	a0,sp,68
     e1e:	0000                	unimp
     e20:	0000                	unimp
     e22:	0000                	unimp
     e24:	00d8                	addi	a4,sp,68
     e26:	0000                	unimp
     e28:	0000                	unimp
     e2a:	0000                	unimp
     e2c:	0001                	nop
     e2e:	0000d85b          	0xd85b
     e32:	0000                	unimp
     e34:	0000                	unimp
     e36:	dc00                	sw	s0,56(s0)
     e38:	0000                	unimp
     e3a:	0000                	unimp
     e3c:	0000                	unimp
     e3e:	0400                	addi	s0,sp,512
     e40:	f300                	sd	s0,32(a4)
     e42:	5b01                	li	s6,-32
     e44:	009f 0000 0000      	0x9f
	...
     e52:	0000                	unimp
     e54:	8c00                	0x8c00
     e56:	0000                	unimp
     e58:	0000                	unimp
     e5a:	0000                	unimp
     e5c:	c700                	sw	s0,8(a4)
     e5e:	0000                	unimp
     e60:	0000                	unimp
     e62:	0000                	unimp
     e64:	0100                	addi	s0,sp,128
     e66:	5a00                	lw	s0,48(a2)
     e68:	000000c7          	fmsub.s	ft1,ft0,ft0,ft0,rne
     e6c:	0000                	unimp
     e6e:	0000                	unimp
     e70:	00c8                	addi	a0,sp,68
     e72:	0000                	unimp
     e74:	0000                	unimp
     e76:	0000                	unimp
     e78:	0004                	0x4
     e7a:	9f5a01f3          	0x9f5a01f3
	...
     e8e:	008c                	addi	a1,sp,64
     e90:	0000                	unimp
     e92:	0000                	unimp
     e94:	0000                	unimp
     e96:	00a0                	addi	s0,sp,72
     e98:	0000                	unimp
     e9a:	0000                	unimp
     e9c:	0000                	unimp
     e9e:	0001                	nop
     ea0:	0000a05b          	0xa05b
     ea4:	0000                	unimp
     ea6:	0000                	unimp
     ea8:	c800                	sw	s0,16(s0)
     eaa:	0000                	unimp
     eac:	0000                	unimp
     eae:	0000                	unimp
     eb0:	0400                	addi	s0,sp,512
     eb2:	f300                	sd	s0,32(a4)
     eb4:	5b01                	li	s6,-32
     eb6:	009f 0000 0000      	0x9f
	...
     ec4:	0000                	unimp
     ec6:	8c00                	0x8c00
     ec8:	0000                	unimp
     eca:	0000                	unimp
     ecc:	0000                	unimp
     ece:	9400                	0x9400
     ed0:	0000                	unimp
     ed2:	0000                	unimp
     ed4:	0000                	unimp
     ed6:	0100                	addi	s0,sp,128
     ed8:	5c00                	lw	s0,56(s0)
     eda:	0094                	addi	a3,sp,64
     edc:	0000                	unimp
     ede:	0000                	unimp
     ee0:	0000                	unimp
     ee2:	00c8                	addi	a0,sp,68
     ee4:	0000                	unimp
     ee6:	0000                	unimp
     ee8:	0000                	unimp
     eea:	0004                	0x4
     eec:	9f5c01f3          	0x9f5c01f3
	...
     f00:	008c                	addi	a1,sp,64
     f02:	0000                	unimp
     f04:	0000                	unimp
     f06:	0000                	unimp
     f08:	00a4                	addi	s1,sp,72
     f0a:	0000                	unimp
     f0c:	0000                	unimp
     f0e:	0000                	unimp
     f10:	0001                	nop
     f12:	a45d                	j	11b8 <_start-0x60ffee48>
     f14:	0000                	unimp
     f16:	0000                	unimp
     f18:	0000                	unimp
     f1a:	c800                	sw	s0,16(s0)
     f1c:	0000                	unimp
     f1e:	0000                	unimp
     f20:	0000                	unimp
     f22:	0400                	addi	s0,sp,512
     f24:	f300                	sd	s0,32(a4)
     f26:	5d01                	li	s10,-32
     f28:	009f 0000 0000      	0x9f
	...
     f36:	0000                	unimp
     f38:	8c00                	0x8c00
     f3a:	0000                	unimp
     f3c:	0000                	unimp
     f3e:	0000                	unimp
     f40:	9400                	0x9400
     f42:	0000                	unimp
     f44:	0000                	unimp
     f46:	0000                	unimp
     f48:	1700                	addi	s0,sp,928
     f4a:	7c00                	ld	s0,56(s0)
     f4c:	4600                	lw	s0,8(a2)
     f4e:	4824                	lw	s1,80(s0)
     f50:	7b1a2443          	fmadd.d	fs0,fs4,fa7,fa5,rdn
     f54:	3f00                	fld	fs0,56(a4)
     f56:	211a                	fld	ft2,384(sp)
     f58:	007d                	c.nop	31
     f5a:	243a                	fld	fs0,392(sp)
     f5c:	000a                	c.slli	zero,0x2
     f5e:	1a0c                	addi	a1,sp,304
     f60:	9f21                	addw	a4,a4,s0
     f62:	0094                	addi	a3,sp,64
     f64:	0000                	unimp
     f66:	0000                	unimp
     f68:	0000                	unimp
     f6a:	00a0                	addi	s0,sp,72
     f6c:	0000                	unimp
     f6e:	0000                	unimp
     f70:	0000                	unimp
     f72:	0018                	0x18
     f74:	465c01f3          	0x465c01f3
     f78:	4824                	lw	s1,80(s0)
     f7a:	7b1a2443          	fmadd.d	fs0,fs4,fa7,fa5,rdn
     f7e:	3f00                	fld	fs0,56(a4)
     f80:	211a                	fld	ft2,384(sp)
     f82:	007d                	c.nop	31
     f84:	243a                	fld	fs0,392(sp)
     f86:	000a                	c.slli	zero,0x2
     f88:	1a0c                	addi	a1,sp,304
     f8a:	9f21                	addw	a4,a4,s0
     f8c:	00a0                	addi	s0,sp,72
     f8e:	0000                	unimp
     f90:	0000                	unimp
     f92:	0000                	unimp
     f94:	00a4                	addi	s1,sp,72
     f96:	0000                	unimp
     f98:	0000                	unimp
     f9a:	0000                	unimp
     f9c:	0019                	c.nop	6
     f9e:	465c01f3          	0x465c01f3
     fa2:	4824                	lw	s1,80(s0)
     fa4:	f31a2443          	fmadd.d	fs0,fs4,fa7,ft10,rdn
     fa8:	5b01                	li	s6,-32
     faa:	7d211a3f 0a243a00 	0xa243a007d211a3f
     fb2:	0c00                	addi	s0,sp,528
     fb4:	211a                	fld	ft2,384(sp)
     fb6:	a49f 0000 0000      	0xa49f
     fbc:	0000                	unimp
     fbe:	c800                	sw	s0,16(s0)
     fc0:	0000                	unimp
     fc2:	0000                	unimp
     fc4:	0000                	unimp
     fc6:	1a00                	addi	s0,sp,304
     fc8:	f300                	sd	s0,32(a4)
     fca:	5c01                	li	s8,-32
     fcc:	2446                	fld	fs0,80(sp)
     fce:	4348                	lw	a0,4(a4)
     fd0:	1a24                	addi	s1,sp,312
     fd2:	3f5b01f3          	0x3f5b01f3
     fd6:	211a                	fld	ft2,384(sp)
     fd8:	3a5d01f3          	0x3a5d01f3
     fdc:	0a24                	addi	s1,sp,280
     fde:	0c00                	addi	s0,sp,528
     fe0:	211a                	fld	ft2,384(sp)
     fe2:	009f 0000 0000      	0x9f
	...
     ff0:	0000                	unimp
     ff2:	8000                	0x8000
     ff4:	0000                	unimp
     ff6:	0000                	unimp
     ff8:	0000                	unimp
     ffa:	8400                	0x8400
     ffc:	0000                	unimp
     ffe:	0000                	unimp
    1000:	0000                	unimp
    1002:	0100                	addi	s0,sp,128
    1004:	5f00                	lw	s0,56(a4)
	...
    1016:	006c                	addi	a1,sp,12
    1018:	0000                	unimp
    101a:	0000                	unimp
    101c:	0000                	unimp
    101e:	0070                	addi	a2,sp,12
    1020:	0000                	unimp
    1022:	0000                	unimp
    1024:	0000                	unimp
    1026:	0001                	nop
    1028:	005f 0000 0000      	0x5f
	...
    1036:	0000                	unimp
    1038:	3c00                	fld	fs0,56(s0)
    103a:	0000                	unimp
    103c:	0000                	unimp
    103e:	0000                	unimp
    1040:	4800                	lw	s0,16(s0)
    1042:	0000                	unimp
    1044:	0000                	unimp
    1046:	0000                	unimp
    1048:	0100                	addi	s0,sp,128
    104a:	5a00                	lw	s0,48(a2)
    104c:	0048                	addi	a0,sp,4
    104e:	0000                	unimp
    1050:	0000                	unimp
    1052:	0000                	unimp
    1054:	0064                	addi	s1,sp,12
    1056:	0000                	unimp
    1058:	0000                	unimp
    105a:	0000                	unimp
    105c:	0004                	0x4
    105e:	9f5a01f3          	0x9f5a01f3
	...
    1072:	003c                	addi	a5,sp,8
    1074:	0000                	unimp
    1076:	0000                	unimp
    1078:	0000                	unimp
    107a:	0044                	addi	s1,sp,4
    107c:	0000                	unimp
    107e:	0000                	unimp
    1080:	0000                	unimp
    1082:	0001                	nop
    1084:	0000445b          	0x445b
    1088:	0000                	unimp
    108a:	0000                	unimp
    108c:	6400                	ld	s0,8(s0)
    108e:	0000                	unimp
    1090:	0000                	unimp
    1092:	0000                	unimp
    1094:	0400                	addi	s0,sp,512
    1096:	f300                	sd	s0,32(a4)
    1098:	5b01                	li	s6,-32
    109a:	009f 0000 0000      	0x9f
	...
    10a8:	0000                	unimp
    10aa:	3c00                	fld	fs0,56(s0)
    10ac:	0000                	unimp
    10ae:	0000                	unimp
    10b0:	0000                	unimp
    10b2:	5400                	lw	s0,40(s0)
    10b4:	0000                	unimp
    10b6:	0000                	unimp
    10b8:	0000                	unimp
    10ba:	0100                	addi	s0,sp,128
    10bc:	5c00                	lw	s0,56(s0)
    10be:	0054                	addi	a3,sp,4
    10c0:	0000                	unimp
    10c2:	0000                	unimp
    10c4:	0000                	unimp
    10c6:	0064                	addi	s1,sp,12
    10c8:	0000                	unimp
    10ca:	0000                	unimp
    10cc:	0000                	unimp
    10ce:	0004                	0x4
    10d0:	9f5c01f3          	0x9f5c01f3
	...
    10e4:	0050                	addi	a2,sp,4
    10e6:	0000                	unimp
    10e8:	0000                	unimp
    10ea:	0000                	unimp
    10ec:	005c                	addi	a5,sp,4
    10ee:	0000                	unimp
    10f0:	0000                	unimp
    10f2:	0000                	unimp
    10f4:	0001                	nop
    10f6:	005f 0000 0000      	0x5f
	...
    1104:	0000                	unimp
    1106:	1c00                	addi	s0,sp,560
    1108:	0000                	unimp
    110a:	0000                	unimp
    110c:	0000                	unimp
    110e:	2800                	fld	fs0,16(s0)
    1110:	0000                	unimp
    1112:	0000                	unimp
    1114:	0000                	unimp
    1116:	0100                	addi	s0,sp,128
    1118:	5a00                	lw	s0,48(a2)
    111a:	0028                	addi	a0,sp,8
    111c:	0000                	unimp
    111e:	0000                	unimp
    1120:	0000                	unimp
    1122:	003c                	addi	a5,sp,8
    1124:	0000                	unimp
    1126:	0000                	unimp
    1128:	0000                	unimp
    112a:	0004                	0x4
    112c:	9f5a01f3          	0x9f5a01f3
	...
    1140:	001c                	0x1c
    1142:	0000                	unimp
    1144:	0000                	unimp
    1146:	0000                	unimp
    1148:	0024                	addi	s1,sp,8
    114a:	0000                	unimp
    114c:	0000                	unimp
    114e:	0000                	unimp
    1150:	0001                	nop
    1152:	0000245b          	0x245b
    1156:	0000                	unimp
    1158:	0000                	unimp
    115a:	3c00                	fld	fs0,56(s0)
    115c:	0000                	unimp
    115e:	0000                	unimp
    1160:	0000                	unimp
    1162:	0400                	addi	s0,sp,512
    1164:	f300                	sd	s0,32(a4)
    1166:	5b01                	li	s6,-32
    1168:	009f 0000 0000      	0x9f
	...
    1176:	0000                	unimp
    1178:	3000                	fld	fs0,32(s0)
    117a:	0000                	unimp
    117c:	0000                	unimp
    117e:	0000                	unimp
    1180:	3400                	fld	fs0,40(s0)
    1182:	0000                	unimp
    1184:	0000                	unimp
    1186:	0000                	unimp
    1188:	0100                	addi	s0,sp,128
    118a:	5f00                	lw	s0,56(a4)
	...
    119c:	0030                	addi	a2,sp,8
    119e:	0000                	unimp
    11a0:	0000                	unimp
    11a2:	0000                	unimp
    11a4:	0034                	addi	a3,sp,8
    11a6:	0000                	unimp
    11a8:	0000                	unimp
    11aa:	0000                	unimp
    11ac:	0009                	c.nop	2
    11ae:	007c007f          	radd16	zero,s8,t2
    11b2:	7d1a                	ld	s10,416(sp)
    11b4:	2500                	fld	fs0,8(a0)
    11b6:	009f 0000 0000      	0x9f
	...
    11cc:	0000                	unimp
    11ce:	0400                	addi	s0,sp,512
    11d0:	0000                	unimp
    11d2:	0000                	unimp
    11d4:	0000                	unimp
    11d6:	0100                	addi	s0,sp,128
    11d8:	5a00                	lw	s0,48(a2)
    11da:	0004                	0x4
    11dc:	0000                	unimp
    11de:	0000                	unimp
    11e0:	0000                	unimp
    11e2:	001c                	0x1c
    11e4:	0000                	unimp
    11e6:	0000                	unimp
    11e8:	0000                	unimp
    11ea:	0001                	nop
    11ec:	005e                	c.slli	zero,0x17
	...
    11fa:	0000                	unimp
    11fc:	0400                	addi	s0,sp,512
    11fe:	0000                	unimp
    1200:	0000                	unimp
    1202:	0000                	unimp
    1204:	1000                	addi	s0,sp,32
    1206:	0000                	unimp
    1208:	0000                	unimp
    120a:	0000                	unimp
    120c:	0200                	addi	s0,sp,256
    120e:	3000                	fld	fs0,32(s0)
    1210:	109f 0000 0000      	0x109f
    1216:	0000                	unimp
    1218:	1c00                	addi	s0,sp,560
    121a:	0000                	unimp
    121c:	0000                	unimp
    121e:	0000                	unimp
    1220:	0100                	addi	s0,sp,128
    1222:	5d00                	lw	s0,56(a0)
	...
    1234:	0004                	0x4
    1236:	0000                	unimp
    1238:	0000                	unimp
    123a:	0000                	unimp
    123c:	0014                	0x14
    123e:	0000                	unimp
    1240:	0000                	unimp
    1242:	0000                	unimp
    1244:	0002                	c.slli64	zero
    1246:	9f30                	0x9f30
    1248:	0014                	0x14
    124a:	0000                	unimp
    124c:	0000                	unimp
    124e:	0000                	unimp
    1250:	001c                	0x1c
    1252:	0000                	unimp
    1254:	0000                	unimp
    1256:	0000                	unimp
    1258:	0001                	nop
    125a:	005a                	c.slli	zero,0x16
	...
    1268:	0000                	unimp
    126a:	e800                	sd	s0,16(s0)
    126c:	0002                	c.slli64	zero
    126e:	0000                	unimp
    1270:	0000                	unimp
    1272:	0000                	unimp
    1274:	00000003          	lb	zero,0(zero) # 0 <_start-0x61000000>
    1278:	0000                	unimp
    127a:	0100                	addi	s0,sp,128
    127c:	5a00                	lw	s0,48(a2)
    127e:	0300                	addi	s0,sp,384
    1280:	0000                	unimp
    1282:	0000                	unimp
    1284:	0000                	unimp
    1286:	032c                	addi	a1,sp,392
    1288:	0000                	unimp
    128a:	0000                	unimp
    128c:	0000                	unimp
    128e:	0001                	nop
    1290:	2c58                	fld	fa4,152(s0)
    1292:	00000003          	lb	zero,0(zero) # 0 <_start-0x61000000>
    1296:	0000                	unimp
    1298:	3800                	fld	fs0,48(s0)
    129a:	00000003          	lb	zero,0(zero) # 0 <_start-0x61000000>
    129e:	0000                	unimp
    12a0:	0400                	addi	s0,sp,512
    12a2:	f300                	sd	s0,32(a4)
    12a4:	5a01                	li	s4,-32
    12a6:	389f 0003 0000      	0x3389f
    12ac:	0000                	unimp
    12ae:	6000                	ld	s0,0(s0)
    12b0:	00000003          	lb	zero,0(zero) # 0 <_start-0x61000000>
    12b4:	0000                	unimp
    12b6:	0100                	addi	s0,sp,128
    12b8:	5800                	lw	s0,48(s0)
	...
    12ca:	02e8                	addi	a0,sp,332
    12cc:	0000                	unimp
    12ce:	0000                	unimp
    12d0:	0000                	unimp
    12d2:	0300                	addi	s0,sp,384
    12d4:	0000                	unimp
    12d6:	0000                	unimp
    12d8:	0000                	unimp
    12da:	0002                	c.slli64	zero
    12dc:	9f30                	0x9f30
    12de:	0300                	addi	s0,sp,384
    12e0:	0000                	unimp
    12e2:	0000                	unimp
    12e4:	0000                	unimp
    12e6:	0318                	addi	a4,sp,384
    12e8:	0000                	unimp
    12ea:	0000                	unimp
    12ec:	0000                	unimp
    12ee:	e90a0007          	vlsseg8e8.v	v0,(s4),a6,v0.t
    12f2:	1c007903          	0x1c007903
    12f6:	189f 0003 0000      	0x3189f
    12fc:	0000                	unimp
    12fe:	1c00                	addi	s0,sp,560
    1300:	00000003          	lb	zero,0(zero) # 0 <_start-0x61000000>
    1304:	0000                	unimp
    1306:	0700                	addi	s0,sp,896
    1308:	0a00                	addi	s0,sp,272
    130a:	03ea                	slli	t2,t2,0x1a
    130c:	0079                	c.nop	30
    130e:	9f1c                	0x9f1c
    1310:	0338                	addi	a4,sp,392
    1312:	0000                	unimp
    1314:	0000                	unimp
    1316:	0000                	unimp
    1318:	033c                	addi	a5,sp,392
    131a:	0000                	unimp
    131c:	0000                	unimp
    131e:	0000                	unimp
    1320:	e90a0007          	vlsseg8e8.v	v0,(s4),a6,v0.t
    1324:	1c007903          	0x1c007903
    1328:	009f 0000 0000      	0x9f
	...
    1336:	0000                	unimp
    1338:	3c00                	fld	fs0,56(s0)
    133a:	00000003          	lb	zero,0(zero) # 0 <_start-0x61000000>
    133e:	0000                	unimp
    1340:	5400                	lw	s0,40(s0)
    1342:	00000003          	lb	zero,0(zero) # 0 <_start-0x61000000>
    1346:	0000                	unimp
    1348:	0700                	addi	s0,sp,896
    134a:	0a00                	addi	s0,sp,272
    134c:	03e9                	addi	t2,t2,26
    134e:	0079                	c.nop	30
    1350:	9f1c                	0x9f1c
    1352:	0354                	addi	a3,sp,388
    1354:	0000                	unimp
    1356:	0000                	unimp
    1358:	0000                	unimp
    135a:	0358                	addi	a4,sp,388
    135c:	0000                	unimp
    135e:	0000                	unimp
    1360:	0000                	unimp
    1362:	ea0a0007          	vlsseg8e8.v	v0,(s4),zero
    1366:	1c007903          	0x1c007903
    136a:	009f 0000 0000      	0x9f
	...
    1380:	0000                	unimp
    1382:	5c00                	lw	s0,56(s0)
    1384:	0000                	unimp
    1386:	0000                	unimp
    1388:	0000                	unimp
    138a:	0100                	addi	s0,sp,128
    138c:	5a00                	lw	s0,48(a2)
    138e:	005c                	addi	a5,sp,4
    1390:	0000                	unimp
    1392:	0000                	unimp
    1394:	0000                	unimp
    1396:	0080                	addi	s0,sp,64
    1398:	0000                	unimp
    139a:	0000                	unimp
    139c:	0000                	unimp
    139e:	0001                	nop
    13a0:	8064                	0x8064
    13a2:	0000                	unimp
    13a4:	0000                	unimp
    13a6:	0000                	unimp
    13a8:	a400                	fsd	fs0,8(s0)
    13aa:	0000                	unimp
    13ac:	0000                	unimp
    13ae:	0000                	unimp
    13b0:	0400                	addi	s0,sp,512
    13b2:	f300                	sd	s0,32(a4)
    13b4:	5a01                	li	s4,-32
    13b6:	a49f 0000 0000      	0xa49f
    13bc:	0000                	unimp
    13be:	1000                	addi	s0,sp,32
    13c0:	0001                	nop
    13c2:	0000                	unimp
    13c4:	0000                	unimp
    13c6:	0100                	addi	s0,sp,128
    13c8:	6400                	ld	s0,8(s0)
	...
    13e2:	0064                	addi	s1,sp,12
    13e4:	0000                	unimp
    13e6:	0000                	unimp
    13e8:	0000                	unimp
    13ea:	0001                	nop
    13ec:	0000645b          	0x645b
    13f0:	0000                	unimp
    13f2:	0000                	unimp
    13f4:	9000                	0x9000
    13f6:	0000                	unimp
    13f8:	0000                	unimp
    13fa:	0000                	unimp
    13fc:	0100                	addi	s0,sp,128
    13fe:	6800                	ld	s0,16(s0)
    1400:	0090                	addi	a2,sp,64
    1402:	0000                	unimp
    1404:	0000                	unimp
    1406:	0000                	unimp
    1408:	0110                	addi	a2,sp,128
    140a:	0000                	unimp
    140c:	0000                	unimp
    140e:	0000                	unimp
    1410:	0004                	0x4
    1412:	9f5b01f3          	0x9f5b01f3
	...
    142e:	0064                	addi	s1,sp,12
    1430:	0000                	unimp
    1432:	0000                	unimp
    1434:	0000                	unimp
    1436:	0001                	nop
    1438:	645c                	ld	a5,136(s0)
    143a:	0000                	unimp
    143c:	0000                	unimp
    143e:	0000                	unimp
    1440:	7400                	ld	s0,40(s0)
    1442:	0000                	unimp
    1444:	0000                	unimp
    1446:	0000                	unimp
    1448:	0100                	addi	s0,sp,128
    144a:	5900                	lw	s0,48(a0)
    144c:	00a4                	addi	s1,sp,72
    144e:	0000                	unimp
    1450:	0000                	unimp
    1452:	0000                	unimp
    1454:	010c                	addi	a1,sp,128
    1456:	0000                	unimp
    1458:	0000                	unimp
    145a:	0000                	unimp
    145c:	0001                	nop
    145e:	0c59                	addi	s8,s8,22
    1460:	0001                	nop
    1462:	0000                	unimp
    1464:	0000                	unimp
    1466:	1000                	addi	s0,sp,32
    1468:	0001                	nop
    146a:	0000                	unimp
    146c:	0000                	unimp
    146e:	0600                	addi	s0,sp,768
    1470:	8000                	0x8000
    1472:	8b00                	0x8b00
    1474:	1c00                	addi	s0,sp,560
    1476:	009f 0000 0000      	0x9f
	...
    148c:	0000                	unimp
    148e:	6400                	ld	s0,8(s0)
    1490:	0000                	unimp
    1492:	0000                	unimp
    1494:	0000                	unimp
    1496:	0100                	addi	s0,sp,128
    1498:	5d00                	lw	s0,56(a0)
    149a:	0064                	addi	s1,sp,12
    149c:	0000                	unimp
    149e:	0000                	unimp
    14a0:	0000                	unimp
    14a2:	0078                	addi	a4,sp,12
    14a4:	0000                	unimp
    14a6:	0000                	unimp
    14a8:	0000                	unimp
    14aa:	0001                	nop
    14ac:	7862                	ld	a6,56(sp)
    14ae:	0000                	unimp
    14b0:	0000                	unimp
    14b2:	0000                	unimp
    14b4:	9400                	0x9400
    14b6:	0000                	unimp
    14b8:	0000                	unimp
    14ba:	0000                	unimp
    14bc:	0300                	addi	s0,sp,384
    14be:	8900                	0x8900
    14c0:	9f78                	0x9f78
    14c2:	0094                	addi	a3,sp,64
    14c4:	0000                	unimp
    14c6:	0000                	unimp
    14c8:	0000                	unimp
    14ca:	00a4                	addi	s1,sp,72
    14cc:	0000                	unimp
    14ce:	0000                	unimp
    14d0:	0000                	unimp
    14d2:	0004                	0x4
    14d4:	9f5d01f3          	0x9f5d01f3
    14d8:	00a4                	addi	s1,sp,72
    14da:	0000                	unimp
    14dc:	0000                	unimp
    14de:	0000                	unimp
    14e0:	0110                	addi	a2,sp,128
    14e2:	0000                	unimp
    14e4:	0000                	unimp
    14e6:	0000                	unimp
    14e8:	0001                	nop
    14ea:	0062                	c.slli	zero,0x18
	...
    1500:	0000                	unimp
    1502:	6400                	ld	s0,8(s0)
    1504:	0000                	unimp
    1506:	0000                	unimp
    1508:	0000                	unimp
    150a:	0100                	addi	s0,sp,128
    150c:	5e00                	lw	s0,56(a2)
    150e:	0064                	addi	s1,sp,12
    1510:	0000                	unimp
    1512:	0000                	unimp
    1514:	0000                	unimp
    1516:	0084                	addi	s1,sp,64
    1518:	0000                	unimp
    151a:	0000                	unimp
    151c:	0000                	unimp
    151e:	0001                	nop
    1520:	8465                	srai	s0,s0,0x19
    1522:	0000                	unimp
    1524:	0000                	unimp
    1526:	0000                	unimp
    1528:	a400                	fsd	fs0,8(s0)
    152a:	0000                	unimp
    152c:	0000                	unimp
    152e:	0000                	unimp
    1530:	0400                	addi	s0,sp,512
    1532:	f300                	sd	s0,32(a4)
    1534:	5e01                	li	t3,-32
    1536:	a49f 0000 0000      	0xa49f
    153c:	0000                	unimp
    153e:	1000                	addi	s0,sp,32
    1540:	0001                	nop
    1542:	0000                	unimp
    1544:	0000                	unimp
    1546:	0100                	addi	s0,sp,128
    1548:	6500                	ld	s0,8(a0)
	...
    1562:	0064                	addi	s1,sp,12
    1564:	0000                	unimp
    1566:	0000                	unimp
    1568:	0000                	unimp
    156a:	0001                	nop
    156c:	645f 0000 0000      	0x645f
    1572:	0000                	unimp
    1574:	9800                	0x9800
    1576:	0000                	unimp
    1578:	0000                	unimp
    157a:	0000                	unimp
    157c:	0100                	addi	s0,sp,128
    157e:	6a00                	ld	s0,16(a2)
    1580:	00a4                	addi	s1,sp,72
    1582:	0000                	unimp
    1584:	0000                	unimp
    1586:	0000                	unimp
    1588:	0108                	addi	a0,sp,128
    158a:	0000                	unimp
    158c:	0000                	unimp
    158e:	0000                	unimp
    1590:	0001                	nop
    1592:	006a                	c.slli	zero,0x1a
	...
    15a8:	0000                	unimp
    15aa:	6400                	ld	s0,8(s0)
    15ac:	0000                	unimp
    15ae:	0000                	unimp
    15b0:	0000                	unimp
    15b2:	0100                	addi	s0,sp,128
    15b4:	6000                	ld	s0,0(s0)
    15b6:	0064                	addi	s1,sp,12
    15b8:	0000                	unimp
    15ba:	0000                	unimp
    15bc:	0000                	unimp
    15be:	0110                	addi	a2,sp,128
    15c0:	0000                	unimp
    15c2:	0000                	unimp
    15c4:	0000                	unimp
    15c6:	0004                	0x4
    15c8:	9f6001f3          	0x9f6001f3
	...
    15e4:	0064                	addi	s1,sp,12
    15e6:	0000                	unimp
    15e8:	0000                	unimp
    15ea:	0000                	unimp
    15ec:	0001                	nop
    15ee:	6461                	lui	s0,0x18
    15f0:	0000                	unimp
    15f2:	0000                	unimp
    15f4:	0000                	unimp
    15f6:	1000                	addi	s0,sp,32
    15f8:	0001                	nop
    15fa:	0000                	unimp
    15fc:	0000                	unimp
    15fe:	0400                	addi	s0,sp,512
    1600:	f300                	sd	s0,32(a4)
    1602:	6101                	addi	sp,sp,0
    1604:	009f 0000 0000      	0x9f
	...
    1612:	0000                	unimp
    1614:	b800                	fsd	fs0,48(s0)
    1616:	0000                	unimp
    1618:	0000                	unimp
    161a:	0000                	unimp
    161c:	f800                	sd	s0,48(s0)
    161e:	0000                	unimp
    1620:	0000                	unimp
    1622:	0000                	unimp
    1624:	0100                	addi	s0,sp,128
    1626:	5800                	lw	s0,48(s0)
    1628:	00f8                	addi	a4,sp,76
    162a:	0000                	unimp
    162c:	0000                	unimp
    162e:	0000                	unimp
    1630:	0110                	addi	a2,sp,128
    1632:	0000                	unimp
    1634:	0000                	unimp
    1636:	0000                	unimp
    1638:	0001                	nop
    163a:	0056                	c.slli	zero,0x15
	...
    1650:	0000                	unimp
    1652:	6400                	ld	s0,8(s0)
    1654:	0000                	unimp
    1656:	0000                	unimp
    1658:	0000                	unimp
    165a:	0200                	addi	s0,sp,256
    165c:	3000                	fld	fs0,32(s0)
    165e:	649f 0000 0000      	0x649f
    1664:	0000                	unimp
    1666:	a800                	fsd	fs0,16(s0)
    1668:	0000                	unimp
    166a:	0000                	unimp
    166c:	0000                	unimp
    166e:	0100                	addi	s0,sp,128
    1670:	5a00                	lw	s0,48(a2)
    1672:	00f8                	addi	a4,sp,76
    1674:	0000                	unimp
    1676:	0000                	unimp
    1678:	0000                	unimp
    167a:	0110                	addi	a2,sp,128
    167c:	0000                	unimp
    167e:	0000                	unimp
    1680:	0000                	unimp
    1682:	0001                	nop
    1684:	005a                	c.slli	zero,0x16
	...
    1692:	0000                	unimp
    1694:	e000                	sd	s0,0(s0)
    1696:	0000                	unimp
    1698:	0000                	unimp
    169a:	0000                	unimp
    169c:	1000                	addi	s0,sp,32
    169e:	0001                	nop
    16a0:	0000                	unimp
    16a2:	0000                	unimp
    16a4:	0100                	addi	s0,sp,128
    16a6:	6b00                	ld	s0,16(a4)
	...

Disassembly of section .debug_frame:

0000000000000000 <.debug_frame>:
   0:	000c                	0xc
   2:	0000                	unimp
   4:	ffffffff          	0xffffffff
   8:	7c010003          	lb	zero,1984(sp)
   c:	0d01                	addi	s10,s10,0
   e:	0002                	c.slli64	zero
  10:	0014                	0x14
  12:	0000                	unimp
  14:	0000                	unimp
  16:	0000                	unimp
  18:	0010                	0x10
  1a:	6100                	ld	s0,0(a0)
  1c:	0000                	unimp
  1e:	0000                	unimp
  20:	001c                	0x1c
  22:	0000                	unimp
  24:	0000                	unimp
  26:	0000                	unimp
  28:	0014                	0x14
  2a:	0000                	unimp
  2c:	0000                	unimp
  2e:	0000                	unimp
  30:	002c                	addi	a1,sp,8
  32:	6100                	ld	s0,0(a0)
  34:	0000                	unimp
  36:	0000                	unimp
  38:	0020                	addi	s0,sp,8
  3a:	0000                	unimp
  3c:	0000                	unimp
  3e:	0000                	unimp
  40:	0014                	0x14
  42:	0000                	unimp
  44:	0000                	unimp
  46:	0000                	unimp
  48:	004c                	addi	a1,sp,4
  4a:	6100                	ld	s0,0(a0)
  4c:	0000                	unimp
  4e:	0000                	unimp
  50:	0028                	addi	a0,sp,8
  52:	0000                	unimp
  54:	0000                	unimp
  56:	0000                	unimp
  58:	0014                	0x14
  5a:	0000                	unimp
  5c:	0000                	unimp
  5e:	0000                	unimp
  60:	0074                	addi	a3,sp,12
  62:	6100                	ld	s0,0(a0)
  64:	0000                	unimp
  66:	0000                	unimp
  68:	0014                	0x14
  6a:	0000                	unimp
  6c:	0000                	unimp
  6e:	0000                	unimp
  70:	0014                	0x14
  72:	0000                	unimp
  74:	0000                	unimp
  76:	0000                	unimp
  78:	0088                	addi	a0,sp,64
  7a:	6100                	ld	s0,0(a0)
  7c:	0000                	unimp
  7e:	0000                	unimp
  80:	0014                	0x14
  82:	0000                	unimp
  84:	0000                	unimp
  86:	0000                	unimp
  88:	0014                	0x14
  8a:	0000                	unimp
  8c:	0000                	unimp
  8e:	0000                	unimp
  90:	009c                	addi	a5,sp,64
  92:	6100                	ld	s0,0(a0)
  94:	0000                	unimp
  96:	0000                	unimp
  98:	003c                	addi	a5,sp,8
  9a:	0000                	unimp
  9c:	0000                	unimp
  9e:	0000                	unimp
  a0:	0014                	0x14
  a2:	0000                	unimp
  a4:	0000                	unimp
  a6:	0000                	unimp
  a8:	00d8                	addi	a4,sp,68
  aa:	6100                	ld	s0,0(a0)
  ac:	0000                	unimp
  ae:	0000                	unimp
  b0:	0014                	0x14
  b2:	0000                	unimp
  b4:	0000                	unimp
  b6:	0000                	unimp
  b8:	0014                	0x14
  ba:	0000                	unimp
  bc:	0000                	unimp
  be:	0000                	unimp
  c0:	00ec                	addi	a1,sp,76
  c2:	6100                	ld	s0,0(a0)
  c4:	0000                	unimp
  c6:	0000                	unimp
  c8:	0010                	0x10
  ca:	0000                	unimp
  cc:	0000                	unimp
  ce:	0000                	unimp
  d0:	0014                	0x14
  d2:	0000                	unimp
  d4:	0000                	unimp
  d6:	0000                	unimp
  d8:	00fc                	addi	a5,sp,76
  da:	6100                	ld	s0,0(a0)
  dc:	0000                	unimp
  de:	0000                	unimp
  e0:	0028                	addi	a0,sp,8
  e2:	0000                	unimp
  e4:	0000                	unimp
  e6:	0000                	unimp
  e8:	002c                	addi	a1,sp,8
  ea:	0000                	unimp
  ec:	0000                	unimp
  ee:	0000                	unimp
  f0:	0124                	addi	s1,sp,136
  f2:	6100                	ld	s0,0(a0)
  f4:	0000                	unimp
  f6:	0000                	unimp
  f8:	0064                	addi	s1,sp,12
  fa:	0000                	unimp
  fc:	0000                	unimp
  fe:	0000                	unimp
 100:	0e44                	addi	s1,sp,788
 102:	4c20                	lw	s0,88(s0)
 104:	0281                	addi	t0,t0,0
 106:	0488                	addi	a0,sp,576
 108:	0689                	addi	a3,a3,2
 10a:	4402                	lw	s0,0(sp)
 10c:	44c8                	lw	a0,12(s1)
 10e:	44c1                	li	s1,16
 110:	44c9                	li	s1,18
 112:	000e                	c.slli	zero,0x3
 114:	0000                	unimp
 116:	0000                	unimp
 118:	003c                	addi	a5,sp,8
 11a:	0000                	unimp
 11c:	0000                	unimp
 11e:	0000                	unimp
 120:	0188                	addi	a0,sp,192
 122:	6100                	ld	s0,0(a0)
 124:	0000                	unimp
 126:	0000                	unimp
 128:	00a4                	addi	s1,sp,72
 12a:	0000                	unimp
 12c:	0000                	unimp
 12e:	0000                	unimp
 130:	0e44                	addi	s1,sp,788
 132:	4c30                	lw	a2,88(s0)
 134:	0281                	addi	t0,t0,0
 136:	0488                	addi	a0,sp,576
 138:	0689                	addi	a3,a3,2
 13a:	9250                	0x9250
 13c:	9308                	0x9308
 13e:	480a                	lw	a6,128(sp)
 140:	0c94                	addi	a3,sp,592
 142:	6002                	0x6002
 144:	44c8                	lw	a0,12(s1)
 146:	44c1                	li	s1,16
 148:	44c9                	li	s1,18
 14a:	44d2                	lw	s1,20(sp)
 14c:	44d444d3          	0x44d444d3
 150:	000e                	c.slli	zero,0x3
 152:	0000                	unimp
 154:	0000                	unimp
 156:	0000                	unimp
 158:	0034                	addi	a3,sp,8
 15a:	0000                	unimp
 15c:	0000                	unimp
 15e:	0000                	unimp
 160:	022c                	addi	a1,sp,264
 162:	6100                	ld	s0,0(a0)
 164:	0000                	unimp
 166:	0000                	unimp
 168:	0094                	addi	a3,sp,64
 16a:	0000                	unimp
 16c:	0000                	unimp
 16e:	0000                	unimp
 170:	0e44                	addi	s1,sp,788
 172:	4c30                	lw	a2,88(s0)
 174:	0281                	addi	t0,t0,0
 176:	0488                	addi	a0,sp,576
 178:	0689                	addi	a3,a3,2
 17a:	9250                	0x9250
 17c:	9308                	0x9308
 17e:	020a                	slli	tp,tp,0x2
 180:	c85c                	sw	a5,20(s0)
 182:	c144                	sw	s1,4(a0)
 184:	c944                	sw	s1,20(a0)
 186:	d244                	sw	s1,36(a2)
 188:	d344                	sw	s1,36(a4)
 18a:	0e44                	addi	s1,sp,788
 18c:	0000                	unimp
 18e:	0000                	unimp
 190:	0024                	addi	s1,sp,8
 192:	0000                	unimp
 194:	0000                	unimp
 196:	0000                	unimp
 198:	02c0                	addi	s0,sp,324
 19a:	6100                	ld	s0,0(a0)
 19c:	0000                	unimp
 19e:	0000                	unimp
 1a0:	0038                	addi	a4,sp,8
 1a2:	0000                	unimp
 1a4:	0000                	unimp
 1a6:	0000                	unimp
 1a8:	0e44                	addi	s1,sp,788
 1aa:	4810                	lw	a2,16(s0)
 1ac:	0488                	addi	a0,sp,576
 1ae:	0281                	addi	t0,t0,0
 1b0:	c160                	sw	s0,68(a0)
 1b2:	c844                	sw	s1,20(s0)
 1b4:	0e44                	addi	s1,sp,788
 1b6:	0000                	unimp
 1b8:	002c                	addi	a1,sp,8
 1ba:	0000                	unimp
 1bc:	0000                	unimp
 1be:	0000                	unimp
 1c0:	02f8                	addi	a4,sp,332
 1c2:	6100                	ld	s0,0(a0)
 1c4:	0000                	unimp
 1c6:	0000                	unimp
 1c8:	0078                	addi	a4,sp,12
 1ca:	0000                	unimp
 1cc:	0000                	unimp
 1ce:	0000                	unimp
 1d0:	0e44                	addi	s1,sp,788
 1d2:	4c20                	lw	s0,88(s0)
 1d4:	0488                	addi	a0,sp,576
 1d6:	0689                	addi	a3,a3,2
 1d8:	0281                	addi	t0,t0,0
 1da:	0a70                	addi	a2,sp,284
 1dc:	44c1                	li	s1,16
 1de:	44c8                	lw	a0,12(s1)
 1e0:	44c9                	li	s1,18
 1e2:	000e                	c.slli	zero,0x3
 1e4:	0b44                	addi	s1,sp,404
 1e6:	0000                	unimp
 1e8:	002c                	addi	a1,sp,8
 1ea:	0000                	unimp
 1ec:	0000                	unimp
 1ee:	0000                	unimp
 1f0:	0370                	addi	a2,sp,396
 1f2:	6100                	ld	s0,0(a0)
 1f4:	0000                	unimp
 1f6:	0000                	unimp
 1f8:	004c                	addi	a1,sp,4
 1fa:	0000                	unimp
 1fc:	0000                	unimp
 1fe:	0000                	unimp
 200:	0e44                	addi	s1,sp,788
 202:	4c20                	lw	s0,88(s0)
 204:	0488                	addi	a0,sp,576
 206:	0689                	addi	a3,a3,2
 208:	0281                	addi	t0,t0,0
 20a:	c168                	sw	a0,68(a0)
 20c:	c844                	sw	s1,20(s0)
 20e:	c944                	sw	s1,20(a0)
 210:	0e48                	addi	a0,sp,788
 212:	0000                	unimp
 214:	0000                	unimp
 216:	0000                	unimp
 218:	0034                	addi	a3,sp,8
 21a:	0000                	unimp
 21c:	0000                	unimp
 21e:	0000                	unimp
 220:	03bc                	addi	a5,sp,456
 222:	6100                	ld	s0,0(a0)
 224:	0000                	unimp
 226:	0000                	unimp
 228:	0068                	addi	a0,sp,12
 22a:	0000                	unimp
 22c:	0000                	unimp
 22e:	0000                	unimp
 230:	0e44                	addi	s1,sp,788
 232:	5430                	lw	a2,104(s0)
 234:	0488                	addi	a0,sp,576
 236:	0689                	addi	a3,a3,2
 238:	0892                	slli	a7,a7,0x4
 23a:	02810a93          	addi	s5,sp,40
 23e:	0a5c                	addi	a5,sp,276
 240:	44c1                	li	s1,16
 242:	44c8                	lw	a0,12(s1)
 244:	44c9                	li	s1,18
 246:	44d2                	lw	s1,20(sp)
 248:	000e48d3          	fadd.s	fa7,ft8,ft0,rmm
 24c:	0b44                	addi	s1,sp,404
 24e:	0000                	unimp
 250:	0024                	addi	s1,sp,8
 252:	0000                	unimp
 254:	0000                	unimp
 256:	0000                	unimp
 258:	0424                	addi	s1,sp,520
 25a:	6100                	ld	s0,0(a0)
 25c:	0000                	unimp
 25e:	0000                	unimp
 260:	0028                	addi	a0,sp,8
 262:	0000                	unimp
 264:	0000                	unimp
 266:	0000                	unimp
 268:	0e44                	addi	s1,sp,788
 26a:	4810                	lw	a2,16(s0)
 26c:	0488                	addi	a0,sp,576
 26e:	0281                	addi	t0,t0,0
 270:	c850                	sw	a2,20(s0)
 272:	c144                	sw	s1,4(a0)
 274:	0e44                	addi	s1,sp,788
 276:	0000                	unimp
 278:	002c                	addi	a1,sp,8
 27a:	0000                	unimp
 27c:	0000                	unimp
 27e:	0000                	unimp
 280:	044c                	addi	a1,sp,516
 282:	6100                	ld	s0,0(a0)
 284:	0000                	unimp
 286:	0000                	unimp
 288:	005c                	addi	a5,sp,4
 28a:	0000                	unimp
 28c:	0000                	unimp
 28e:	0000                	unimp
 290:	0e44                	addi	s1,sp,788
 292:	4820                	lw	s0,80(s0)
 294:	0488                	addi	a0,sp,576
 296:	8954                	0x8954
 298:	8106                	mv	sp,ra
 29a:	6402                	ld	s0,0(sp)
 29c:	c10a                	sw	sp,128(sp)
 29e:	c844                	sw	s1,20(s0)
 2a0:	c944                	sw	s1,20(a0)
 2a2:	0e44                	addi	s1,sp,788
 2a4:	4400                	lw	s0,8(s0)
 2a6:	0034000b          	0x34000b
 2aa:	0000                	unimp
 2ac:	0000                	unimp
 2ae:	0000                	unimp
 2b0:	04a8                	addi	a0,sp,584
 2b2:	6100                	ld	s0,0(a0)
 2b4:	0000                	unimp
 2b6:	0000                	unimp
 2b8:	006c                	addi	a1,sp,12
 2ba:	0000                	unimp
 2bc:	0000                	unimp
 2be:	0000                	unimp
 2c0:	0e44                	addi	s1,sp,788
 2c2:	5430                	lw	a2,104(s0)
 2c4:	0488                	addi	a0,sp,576
 2c6:	0689                	addi	a3,a3,2
 2c8:	0892                	slli	a7,a7,0x4
 2ca:	02810a93          	addi	s5,sp,40
 2ce:	0a58                	addi	a4,sp,276
 2d0:	44c1                	li	s1,16
 2d2:	44c8                	lw	a0,12(s1)
 2d4:	44c9                	li	s1,18
 2d6:	44d2                	lw	s1,20(sp)
 2d8:	000e48d3          	fadd.s	fa7,ft8,ft0,rmm
 2dc:	0b44                	addi	s1,sp,404
 2de:	0000                	unimp
 2e0:	002c                	addi	a1,sp,8
 2e2:	0000                	unimp
 2e4:	0000                	unimp
 2e6:	0000                	unimp
 2e8:	0514                	addi	a3,sp,640
 2ea:	6100                	ld	s0,0(a0)
 2ec:	0000                	unimp
 2ee:	0000                	unimp
 2f0:	0080                	addi	s0,sp,64
 2f2:	0000                	unimp
 2f4:	0000                	unimp
 2f6:	0000                	unimp
 2f8:	0e44                	addi	s1,sp,788
 2fa:	5030                	lw	a2,96(s0)
 2fc:	0488                	addi	a0,sp,576
 2fe:	0689                	addi	a3,a3,2
 300:	0281                	addi	t0,t0,0
 302:	0a68                	addi	a0,sp,284
 304:	44c1                	li	s1,16
 306:	44c8                	lw	a0,12(s1)
 308:	44c9                	li	s1,18
 30a:	000e                	c.slli	zero,0x3
 30c:	0b44                	addi	s1,sp,404
 30e:	0000                	unimp
 310:	0024                	addi	s1,sp,8
 312:	0000                	unimp
 314:	0000                	unimp
 316:	0000                	unimp
 318:	0594                	addi	a3,sp,704
 31a:	6100                	ld	s0,0(a0)
 31c:	0000                	unimp
 31e:	0000                	unimp
 320:	0048                	addi	a0,sp,4
 322:	0000                	unimp
 324:	0000                	unimp
 326:	0000                	unimp
 328:	0e44                	addi	s1,sp,788
 32a:	5410                	lw	a2,40(s0)
 32c:	0281                	addi	t0,t0,0
 32e:	0488                	addi	a0,sp,576
 330:	c160                	sw	s0,68(a0)
 332:	c844                	sw	s1,20(s0)
 334:	0e48                	addi	a0,sp,788
 336:	0000                	unimp
 338:	003c                	addi	a5,sp,8
 33a:	0000                	unimp
 33c:	0000                	unimp
 33e:	0000                	unimp
 340:	05dc                	addi	a5,sp,708
 342:	6100                	ld	s0,0(a0)
 344:	0000                	unimp
 346:	0000                	unimp
 348:	00a0                	addi	s0,sp,72
 34a:	0000                	unimp
 34c:	0000                	unimp
 34e:	0000                	unimp
 350:	0e44                	addi	s1,sp,788
 352:	4440                	lw	s0,12(s0)
 354:	0892                	slli	a7,a7,0x4
 356:	815c                	0x815c
 358:	8802                	jr	a6
 35a:	8904                	0x8904
 35c:	9306                	add	t1,t1,ra
 35e:	940a                	add	s0,s0,sp
 360:	020c                	addi	a1,sp,256
 362:	c860                	sw	s0,84(s0)
 364:	c144                	sw	s1,4(a0)
 366:	c944                	sw	s1,20(a0)
 368:	d244                	sw	s1,36(a2)
 36a:	d344                	sw	s1,36(a4)
 36c:	d444                	sw	s1,44(s0)
 36e:	0e44                	addi	s1,sp,788
	...
 378:	0034                	addi	a3,sp,8
 37a:	0000                	unimp
 37c:	0000                	unimp
 37e:	0000                	unimp
 380:	067c                	addi	a5,sp,780
 382:	6100                	ld	s0,0(a0)
 384:	0000                	unimp
 386:	0000                	unimp
 388:	009c                	addi	a5,sp,64
 38a:	0000                	unimp
 38c:	0000                	unimp
 38e:	0000                	unimp
 390:	0e44                	addi	s1,sp,788
 392:	5830                	lw	a2,112(s0)
 394:	0281                	addi	t0,t0,0
 396:	0488                	addi	a0,sp,576
 398:	0689                	addi	a3,a3,2
 39a:	0892                	slli	a7,a7,0x4
 39c:	0c940a93          	addi	s5,s0,201 # 180c9 <_start-0x60fe7f37>
 3a0:	6002                	0x6002
 3a2:	44c1                	li	s1,16
 3a4:	44c8                	lw	a0,12(s1)
 3a6:	44c9                	li	s1,18
 3a8:	44d2                	lw	s1,20(sp)
 3aa:	48d444d3          	0x48d444d3
 3ae:	000e                	c.slli	zero,0x3
 3b0:	000c                	0xc
 3b2:	0000                	unimp
 3b4:	ffffffff          	0xffffffff
 3b8:	7c010003          	lb	zero,1984(sp)
 3bc:	0d01                	addi	s10,s10,0
 3be:	0002                	c.slli64	zero
 3c0:	0054                	addi	a3,sp,4
 3c2:	0000                	unimp
 3c4:	03b0                	addi	a2,sp,456
 3c6:	0000                	unimp
 3c8:	0718                	addi	a4,sp,896
 3ca:	6100                	ld	s0,0(a0)
 3cc:	0000                	unimp
 3ce:	0000                	unimp
 3d0:	0110                	addi	a2,sp,128
 3d2:	0000                	unimp
 3d4:	0000                	unimp
 3d6:	0000                	unimp
 3d8:	0e44                	addi	s1,sp,788
 3da:	0180                	addi	s0,sp,192
 3dc:	8968                	0x8968
 3de:	9206                	add	tp,tp,ra
 3e0:	9308                	0x9308
 3e2:	940a                	add	s0,s0,sp
 3e4:	950c                	0x950c
 3e6:	960e                	add	a2,a2,gp
 3e8:	9710                	0x9710
 3ea:	9812                	add	a6,a6,tp
 3ec:	9914                	0x9914
 3ee:	9a16                	add	s4,s4,t0
 3f0:	5018                	lw	a4,32(s0)
 3f2:	0281                	addi	t0,t0,0
 3f4:	0488                	addi	a0,sp,576
 3f6:	0a701a9b          	slli.uw	s5,zero,0x27
 3fa:	44c1                	li	s1,16
 3fc:	44c8                	lw	a0,12(s1)
 3fe:	44c9                	li	s1,18
 400:	44d2                	lw	s1,20(sp)
 402:	44d444d3          	0x44d444d3
 406:	44d5                	li	s1,21
 408:	44d6                	lw	s1,84(sp)
 40a:	44d844d7          	vmadc.vxm	v9,v13,a6,v0
 40e:	44d9                	li	s1,22
 410:	44da                	lw	s1,148(sp)
 412:	000e44db          	0xe44db
 416:	0b44                	addi	s1,sp,404
