
D:/work/2022/al9000/sw/debugger/al_openocd/contrib/loaders/flash/qspi/dwcssi/build/flash_async_riscv_32.elf:     file format elf32-littleriscv


Disassembly of section .text:

61000000 <_start>:
61000000:	00000117          	auipc	sp,0x0
61000004:	67c10113          	addi	sp,sp,1660 # 6100067c <stack_end>
61000008:	4c0000ef          	jal	ra,610004c8 <flash_dwcssi>
6100000c:	00100073          	ebreak

61000010 <wait_fifo>:
61000010:	00050793          	mv	a5,a0
61000014:	0007a703          	lw	a4,0(a5)
61000018:	0047a503          	lw	a0,4(a5)
6100001c:	fea70ce3          	beq	a4,a0,61000014 <wait_fifo+0x4>
61000020:	00008067          	ret

61000024 <dwcssi_get_bits>:
61000024:	00259593          	slli	a1,a1,0x2
61000028:	00b50533          	add	a0,a0,a1
6100002c:	00052783          	lw	a5,0(a0)
61000030:	00c7f7b3          	and	a5,a5,a2
61000034:	00d7d533          	srl	a0,a5,a3
61000038:	00008067          	ret

6100003c <dwcssi_set_bits>:
6100003c:	00259593          	slli	a1,a1,0x2
61000040:	00b50533          	add	a0,a0,a1
61000044:	00052783          	lw	a5,0(a0)
61000048:	00c7c633          	xor	a2,a5,a2
6100004c:	00d67633          	and	a2,a2,a3
61000050:	00f64633          	xor	a2,a2,a5
61000054:	00c52023          	sw	a2,0(a0)
61000058:	00008067          	ret

6100005c <dwcssi_disable>:
6100005c:	00852783          	lw	a5,8(a0)
61000060:	ffe7f793          	andi	a5,a5,-2
61000064:	00f52423          	sw	a5,8(a0)
61000068:	00008067          	ret

6100006c <dwcssi_enable>:
6100006c:	00852783          	lw	a5,8(a0)
61000070:	0017e793          	ori	a5,a5,1
61000074:	00f52423          	sw	a5,8(a0)
61000078:	00008067          	ret

6100007c <dwcssi_config_CTRLR0>:
6100007c:	01661613          	slli	a2,a2,0x16
61000080:	00c007b7          	lui	a5,0xc00
61000084:	00f67633          	and	a2,a2,a5
61000088:	00f5f593          	andi	a1,a1,15
6100008c:	00b665b3          	or	a1,a2,a1
61000090:	00001637          	lui	a2,0x1
61000094:	00a69693          	slli	a3,a3,0xa
61000098:	c0060613          	addi	a2,a2,-1024 # c00 <_start-0x60fff400>
6100009c:	00c6f633          	and	a2,a3,a2
610000a0:	00c016b7          	lui	a3,0xc01
610000a4:	00c5e633          	or	a2,a1,a2
610000a8:	c0f68693          	addi	a3,a3,-1009 # c00c0f <_start-0x603ff3f1>
610000ac:	00000593          	li	a1,0
610000b0:	f8dff06f          	j	6100003c <dwcssi_set_bits>

610000b4 <dwcssi_config_CTRLR1>:
610000b4:	000106b7          	lui	a3,0x10
610000b8:	fff68693          	addi	a3,a3,-1 # ffff <_start-0x60ff0001>
610000bc:	00d5f633          	and	a2,a1,a3
610000c0:	00100593          	li	a1,1
610000c4:	f79ff06f          	j	6100003c <dwcssi_set_bits>

610000c8 <dwcssi_config_TXFTLR>:
610000c8:	00ff06b7          	lui	a3,0xff0
610000cc:	01061613          	slli	a2,a2,0x10
610000d0:	00d67633          	and	a2,a2,a3
610000d4:	0ff5f593          	zext.b	a1,a1
610000d8:	00b66633          	or	a2,a2,a1
610000dc:	0ff68693          	addi	a3,a3,255 # ff00ff <_start-0x6000ff01>
610000e0:	00600593          	li	a1,6
610000e4:	f59ff06f          	j	6100003c <dwcssi_set_bits>

610000e8 <dwcssi_config_eeprom>:
610000e8:	ff410113          	addi	sp,sp,-12
610000ec:	00112423          	sw	ra,8(sp)
610000f0:	00812223          	sw	s0,4(sp)
610000f4:	00912023          	sw	s1,0(sp)
610000f8:	00050413          	mv	s0,a0
610000fc:	00058493          	mv	s1,a1
61000100:	f5dff0ef          	jal	ra,6100005c <dwcssi_disable>
61000104:	00300693          	li	a3,3
61000108:	00000613          	li	a2,0
6100010c:	00040513          	mv	a0,s0
61000110:	00700593          	li	a1,7
61000114:	f69ff0ef          	jal	ra,6100007c <dwcssi_config_CTRLR0>
61000118:	fff48593          	addi	a1,s1,-1
6100011c:	00040513          	mv	a0,s0
61000120:	f95ff0ef          	jal	ra,610000b4 <dwcssi_config_CTRLR1>
61000124:	00040513          	mv	a0,s0
61000128:	00000613          	li	a2,0
6100012c:	00000593          	li	a1,0
61000130:	f99ff0ef          	jal	ra,610000c8 <dwcssi_config_TXFTLR>
61000134:	00040513          	mv	a0,s0
61000138:	00412403          	lw	s0,4(sp)
6100013c:	00812083          	lw	ra,8(sp)
61000140:	00012483          	lw	s1,0(sp)
61000144:	00c10113          	addi	sp,sp,12
61000148:	f25ff06f          	j	6100006c <dwcssi_enable>

6100014c <dwcssi_config_tx>:
6100014c:	fec10113          	addi	sp,sp,-20
61000150:	00112823          	sw	ra,16(sp)
61000154:	00812623          	sw	s0,12(sp)
61000158:	00912423          	sw	s1,8(sp)
6100015c:	00050413          	mv	s0,a0
61000160:	00058493          	mv	s1,a1
61000164:	00c12223          	sw	a2,4(sp)
61000168:	00d12023          	sw	a3,0(sp)
6100016c:	ef1ff0ef          	jal	ra,6100005c <dwcssi_disable>
61000170:	00100693          	li	a3,1
61000174:	00048613          	mv	a2,s1
61000178:	00700593          	li	a1,7
6100017c:	00040513          	mv	a0,s0
61000180:	efdff0ef          	jal	ra,6100007c <dwcssi_config_CTRLR0>
61000184:	00012703          	lw	a4,0(sp)
61000188:	00000593          	li	a1,0
6100018c:	00040513          	mv	a0,s0
61000190:	00070613          	mv	a2,a4
61000194:	f35ff0ef          	jal	ra,610000c8 <dwcssi_config_TXFTLR>
61000198:	00200713          	li	a4,2
6100019c:	00412783          	lw	a5,4(sp)
610001a0:	02e49463          	bne	s1,a4,610001c8 <dwcssi_config_tx+0x7c>
610001a4:	fff78593          	addi	a1,a5,-1 # bfffff <_start-0x60400001>
610001a8:	00040513          	mv	a0,s0
610001ac:	f09ff0ef          	jal	ra,610000b4 <dwcssi_config_CTRLR1>
610001b0:	40000637          	lui	a2,0x40000
610001b4:	fff00693          	li	a3,-1
610001b8:	22060613          	addi	a2,a2,544 # 40000220 <_start-0x20fffde0>
610001bc:	03d00593          	li	a1,61
610001c0:	00040513          	mv	a0,s0
610001c4:	e79ff0ef          	jal	ra,6100003c <dwcssi_set_bits>
610001c8:	00040513          	mv	a0,s0
610001cc:	00c12403          	lw	s0,12(sp)
610001d0:	01012083          	lw	ra,16(sp)
610001d4:	00812483          	lw	s1,8(sp)
610001d8:	01410113          	addi	sp,sp,20
610001dc:	e91ff06f          	j	6100006c <dwcssi_enable>

610001e0 <dwcssi_txwm_wait>:
610001e0:	ff410113          	addi	sp,sp,-12
610001e4:	00812223          	sw	s0,4(sp)
610001e8:	00912023          	sw	s1,0(sp)
610001ec:	00112423          	sw	ra,8(sp)
610001f0:	00050413          	mv	s0,a0
610001f4:	3e900493          	li	s1,1001
610001f8:	00200693          	li	a3,2
610001fc:	00400613          	li	a2,4
61000200:	00a00593          	li	a1,10
61000204:	00040513          	mv	a0,s0
61000208:	e1dff0ef          	jal	ra,61000024 <dwcssi_get_bits>
6100020c:	02051263          	bnez	a0,61000230 <dwcssi_txwm_wait+0x50>
61000210:	fff48493          	addi	s1,s1,-1
61000214:	fe0492e3          	bnez	s1,610001f8 <dwcssi_txwm_wait+0x18>
61000218:	00200537          	lui	a0,0x200
6100021c:	00812083          	lw	ra,8(sp)
61000220:	00412403          	lw	s0,4(sp)
61000224:	00012483          	lw	s1,0(sp)
61000228:	00c10113          	addi	sp,sp,12
6100022c:	00008067          	ret
61000230:	3e900493          	li	s1,1001
61000234:	00000693          	li	a3,0
61000238:	00100613          	li	a2,1
6100023c:	00a00593          	li	a1,10
61000240:	00040513          	mv	a0,s0
61000244:	de1ff0ef          	jal	ra,61000024 <dwcssi_get_bits>
61000248:	fc050ae3          	beqz	a0,6100021c <dwcssi_txwm_wait+0x3c>
6100024c:	fff48493          	addi	s1,s1,-1
61000250:	fe0492e3          	bnez	s1,61000234 <dwcssi_txwm_wait+0x54>
61000254:	fc5ff06f          	j	61000218 <dwcssi_txwm_wait+0x38>

61000258 <dwcssi_tx>:
61000258:	ff410113          	addi	sp,sp,-12
6100025c:	00812223          	sw	s0,4(sp)
61000260:	00912023          	sw	s1,0(sp)
61000264:	00112423          	sw	ra,8(sp)
61000268:	00050413          	mv	s0,a0
6100026c:	00058493          	mv	s1,a1
61000270:	00100693          	li	a3,1
61000274:	00200613          	li	a2,2
61000278:	00a00593          	li	a1,10
6100027c:	00040513          	mv	a0,s0
61000280:	da5ff0ef          	jal	ra,61000024 <dwcssi_get_bits>
61000284:	fe0506e3          	beqz	a0,61000270 <dwcssi_tx+0x18>
61000288:	06942023          	sw	s1,96(s0)
6100028c:	00812083          	lw	ra,8(sp)
61000290:	00412403          	lw	s0,4(sp)
61000294:	00012483          	lw	s1,0(sp)
61000298:	00000513          	li	a0,0
6100029c:	00c10113          	addi	sp,sp,12
610002a0:	00008067          	ret

610002a4 <dwcssi_tx_buf_no_wait>:
610002a4:	ff010113          	addi	sp,sp,-16
610002a8:	00812423          	sw	s0,8(sp)
610002ac:	00912223          	sw	s1,4(sp)
610002b0:	00112623          	sw	ra,12(sp)
610002b4:	00050793          	mv	a5,a0
610002b8:	00058413          	mv	s0,a1
610002bc:	00c584b3          	add	s1,a1,a2
610002c0:	00941e63          	bne	s0,s1,610002dc <dwcssi_tx_buf_no_wait+0x38>
610002c4:	00c12083          	lw	ra,12(sp)
610002c8:	00812403          	lw	s0,8(sp)
610002cc:	00412483          	lw	s1,4(sp)
610002d0:	00000513          	li	a0,0
610002d4:	01010113          	addi	sp,sp,16
610002d8:	00008067          	ret
610002dc:	00044583          	lbu	a1,0(s0)
610002e0:	00078513          	mv	a0,a5
610002e4:	00f12023          	sw	a5,0(sp)
610002e8:	f71ff0ef          	jal	ra,61000258 <dwcssi_tx>
610002ec:	00012783          	lw	a5,0(sp)
610002f0:	00140413          	addi	s0,s0,1
610002f4:	fcdff06f          	j	610002c0 <dwcssi_tx_buf_no_wait+0x1c>

610002f8 <dwcssi_tx_buf>:
610002f8:	ff410113          	addi	sp,sp,-12
610002fc:	00812223          	sw	s0,4(sp)
61000300:	00112423          	sw	ra,8(sp)
61000304:	00050413          	mv	s0,a0
61000308:	f9dff0ef          	jal	ra,610002a4 <dwcssi_tx_buf_no_wait>
6100030c:	00040513          	mv	a0,s0
61000310:	00412403          	lw	s0,4(sp)
61000314:	00812083          	lw	ra,8(sp)
61000318:	00c10113          	addi	sp,sp,12
6100031c:	ec5ff06f          	j	610001e0 <dwcssi_txwm_wait>

61000320 <dwcssi_rx>:
61000320:	ff410113          	addi	sp,sp,-12
61000324:	00812223          	sw	s0,4(sp)
61000328:	00000693          	li	a3,0
6100032c:	00058413          	mv	s0,a1
61000330:	fff00613          	li	a2,-1
61000334:	00a00593          	li	a1,10
61000338:	00912023          	sw	s1,0(sp)
6100033c:	00112423          	sw	ra,8(sp)
61000340:	00050493          	mv	s1,a0
61000344:	ce1ff0ef          	jal	ra,61000024 <dwcssi_get_bits>
61000348:	00355793          	srli	a5,a0,0x3
6100034c:	0017f793          	andi	a5,a5,1
61000350:	00100537          	lui	a0,0x100
61000354:	00078a63          	beqz	a5,61000368 <dwcssi_rx+0x48>
61000358:	0604a783          	lw	a5,96(s1)
6100035c:	00000513          	li	a0,0
61000360:	00040463          	beqz	s0,61000368 <dwcssi_rx+0x48>
61000364:	00f40023          	sb	a5,0(s0)
61000368:	00812083          	lw	ra,8(sp)
6100036c:	00412403          	lw	s0,4(sp)
61000370:	00012483          	lw	s1,0(sp)
61000374:	00c10113          	addi	sp,sp,12
61000378:	00008067          	ret

6100037c <dwcssi_wait_flash_idle>:
6100037c:	ff010113          	addi	sp,sp,-16
61000380:	00100593          	li	a1,1
61000384:	00812423          	sw	s0,8(sp)
61000388:	00912223          	sw	s1,4(sp)
6100038c:	00112623          	sw	ra,12(sp)
61000390:	00050413          	mv	s0,a0
61000394:	00310493          	addi	s1,sp,3
61000398:	d51ff0ef          	jal	ra,610000e8 <dwcssi_config_eeprom>
6100039c:	00500593          	li	a1,5
610003a0:	00040513          	mv	a0,s0
610003a4:	eb5ff0ef          	jal	ra,61000258 <dwcssi_tx>
610003a8:	00050e63          	beqz	a0,610003c4 <dwcssi_wait_flash_idle+0x48>
610003ac:	20056513          	ori	a0,a0,512
610003b0:	00c12083          	lw	ra,12(sp)
610003b4:	00812403          	lw	s0,8(sp)
610003b8:	00412483          	lw	s1,4(sp)
610003bc:	01010113          	addi	sp,sp,16
610003c0:	00008067          	ret
610003c4:	00040513          	mv	a0,s0
610003c8:	e19ff0ef          	jal	ra,610001e0 <dwcssi_txwm_wait>
610003cc:	02051263          	bnez	a0,610003f0 <dwcssi_wait_flash_idle+0x74>
610003d0:	00048593          	mv	a1,s1
610003d4:	00040513          	mv	a0,s0
610003d8:	f49ff0ef          	jal	ra,61000320 <dwcssi_rx>
610003dc:	fc0510e3          	bnez	a0,6100039c <dwcssi_wait_flash_idle+0x20>
610003e0:	00314783          	lbu	a5,3(sp)
610003e4:	0017f793          	andi	a5,a5,1
610003e8:	fa079ae3          	bnez	a5,6100039c <dwcssi_wait_flash_idle+0x20>
610003ec:	fc5ff06f          	j	610003b0 <dwcssi_wait_flash_idle+0x34>
610003f0:	30000513          	li	a0,768
610003f4:	fbdff06f          	j	610003b0 <dwcssi_wait_flash_idle+0x34>

610003f8 <dwcssi_flash_wr_en>:
610003f8:	ff410113          	addi	sp,sp,-12
610003fc:	00000693          	li	a3,0
61000400:	00000613          	li	a2,0
61000404:	00112423          	sw	ra,8(sp)
61000408:	00812223          	sw	s0,4(sp)
6100040c:	00050413          	mv	s0,a0
61000410:	d3dff0ef          	jal	ra,6100014c <dwcssi_config_tx>
61000414:	00600593          	li	a1,6
61000418:	00040513          	mv	a0,s0
6100041c:	e3dff0ef          	jal	ra,61000258 <dwcssi_tx>
61000420:	00040513          	mv	a0,s0
61000424:	dbdff0ef          	jal	ra,610001e0 <dwcssi_txwm_wait>
61000428:	00812083          	lw	ra,8(sp)
6100042c:	00412403          	lw	s0,4(sp)
61000430:	00000513          	li	a0,0
61000434:	00c10113          	addi	sp,sp,12
61000438:	00008067          	ret

6100043c <dwcssi_write_buffer>:
6100043c:	fe810113          	addi	sp,sp,-24
61000440:	00b12423          	sw	a1,8(sp)
61000444:	00000593          	li	a1,0
61000448:	00112a23          	sw	ra,20(sp)
6100044c:	00812823          	sw	s0,16(sp)
61000450:	00912623          	sw	s1,12(sp)
61000454:	00050413          	mv	s0,a0
61000458:	00068493          	mv	s1,a3
6100045c:	00e12023          	sw	a4,0(sp)
61000460:	00c12223          	sw	a2,4(sp)
61000464:	f95ff0ef          	jal	ra,610003f8 <dwcssi_flash_wr_en>
61000468:	00048613          	mv	a2,s1
6100046c:	00400693          	li	a3,4
61000470:	00040513          	mv	a0,s0
61000474:	00200593          	li	a1,2
61000478:	cd5ff0ef          	jal	ra,6100014c <dwcssi_config_tx>
6100047c:	00012703          	lw	a4,0(sp)
61000480:	00040513          	mv	a0,s0
61000484:	00070593          	mv	a1,a4
61000488:	dd1ff0ef          	jal	ra,61000258 <dwcssi_tx>
6100048c:	00412303          	lw	t1,4(sp)
61000490:	00040513          	mv	a0,s0
61000494:	00030593          	mv	a1,t1
61000498:	dc1ff0ef          	jal	ra,61000258 <dwcssi_tx>
6100049c:	00812783          	lw	a5,8(sp)
610004a0:	00048613          	mv	a2,s1
610004a4:	00040513          	mv	a0,s0
610004a8:	00078593          	mv	a1,a5
610004ac:	e4dff0ef          	jal	ra,610002f8 <dwcssi_tx_buf>
610004b0:	00040513          	mv	a0,s0
610004b4:	01012403          	lw	s0,16(sp)
610004b8:	01412083          	lw	ra,20(sp)
610004bc:	00c12483          	lw	s1,12(sp)
610004c0:	01810113          	addi	sp,sp,24
610004c4:	eb9ff06f          	j	6100037c <dwcssi_wait_flash_idle>

610004c8 <flash_dwcssi>:
610004c8:	fd810113          	addi	sp,sp,-40
610004cc:	00912e23          	sw	s1,28(sp)
610004d0:	00060493          	mv	s1,a2
610004d4:	00078613          	mv	a2,a5
610004d8:	00868793          	addi	a5,a3,8
610004dc:	02812023          	sw	s0,32(sp)
610004e0:	00a12223          	sw	a0,4(sp)
610004e4:	02112223          	sw	ra,36(sp)
610004e8:	00b12023          	sw	a1,0(sp)
610004ec:	00068413          	mv	s0,a3
610004f0:	00e12423          	sw	a4,8(sp)
610004f4:	00000513          	li	a0,0
610004f8:	00f12623          	sw	a5,12(sp)
610004fc:	00904c63          	bgtz	s1,61000514 <flash_dwcssi+0x4c>
61000500:	02412083          	lw	ra,36(sp)
61000504:	02012403          	lw	s0,32(sp)
61000508:	01c12483          	lw	s1,28(sp)
6100050c:	02810113          	addi	sp,sp,40
61000510:	00008067          	ret
61000514:	00040513          	mv	a0,s0
61000518:	00c12823          	sw	a2,16(sp)
6100051c:	af5ff0ef          	jal	ra,61000010 <wait_fifo>
61000520:	00012783          	lw	a5,0(sp)
61000524:	01012603          	lw	a2,16(sp)
61000528:	00050593          	mv	a1,a0
6100052c:	00048693          	mv	a3,s1
61000530:	00f4c463          	blt	s1,a5,61000538 <flash_dwcssi+0x70>
61000534:	00078693          	mv	a3,a5
61000538:	02812703          	lw	a4,40(sp)
6100053c:	00412503          	lw	a0,4(sp)
61000540:	00d12c23          	sw	a3,24(sp)
61000544:	00c12a23          	sw	a2,20(sp)
61000548:	00b12823          	sw	a1,16(sp)
6100054c:	ef1ff0ef          	jal	ra,6100043c <dwcssi_write_buffer>
61000550:	01012583          	lw	a1,16(sp)
61000554:	01812683          	lw	a3,24(sp)
61000558:	00812783          	lw	a5,8(sp)
6100055c:	01412603          	lw	a2,20(sp)
61000560:	00d585b3          	add	a1,a1,a3
61000564:	00f59463          	bne	a1,a5,6100056c <flash_dwcssi+0xa4>
61000568:	00c12583          	lw	a1,12(sp)
6100056c:	00b42223          	sw	a1,4(s0)
61000570:	00d60633          	add	a2,a2,a3
61000574:	40d484b3          	sub	s1,s1,a3
61000578:	f85ff06f          	j	610004fc <flash_dwcssi+0x34>

Disassembly of section .data:

6100057c <stack>:
6100057c:	5309                	li	t1,-30
6100057e:	53090867          	jalr	a6,1328(s2)
61000582:	53090867          	jalr	a6,1328(s2)
61000586:	53090867          	jalr	a6,1328(s2)
6100058a:	53090867          	jalr	a6,1328(s2)
6100058e:	53090867          	jalr	a6,1328(s2)
61000592:	53090867          	jalr	a6,1328(s2)
61000596:	53090867          	jalr	a6,1328(s2)
6100059a:	53090867          	jalr	a6,1328(s2)
6100059e:	53090867          	jalr	a6,1328(s2)
610005a2:	53090867          	jalr	a6,1328(s2)
610005a6:	53090867          	jalr	a6,1328(s2)
610005aa:	53090867          	jalr	a6,1328(s2)
610005ae:	53090867          	jalr	a6,1328(s2)
610005b2:	53090867          	jalr	a6,1328(s2)
610005b6:	53090867          	jalr	a6,1328(s2)
610005ba:	53090867          	jalr	a6,1328(s2)
610005be:	53090867          	jalr	a6,1328(s2)
610005c2:	53090867          	jalr	a6,1328(s2)
610005c6:	53090867          	jalr	a6,1328(s2)
610005ca:	53090867          	jalr	a6,1328(s2)
610005ce:	53090867          	jalr	a6,1328(s2)
610005d2:	53090867          	jalr	a6,1328(s2)
610005d6:	53090867          	jalr	a6,1328(s2)
610005da:	53090867          	jalr	a6,1328(s2)
610005de:	53090867          	jalr	a6,1328(s2)
610005e2:	53090867          	jalr	a6,1328(s2)
610005e6:	53090867          	jalr	a6,1328(s2)
610005ea:	53090867          	jalr	a6,1328(s2)
610005ee:	53090867          	jalr	a6,1328(s2)
610005f2:	53090867          	jalr	a6,1328(s2)
610005f6:	53090867          	jalr	a6,1328(s2)
610005fa:	53090867          	jalr	a6,1328(s2)
610005fe:	53090867          	jalr	a6,1328(s2)
61000602:	53090867          	jalr	a6,1328(s2)
61000606:	53090867          	jalr	a6,1328(s2)
6100060a:	53090867          	jalr	a6,1328(s2)
6100060e:	53090867          	jalr	a6,1328(s2)
61000612:	53090867          	jalr	a6,1328(s2)
61000616:	53090867          	jalr	a6,1328(s2)
6100061a:	53090867          	jalr	a6,1328(s2)
6100061e:	53090867          	jalr	a6,1328(s2)
61000622:	53090867          	jalr	a6,1328(s2)
61000626:	53090867          	jalr	a6,1328(s2)
6100062a:	53090867          	jalr	a6,1328(s2)
6100062e:	53090867          	jalr	a6,1328(s2)
61000632:	53090867          	jalr	a6,1328(s2)
61000636:	53090867          	jalr	a6,1328(s2)
6100063a:	53090867          	jalr	a6,1328(s2)
6100063e:	53090867          	jalr	a6,1328(s2)
61000642:	53090867          	jalr	a6,1328(s2)
61000646:	53090867          	jalr	a6,1328(s2)
6100064a:	53090867          	jalr	a6,1328(s2)
6100064e:	53090867          	jalr	a6,1328(s2)
61000652:	53090867          	jalr	a6,1328(s2)
61000656:	53090867          	jalr	a6,1328(s2)
6100065a:	53090867          	jalr	a6,1328(s2)
6100065e:	53090867          	jalr	a6,1328(s2)
61000662:	53090867          	jalr	a6,1328(s2)
61000666:	53090867          	jalr	a6,1328(s2)
6100066a:	53090867          	jalr	a6,1328(s2)
6100066e:	53090867          	jalr	a6,1328(s2)
61000672:	53090867          	jalr	a6,1328(s2)
61000676:	53090867          	jalr	a6,1328(s2)
6100067a:	          	jalr	a6,zero # 0 <_start-0x61000000>

Disassembly of section .riscv.attributes:

00000000 <.riscv.attributes>:
   0:	1b41                	addi	s6,s6,-16
   2:	0000                	unimp
   4:	7200                	flw	fs0,32(a2)
   6:	7369                	lui	t1,0xffffa
   8:	01007663          	bgeu	zero,a6,14 <_start-0x60ffffec>
   c:	0011                	c.nop	4
   e:	0000                	unimp
  10:	0404                	addi	s1,sp,512
  12:	7205                	lui	tp,0xfffe1
  14:	3376                	fld	ft6,376(sp)
  16:	6532                	flw	fa0,12(sp)
  18:	7031                	c.lui	zero,0xfffec
  1a:	0039                	c.nop	14

Disassembly of section .comment:

00000000 <.comment>:
   0:	3a434347          	fmsub.d	ft6,ft6,ft4,ft7,rmm
   4:	2820                	fld	fs0,80(s0)
   6:	29554e47          	fmsub.s	ft8,fa0,fs5,ft5,rmm
   a:	3120                	fld	fs0,96(a0)
   c:	2e30                	fld	fa2,88(a2)
   e:	2e32                	fld	ft8,264(sp)
  10:	0030                	addi	a2,sp,8

Disassembly of section .debug_line:

00000000 <.debug_line>:
   0:	009e                	slli	ra,ra,0x7
   2:	0000                	unimp
   4:	007c0003          	lb	zero,7(s8)
   8:	0000                	unimp
   a:	0101                	addi	sp,sp,0
   c:	000d0efb          	dkhmx8	t4,s10,zero
  10:	0101                	addi	sp,sp,0
  12:	0101                	addi	sp,sp,0
  14:	0000                	unimp
  16:	0100                	addi	s0,sp,128
  18:	0000                	unimp
  1a:	4401                	li	s0,0
  1c:	2f3a                	fld	ft10,392(sp)
  1e:	6b726f77          	0x6b726f77
  22:	3230322f          	0x3230322f
  26:	2f32                	fld	ft10,264(sp)
  28:	6c61                	lui	s8,0x18
  2a:	3039                	jal	fffff838 <stack_end+0x9efff1bc>
  2c:	3030                	fld	fa2,96(s0)
  2e:	2f77732f          	0x2f77732f
  32:	6564                	flw	fs1,76(a0)
  34:	7562                	flw	fa0,56(sp)
  36:	72656767          	0x72656767
  3a:	5f6c612f          	0x5f6c612f
  3e:	6e65706f          	j	57724 <_start-0x60fa88dc>
  42:	2f64636f          	jal	t1,46338 <_start-0x60fb9cc8>
  46:	746e6f63          	bltu	t3,t1,7a4 <_start-0x60fff85c>
  4a:	6972                	flw	fs2,28(sp)
  4c:	2f62                	fld	ft10,24(sp)
  4e:	6f6c                	flw	fa1,92(a4)
  50:	6461                	lui	s0,0x18
  52:	7265                	lui	tp,0xffff9
  54:	6c662f73          	csrrs	t5,0x6c6,a2
  58:	7361                	lui	t1,0xffff8
  5a:	2f68                	fld	fa0,216(a4)
  5c:	7371                	lui	t1,0xffffc
  5e:	6970                	flw	fa2,84(a0)
  60:	6377642f          	0x6377642f
  64:	2f697373          	csrrci	t1,0x2f6,18
  68:	2f637273          	csrrci	tp,0x2f6,6
  6c:	6f62                	flw	ft10,24(sp)
  6e:	722f746f          	jal	s0,f7790 <_start-0x60f08870>
  72:	7369                	lui	t1,0xffffa
  74:	00007663          	bgeu	zero,zero,80 <_start-0x60ffff80>
  78:	70617277          	0x70617277
  7c:	6570                	flw	fa2,76(a0)
  7e:	2e72                	fld	ft8,280(sp)
  80:	00010053          	fadd.s	ft0,ft2,ft0,rne
  84:	0000                	unimp
  86:	0500                	addi	s0,sp,640
  88:	0002                	c.slli64	zero
  8a:	0000                	unimp
  8c:	0361                	addi	t1,t1,24
  8e:	010d                	addi	sp,sp,3
  90:	08090103          	lb	sp,128(s2)
  94:	0100                	addi	s0,sp,128
  96:	04090103          	lb	sp,64(s2)
  9a:	0100                	addi	s0,sp,128
  9c:	0409                	addi	s0,s0,2
  9e:	0000                	unimp
  a0:	0101                	addi	sp,sp,0
  a2:	0829                	addi	a6,a6,10
  a4:	0000                	unimp
  a6:	013d0003          	lb	zero,19(s10)
  aa:	0000                	unimp
  ac:	0101                	addi	sp,sp,0
  ae:	000d0efb          	dkhmx8	t4,s10,zero
  b2:	0101                	addi	sp,sp,0
  b4:	0101                	addi	sp,sp,0
  b6:	0000                	unimp
  b8:	0100                	addi	s0,sp,128
  ba:	0000                	unimp
  bc:	4401                	li	s0,0
  be:	2f3a                	fld	ft10,392(sp)
  c0:	6b726f77          	0x6b726f77
  c4:	3230322f          	0x3230322f
  c8:	2f32                	fld	ft10,264(sp)
  ca:	6c61                	lui	s8,0x18
  cc:	3039                	jal	fffff8da <stack_end+0x9efff25e>
  ce:	3030                	fld	fa2,96(s0)
  d0:	2f77732f          	0x2f77732f
  d4:	6564                	flw	fs1,76(a0)
  d6:	7562                	flw	fa0,56(sp)
  d8:	72656767          	0x72656767
  dc:	5f6c612f          	0x5f6c612f
  e0:	6e65706f          	j	577c6 <_start-0x60fa883a>
  e4:	2f64636f          	jal	t1,463da <_start-0x60fb9c26>
  e8:	746e6f63          	bltu	t3,t1,846 <_start-0x60fff7ba>
  ec:	6972                	flw	fs2,28(sp)
  ee:	2f62                	fld	ft10,24(sp)
  f0:	6f6c                	flw	fa1,92(a4)
  f2:	6461                	lui	s0,0x18
  f4:	7265                	lui	tp,0xffff9
  f6:	6c662f73          	csrrs	t5,0x6c6,a2
  fa:	7361                	lui	t1,0xffff8
  fc:	2f68                	fld	fa0,216(a4)
  fe:	7371                	lui	t1,0xffffc
 100:	6970                	flw	fa2,84(a0)
 102:	6377642f          	0x6377642f
 106:	2f697373          	csrrci	t1,0x2f6,18
 10a:	00637273          	csrrci	tp,0x6,6
 10e:	3a64                	fld	fs1,240(a2)
 110:	775c                	flw	fa5,44(a4)
 112:	5c6b726f          	jal	tp,b76d8 <_start-0x60f48928>
 116:	3032                	fld	ft0,296(sp)
 118:	3232                	fld	ft4,296(sp)
 11a:	615c                	flw	fa5,4(a0)
 11c:	396c                	fld	fa1,240(a0)
 11e:	3030                	fld	fa2,96(s0)
 120:	5c30                	lw	a2,120(s0)
 122:	735c7773          	csrrci	a4,0x735,24
 126:	6b64                	flw	fs1,84(a4)
 128:	735c                	flw	fa5,36(a4)
 12a:	612d636f          	jal	t1,d673c <_start-0x60f298c4>
 12e:	7570                	flw	fa2,108(a0)
 130:	732d                	lui	t1,0xfffeb
 132:	6b64                	flw	fs1,84(a4)
 134:	745c                	flw	fa5,44(s0)
 136:	736c6f6f          	jal	t5,c686c <_start-0x60f39794>
 13a:	775c                	flw	fa5,44(a4)
 13c:	6e69                	lui	t3,0x1a
 13e:	725c                	flw	fa5,36(a2)
 140:	7369                	lui	t1,0xffffa
 142:	725c7663          	bgeu	s8,t0,86e <_start-0x60fff792>
 146:	7369                	lui	t1,0xffffa
 148:	6e2d7663          	bgeu	s10,sp,834 <_start-0x60fff7cc>
 14c:	6375                	lui	t1,0x1d
 14e:	656c                	flw	fa1,76(a0)
 150:	2d69                	jal	7ea <_start-0x60fff816>
 152:	6c65                	lui	s8,0x19
 154:	5c66                	lw	s8,120(sp)
 156:	6e69                	lui	t3,0x1a
 158:	64756c63          	bltu	a0,t2,7b0 <_start-0x60fff850>
 15c:	5c65                	li	s8,-7
 15e:	616d                	addi	sp,sp,240
 160:	6e696863          	bltu	s2,t1,850 <_start-0x60fff7b0>
 164:	0065                	c.nop	25
 166:	3a64                	fld	fs1,240(a2)
 168:	775c                	flw	fa5,44(a4)
 16a:	5c6b726f          	jal	tp,b7730 <_start-0x60f488d0>
 16e:	3032                	fld	ft0,296(sp)
 170:	3232                	fld	ft4,296(sp)
 172:	615c                	flw	fa5,4(a0)
 174:	396c                	fld	fa1,240(a0)
 176:	3030                	fld	fa2,96(s0)
 178:	5c30                	lw	a2,120(s0)
 17a:	735c7773          	csrrci	a4,0x735,24
 17e:	6b64                	flw	fs1,84(a4)
 180:	735c                	flw	fa5,36(a4)
 182:	612d636f          	jal	t1,d6794 <_start-0x60f2986c>
 186:	7570                	flw	fa2,108(a0)
 188:	732d                	lui	t1,0xfffeb
 18a:	6b64                	flw	fs1,84(a4)
 18c:	745c                	flw	fa5,44(s0)
 18e:	736c6f6f          	jal	t5,c68c4 <_start-0x60f3973c>
 192:	775c                	flw	fa5,44(a4)
 194:	6e69                	lui	t3,0x1a
 196:	725c                	flw	fa5,36(a2)
 198:	7369                	lui	t1,0xffffa
 19a:	725c7663          	bgeu	s8,t0,8c6 <_start-0x60fff73a>
 19e:	7369                	lui	t1,0xffffa
 1a0:	6e2d7663          	bgeu	s10,sp,88c <_start-0x60fff774>
 1a4:	6375                	lui	t1,0x1d
 1a6:	656c                	flw	fa1,76(a0)
 1a8:	2d69                	jal	842 <_start-0x60fff7be>
 1aa:	6c65                	lui	s8,0x19
 1ac:	5c66                	lw	s8,120(sp)
 1ae:	6e69                	lui	t3,0x1a
 1b0:	64756c63          	bltu	a0,t2,808 <_start-0x60fff7f8>
 1b4:	5c65                	li	s8,-7
 1b6:	00737973          	csrrci	s2,0x7,6
 1ba:	6400                	flw	fs0,8(s0)
 1bc:	73736377          	0x73736377
 1c0:	2e69                	jal	55a <_start-0x60fffaa6>
 1c2:	00010063          	beqz	sp,1c2 <_start-0x60fffe3e>
 1c6:	5f00                	lw	s0,56(a4)
 1c8:	6564                	flw	fs1,76(a0)
 1ca:	6166                	flw	ft2,88(sp)
 1cc:	6c75                	lui	s8,0x1d
 1ce:	5f74                	lw	a3,124(a4)
 1d0:	7974                	flw	fa3,116(a0)
 1d2:	6570                	flw	fa2,76(a0)
 1d4:	00682e73          	csrrs	t3,0x6,a6
 1d8:	0002                	c.slli64	zero
 1da:	5f00                	lw	s0,56(a4)
 1dc:	69647473          	csrrci	s0,0x696,8
 1e0:	746e                	flw	fs0,248(sp)
 1e2:	682e                	flw	fa6,200(sp)
 1e4:	0300                	addi	s0,sp,384
 1e6:	0000                	unimp
 1e8:	0500                	addi	s0,sp,640
 1ea:	0001                	nop
 1ec:	0205                	addi	tp,tp,1
 1ee:	0010                	0x10
 1f0:	6100                	flw	fs0,0(a0)
 1f2:	01018d03          	lb	s10,16(gp)
 1f6:	0505                	addi	a0,a0,1
 1f8:	04090103          	lb	sp,64(s2)
 1fc:	0100                	addi	s0,sp,128
 1fe:	00090103          	lb	sp,0(s2)
 202:	0100                	addi	s0,sp,128
 204:	0a05                	addi	s4,s4,1
 206:	00090003          	lb	zero,0(s2)
 20a:	0100                	addi	s0,sp,128
 20c:	0905                	addi	s2,s2,1
 20e:	00090203          	lb	tp,0(s2)
 212:	0100                	addi	s0,sp,128
 214:	0c05                	addi	s8,s8,1
 216:	0306                	slli	t1,t1,0x1
 218:	0900                	addi	s0,sp,144
 21a:	0000                	unimp
 21c:	0501                	addi	a0,a0,0
 21e:	0609                	addi	a2,a2,2
 220:	04090103          	lb	sp,64(s2)
 224:	0100                	addi	s0,sp,128
 226:	0c05                	addi	s8,s8,1
 228:	0306                	slli	t1,t1,0x1
 22a:	0900                	addi	s0,sp,144
 22c:	0000                	unimp
 22e:	0501                	addi	a0,a0,0
 230:	060a                	slli	a2,a2,0x2
 232:	04097d03          	0x4097d03
 236:	0100                	addi	s0,sp,128
 238:	0505                	addi	a0,a0,1
 23a:	04090503          	lb	a0,64(s2)
 23e:	0100                	addi	s0,sp,128
 240:	0105                	addi	sp,sp,1
 242:	0306                	slli	t1,t1,0x1
 244:	0901                	addi	s2,s2,0
 246:	0000                	unimp
 248:	0601                	addi	a2,a2,0
 24a:	04090303          	lb	t1,64(s2)
 24e:	0100                	addi	s0,sp,128
 250:	0505                	addi	a0,a0,1
 252:	00090103          	lb	sp,0(s2)
 256:	0100                	addi	s0,sp,128
 258:	0405                	addi	s0,s0,1
 25a:	00090203          	lb	tp,0(s2)
 25e:	0100                	addi	s0,sp,128
 260:	1005                	c.nop	-31
 262:	0306                	slli	t1,t1,0x1
 264:	0900                	addi	s0,sp,144
 266:	0000                	unimp
 268:	0501                	addi	a0,a0,0
 26a:	030d                	addi	t1,t1,3
 26c:	0900                	addi	s0,sp,144
 26e:	0008                	0x8
 270:	0501                	addi	a0,a0,0
 272:	0605                	addi	a2,a2,1
 274:	04090203          	lb	tp,64(s2)
 278:	0100                	addi	s0,sp,128
 27a:	00090103          	lb	sp,0(s2)
 27e:	0100                	addi	s0,sp,128
 280:	1b05                	addi	s6,s6,-31
 282:	0306                	slli	t1,t1,0x1
 284:	0000097f          	radd16	s2,zero,zero
 288:	0501                	addi	a0,a0,0
 28a:	0301                	addi	t1,t1,0
 28c:	0902                	c.slli64	s2
 28e:	0004                	0x4
 290:	0601                	addi	a2,a2,0
 292:	08090403          	lb	s0,128(s2)
 296:	0100                	addi	s0,sp,128
 298:	0505                	addi	a0,a0,1
 29a:	00090103          	lb	sp,0(s2)
 29e:	0100                	addi	s0,sp,128
 2a0:	00090103          	lb	sp,0(s2)
 2a4:	0100                	addi	s0,sp,128
 2a6:	1005                	c.nop	-31
 2a8:	0306                	slli	t1,t1,0x1
 2aa:	0900                	addi	s0,sp,144
 2ac:	0000                	unimp
 2ae:	0501                	addi	a0,a0,0
 2b0:	030e                	slli	t1,t1,0x3
 2b2:	0900                	addi	s0,sp,144
 2b4:	0008                	0x8
 2b6:	0501                	addi	a0,a0,0
 2b8:	0605                	addi	a2,a2,1
 2ba:	04090103          	lb	sp,64(s2)
 2be:	0100                	addi	s0,sp,128
 2c0:	0e05                	addi	t3,t3,1
 2c2:	0306                	slli	t1,t1,0x1
 2c4:	0900                	addi	s0,sp,144
 2c6:	0000                	unimp
 2c8:	0501                	addi	a0,a0,0
 2ca:	0605                	addi	a2,a2,1
 2cc:	0c090103          	lb	sp,192(s2)
 2d0:	0100                	addi	s0,sp,128
 2d2:	00090003          	lb	zero,0(s2)
 2d6:	0100                	addi	s0,sp,128
 2d8:	04090003          	lb	zero,64(s2)
 2dc:	0100                	addi	s0,sp,128
 2de:	0105                	addi	sp,sp,1
 2e0:	0306                	slli	t1,t1,0x1
 2e2:	0901                	addi	s2,s2,0
 2e4:	0000                	unimp
 2e6:	0601                	addi	a2,a2,0
 2e8:	04090303          	lb	t1,64(s2)
 2ec:	0100                	addi	s0,sp,128
 2ee:	0505                	addi	a0,a0,1
 2f0:	00090103          	lb	sp,0(s2)
 2f4:	0100                	addi	s0,sp,128
 2f6:	00090203          	lb	tp,0(s2)
 2fa:	0100                	addi	s0,sp,128
 2fc:	0d05                	addi	s10,s10,1
 2fe:	0306                	slli	t1,t1,0x1
 300:	0900                	addi	s0,sp,144
 302:	0000                	unimp
 304:	0501                	addi	a0,a0,0
 306:	0605                	addi	a2,a2,1
 308:	04090103          	lb	sp,64(s2)
 30c:	0100                	addi	s0,sp,128
 30e:	00090003          	lb	zero,0(s2)
 312:	0100                	addi	s0,sp,128
 314:	08090003          	lb	zero,128(s2)
 318:	0100                	addi	s0,sp,128
 31a:	0105                	addi	sp,sp,1
 31c:	0306                	slli	t1,t1,0x1
 31e:	0901                	addi	s2,s2,0
 320:	0000                	unimp
 322:	0601                	addi	a2,a2,0
 324:	04090403          	lb	s0,64(s2)
 328:	0100                	addi	s0,sp,128
 32a:	0505                	addi	a0,a0,1
 32c:	00090103          	lb	sp,0(s2)
 330:	0100                	addi	s0,sp,128
 332:	00090103          	lb	sp,0(s2)
 336:	0100                	addi	s0,sp,128
 338:	0d05                	addi	s10,s10,1
 33a:	0306                	slli	t1,t1,0x1
 33c:	0900                	addi	s0,sp,144
 33e:	0000                	unimp
 340:	0501                	addi	a0,a0,0
 342:	0605                	addi	a2,a2,1
 344:	04090103          	lb	sp,64(s2)
 348:	0100                	addi	s0,sp,128
 34a:	00090003          	lb	zero,0(s2)
 34e:	0100                	addi	s0,sp,128
 350:	08090003          	lb	zero,128(s2)
 354:	0100                	addi	s0,sp,128
 356:	0105                	addi	sp,sp,1
 358:	0306                	slli	t1,t1,0x1
 35a:	0901                	addi	s2,s2,0
 35c:	0000                	unimp
 35e:	0601                	addi	a2,a2,0
 360:	04090303          	lb	t1,64(s2)
 364:	0100                	addi	s0,sp,128
 366:	0505                	addi	a0,a0,1
 368:	00090103          	lb	sp,0(s2)
 36c:	0100                	addi	s0,sp,128
 36e:	00090103          	lb	sp,0(s2)
 372:	0100                	addi	s0,sp,128
 374:	00090103          	lb	sp,0(s2)
 378:	0100                	addi	s0,sp,128
 37a:	00090203          	lb	tp,0(s2)
 37e:	0100                	addi	s0,sp,128
 380:	2405                	jal	5a0 <_start-0x60fffa60>
 382:	0306                	slli	t1,t1,0x1
 384:	097d                	addi	s2,s2,31
 386:	0000                	unimp
 388:	0501                	addi	a0,a0,0
 38a:	0900030b          	0x900030b
 38e:	000c                	0xc
 390:	0501                	addi	a0,a0,0
 392:	0322                	slli	t1,t1,0x8
 394:	0900                	addi	s0,sp,144
 396:	0004                	0x4
 398:	0501                	addi	a0,a0,0
 39a:	0345                	addi	t1,t1,17
 39c:	0900                	addi	s0,sp,144
 39e:	0004                	0x4
 3a0:	0501                	addi	a0,a0,0
 3a2:	0305                	addi	t1,t1,1
 3a4:	00100903          	lb	s2,1(zero) # 1 <_start-0x60ffffff>
 3a8:	0501                	addi	a0,a0,0
 3aa:	0601                	addi	a2,a2,0
 3ac:	14090403          	lb	s0,320(s2)
 3b0:	0100                	addi	s0,sp,128
 3b2:	0505                	addi	a0,a0,1
 3b4:	00090103          	lb	sp,0(s2)
 3b8:	0100                	addi	s0,sp,128
 3ba:	0105                	addi	sp,sp,1
 3bc:	14090503          	lb	a0,320(s2)
 3c0:	0100                	addi	s0,sp,128
 3c2:	0505                	addi	a0,a0,1
 3c4:	00090103          	lb	sp,0(s2)
 3c8:	0100                	addi	s0,sp,128
 3ca:	00090203          	lb	tp,0(s2)
 3ce:	0100                	addi	s0,sp,128
 3d0:	00090103          	lb	sp,0(s2)
 3d4:	0100                	addi	s0,sp,128
 3d6:	00090103          	lb	sp,0(s2)
 3da:	0100                	addi	s0,sp,128
 3dc:	2505                	jal	9fc <_start-0x60fff604>
 3de:	0306                	slli	t1,t1,0x1
 3e0:	097e                	slli	s2,s2,0x1f
 3e2:	0000                	unimp
 3e4:	0501                	addi	a0,a0,0
 3e6:	030c                	addi	a1,sp,384
 3e8:	0900                	addi	s0,sp,144
 3ea:	000c                	0xc
 3ec:	0501                	addi	a0,a0,0
 3ee:	0305                	addi	t1,t1,1
 3f0:	0902                	c.slli64	s2
 3f2:	0004                	0x4
 3f4:	0501                	addi	a0,a0,0
 3f6:	0601                	addi	a2,a2,0
 3f8:	10090403          	lb	s0,256(s2)
 3fc:	0100                	addi	s0,sp,128
 3fe:	0505                	addi	a0,a0,1
 400:	00090103          	lb	sp,0(s2)
 404:	0100                	addi	s0,sp,128
 406:	0105                	addi	sp,sp,1
 408:	0306                	slli	t1,t1,0x1
 40a:	0000097f          	radd16	s2,zero,zero
 40e:	0301                	addi	t1,t1,0
 410:	0900                	addi	s0,sp,144
 412:	0010                	0x10
 414:	0501                	addi	a0,a0,0
 416:	0305                	addi	t1,t1,1
 418:	0901                	addi	s2,s2,0
 41a:	0008                	0x8
 41c:	0601                	addi	a2,a2,0
 41e:	04090103          	lb	sp,64(s2)
 422:	0100                	addi	s0,sp,128
 424:	14090103          	lb	sp,320(s2)
 428:	0100                	addi	s0,sp,128
 42a:	0c090103          	lb	sp,192(s2)
 42e:	0100                	addi	s0,sp,128
 430:	10090103          	lb	sp,256(s2)
 434:	0100                	addi	s0,sp,128
 436:	0105                	addi	sp,sp,1
 438:	0306                	slli	t1,t1,0x1
 43a:	0901                	addi	s2,s2,0
 43c:	0004                	0x4
 43e:	0501                	addi	a0,a0,0
 440:	0305                	addi	t1,t1,1
 442:	0010097f          	radd16	s2,zero,ra
 446:	0501                	addi	a0,a0,0
 448:	0601                	addi	a2,a2,0
 44a:	04090403          	lb	s0,64(s2)
 44e:	0100                	addi	s0,sp,128
 450:	0505                	addi	a0,a0,1
 452:	00090103          	lb	sp,0(s2)
 456:	0100                	addi	s0,sp,128
 458:	0105                	addi	sp,sp,1
 45a:	0306                	slli	t1,t1,0x1
 45c:	0000097f          	radd16	s2,zero,zero
 460:	0301                	addi	t1,t1,0
 462:	0900                	addi	s0,sp,144
 464:	0010                	0x10
 466:	0501                	addi	a0,a0,0
 468:	0305                	addi	t1,t1,1
 46a:	0901                	addi	s2,s2,0
 46c:	0010                	0x10
 46e:	0601                	addi	a2,a2,0
 470:	04090103          	lb	sp,64(s2)
 474:	0100                	addi	s0,sp,128
 476:	14090103          	lb	sp,320(s2)
 47a:	0100                	addi	s0,sp,128
 47c:	14090203          	lb	tp,320(s2)
 480:	0100                	addi	s0,sp,128
 482:	0705                	addi	a4,a4,1
 484:	0306                	slli	t1,t1,0x1
 486:	0900                	addi	s0,sp,144
 488:	0000                	unimp
 48a:	0501                	addi	a0,a0,0
 48c:	0609                	addi	a2,a2,2
 48e:	0c090203          	lb	tp,192(s2)
 492:	0100                	addi	s0,sp,128
 494:	0c090103          	lb	sp,192(s2)
 498:	0100                	addi	s0,sp,128
 49a:	0505                	addi	a0,a0,1
 49c:	18090303          	lb	t1,384(s2)
 4a0:	0100                	addi	s0,sp,128
 4a2:	0105                	addi	sp,sp,1
 4a4:	0306                	slli	t1,t1,0x1
 4a6:	0901                	addi	s2,s2,0
 4a8:	0004                	0x4
 4aa:	0501                	addi	a0,a0,0
 4ac:	0305                	addi	t1,t1,1
 4ae:	0010097f          	radd16	s2,zero,ra
 4b2:	0501                	addi	a0,a0,0
 4b4:	0601                	addi	a2,a2,0
 4b6:	04090503          	lb	a0,64(s2)
 4ba:	0100                	addi	s0,sp,128
 4bc:	0505                	addi	a0,a0,1
 4be:	00090103          	lb	sp,0(s2)
 4c2:	0100                	addi	s0,sp,128
 4c4:	0105                	addi	sp,sp,1
 4c6:	0306                	slli	t1,t1,0x1
 4c8:	0000097f          	radd16	s2,zero,zero
 4cc:	0301                	addi	t1,t1,0
 4ce:	0900                	addi	s0,sp,144
 4d0:	0010                	0x10
 4d2:	0501                	addi	a0,a0,0
 4d4:	0605                	addi	a2,a2,1
 4d6:	08090303          	lb	t1,128(s2)
 4da:	0100                	addi	s0,sp,128
 4dc:	0905                	addi	s2,s2,1
 4de:	00090203          	lb	tp,0(s2)
 4e2:	0100                	addi	s0,sp,128
 4e4:	0c05                	addi	s8,s8,1
 4e6:	0306                	slli	t1,t1,0x1
 4e8:	0900                	addi	s0,sp,144
 4ea:	0000                	unimp
 4ec:	0501                	addi	a0,a0,0
 4ee:	0900030b          	0x900030b
 4f2:	0014                	0x14
 4f4:	0501                	addi	a0,a0,0
 4f6:	0609                	addi	a2,a2,2
 4f8:	04090203          	lb	tp,64(s2)
 4fc:	0100                	addi	s0,sp,128
 4fe:	00090103          	lb	sp,0(s2)
 502:	0100                	addi	s0,sp,128
 504:	0b05                	addi	s6,s6,1
 506:	0306                	slli	t1,t1,0x1
 508:	0900                	addi	s0,sp,144
 50a:	0000                	unimp
 50c:	0501                	addi	a0,a0,0
 50e:	0314                	addi	a3,sp,384
 510:	0901                	addi	s2,s2,0
 512:	0008                	0x8
 514:	0501                	addi	a0,a0,0
 516:	0301                	addi	t1,t1,0
 518:	090d                	addi	s2,s2,3
 51a:	0004                	0x4
 51c:	0501                	addi	a0,a0,0
 51e:	0605                	addi	a2,a2,1
 520:	18097703          	0x18097703
 524:	0100                	addi	s0,sp,128
 526:	0905                	addi	s2,s2,1
 528:	00090103          	lb	sp,0(s2)
 52c:	0100                	addi	s0,sp,128
 52e:	0e05                	addi	t3,t3,1
 530:	0306                	slli	t1,t1,0x1
 532:	0900                	addi	s0,sp,144
 534:	0000                	unimp
 536:	0501                	addi	a0,a0,0
 538:	0900030b          	0x900030b
 53c:	0014                	0x14
 53e:	0501                	addi	a0,a0,0
 540:	0609                	addi	a2,a2,2
 542:	04090203          	lb	tp,64(s2)
 546:	0100                	addi	s0,sp,128
 548:	00090103          	lb	sp,0(s2)
 54c:	0100                	addi	s0,sp,128
 54e:	0b05                	addi	s6,s6,1
 550:	0306                	slli	t1,t1,0x1
 552:	0900                	addi	s0,sp,144
 554:	0000                	unimp
 556:	0501                	addi	a0,a0,0
 558:	0601                	addi	a2,a2,0
 55a:	0c090803          	lb	a6,192(s2)
 55e:	0100                	addi	s0,sp,128
 560:	0505                	addi	a0,a0,1
 562:	18090103          	lb	sp,384(s2)
 566:	0100                	addi	s0,sp,128
 568:	00090203          	lb	tp,0(s2)
 56c:	0100                	addi	s0,sp,128
 56e:	0905                	addi	s2,s2,1
 570:	00090203          	lb	tp,0(s2)
 574:	0100                	addi	s0,sp,128
 576:	1905                	addi	s2,s2,-31
 578:	0306                	slli	t1,t1,0x1
 57a:	0900                	addi	s0,sp,144
 57c:	0000                	unimp
 57e:	0501                	addi	a0,a0,0
 580:	0609                	addi	a2,a2,2
 582:	14090103          	lb	sp,320(s2)
 586:	0100                	addi	s0,sp,128
 588:	0b05                	addi	s6,s6,1
 58a:	0306                	slli	t1,t1,0x1
 58c:	0900                	addi	s0,sp,144
 58e:	0000                	unimp
 590:	0501                	addi	a0,a0,0
 592:	060d                	addi	a2,a2,3
 594:	04090203          	lb	tp,64(s2)
 598:	0100                	addi	s0,sp,128
 59a:	00090003          	lb	zero,0(s2)
 59e:	0100                	addi	s0,sp,128
 5a0:	04090003          	lb	zero,64(s2)
 5a4:	0100                	addi	s0,sp,128
 5a6:	00090103          	lb	sp,0(s2)
 5aa:	0100                	addi	s0,sp,128
 5ac:	0105                	addi	sp,sp,1
 5ae:	0306                	slli	t1,t1,0x1
 5b0:	0906                	slli	s2,s2,0x1
 5b2:	0000                	unimp
 5b4:	0601                	addi	a2,a2,0
 5b6:	18090303          	lb	t1,384(s2)
 5ba:	0100                	addi	s0,sp,128
 5bc:	0306                	slli	t1,t1,0x1
 5be:	0900                	addi	s0,sp,144
 5c0:	0010                	0x10
 5c2:	0501                	addi	a0,a0,0
 5c4:	0605                	addi	a2,a2,1
 5c6:	04090103          	lb	sp,64(s2)
 5ca:	0100                	addi	s0,sp,128
 5cc:	00090103          	lb	sp,0(s2)
 5d0:	0100                	addi	s0,sp,128
 5d2:	1005                	c.nop	-31
 5d4:	0200                	addi	s0,sp,256
 5d6:	0104                	addi	s1,sp,128
 5d8:	08090003          	lb	zero,128(s2)
 5dc:	0100                	addi	s0,sp,128
 5de:	0505                	addi	a0,a0,1
 5e0:	0200                	addi	s0,sp,256
 5e2:	0104                	addi	s1,sp,128
 5e4:	0306                	slli	t1,t1,0x1
 5e6:	0900                	addi	s0,sp,144
 5e8:	0000                	unimp
 5ea:	0601                	addi	a2,a2,0
 5ec:	04090603          	lb	a2,64(s2)
 5f0:	0100                	addi	s0,sp,128
 5f2:	0105                	addi	sp,sp,1
 5f4:	0306                	slli	t1,t1,0x1
 5f6:	0901                	addi	s2,s2,0
 5f8:	0000                	unimp
 5fa:	0501                	addi	a0,a0,0
 5fc:	0009                	c.nop	2
 5fe:	0402                	c.slli64	s0
 600:	7c030603          	lb	a2,1984(t1) # 1d7c0 <_start-0x60fe2840>
 604:	1809                	addi	a6,a6,-30
 606:	0100                	addi	s0,sp,128
 608:	1c05                	addi	s8,s8,-31
 60a:	0200                	addi	s0,sp,256
 60c:	0304                	addi	s1,sp,384
 60e:	10097d03          	0x10097d03
 612:	0100                	addi	s0,sp,128
 614:	0105                	addi	sp,sp,1
 616:	0c090a03          	lb	s4,192(s2)
 61a:	0100                	addi	s0,sp,128
 61c:	0505                	addi	a0,a0,1
 61e:	00090203          	lb	tp,0(s2)
 622:	0100                	addi	s0,sp,128
 624:	0105                	addi	sp,sp,1
 626:	0306                	slli	t1,t1,0x1
 628:	097e                	slli	s2,s2,0x1f
 62a:	0000                	unimp
 62c:	0301                	addi	t1,t1,0
 62e:	0900                	addi	s0,sp,144
 630:	000c                	0xc
 632:	0501                	addi	a0,a0,0
 634:	0305                	addi	t1,t1,1
 636:	0902                	c.slli64	s2
 638:	0004                	0x4
 63a:	0601                	addi	a2,a2,0
 63c:	04090103          	lb	sp,64(s2)
 640:	0100                	addi	s0,sp,128
 642:	0d05                	addi	s10,s10,1
 644:	0306                	slli	t1,t1,0x1
 646:	0900                	addi	s0,sp,144
 648:	0000                	unimp
 64a:	0501                	addi	a0,a0,0
 64c:	0301                	addi	t1,t1,0
 64e:	0901                	addi	s2,s2,0
 650:	0004                	0x4
 652:	0501                	addi	a0,a0,0
 654:	030d                	addi	t1,t1,3
 656:	000c097f          	radd16	s2,s8,zero
 65a:	0501                	addi	a0,a0,0
 65c:	0601                	addi	a2,a2,0
 65e:	04090403          	lb	s0,64(s2)
 662:	0100                	addi	s0,sp,128
 664:	0505                	addi	a0,a0,1
 666:	00090103          	lb	sp,0(s2)
 66a:	0100                	addi	s0,sp,128
 66c:	00090103          	lb	sp,0(s2)
 670:	0100                	addi	s0,sp,128
 672:	00090203          	lb	tp,0(s2)
 676:	0100                	addi	s0,sp,128
 678:	0105                	addi	sp,sp,1
 67a:	0306                	slli	t1,t1,0x1
 67c:	097c                	addi	a5,sp,156
 67e:	0000                	unimp
 680:	0501                	addi	a0,a0,0
 682:	0311                	addi	t1,t1,4
 684:	0904                	addi	s1,sp,144
 686:	0008                	0x8
 688:	0501                	addi	a0,a0,0
 68a:	0301                	addi	t1,t1,0
 68c:	097c                	addi	a5,sp,156
 68e:	0004                	0x4
 690:	0501                	addi	a0,a0,0
 692:	0311                	addi	t1,t1,4
 694:	0904                	addi	s1,sp,144
 696:	0004                	0x4
 698:	0501                	addi	a0,a0,0
 69a:	0301                	addi	t1,t1,0
 69c:	097c                	addi	a5,sp,156
 69e:	0008                	0x8
 6a0:	0301                	addi	t1,t1,0
 6a2:	0900                	addi	s0,sp,144
 6a4:	0008                	0x8
 6a6:	0501                	addi	a0,a0,0
 6a8:	0311                	addi	t1,t1,4
 6aa:	0904                	addi	s1,sp,144
 6ac:	0004                	0x4
 6ae:	0501                	addi	a0,a0,0
 6b0:	0605                	addi	a2,a2,1
 6b2:	04090203          	lb	tp,64(s2)
 6b6:	0100                	addi	s0,sp,128
 6b8:	1305                	addi	t1,t1,-31
 6ba:	0306                	slli	t1,t1,0x1
 6bc:	0900                	addi	s0,sp,144
 6be:	0000                	unimp
 6c0:	0501                	addi	a0,a0,0
 6c2:	0319                	addi	t1,t1,6
 6c4:	0900                	addi	s0,sp,144
 6c6:	0004                	0x4
 6c8:	0501                	addi	a0,a0,0
 6ca:	030c                	addi	a1,sp,384
 6cc:	0909                	addi	s2,s2,2
 6ce:	0004                	0x4
 6d0:	0501                	addi	a0,a0,0
 6d2:	09770307          	vlse8.v	v6,(a4),s7,v0.t
 6d6:	0004                	0x4
 6d8:	0501                	addi	a0,a0,0
 6da:	0609                	addi	a2,a2,2
 6dc:	04090203          	lb	tp,64(s2)
 6e0:	0100                	addi	s0,sp,128
 6e2:	0f05                	addi	t5,t5,1
 6e4:	0306                	slli	t1,t1,0x1
 6e6:	0900                	addi	s0,sp,144
 6e8:	0000                	unimp
 6ea:	0501                	addi	a0,a0,0
 6ec:	0609                	addi	a2,a2,2
 6ee:	04090203          	lb	tp,64(s2)
 6f2:	0100                	addi	s0,sp,128
 6f4:	1005                	c.nop	-31
 6f6:	0306                	slli	t1,t1,0x1
 6f8:	0902                	c.slli64	s2
 6fa:	0000                	unimp
 6fc:	0501                	addi	a0,a0,0
 6fe:	097e030b          	0x97e030b
 702:	0004                	0x4
 704:	0501                	addi	a0,a0,0
 706:	060d                	addi	a2,a2,3
 708:	04090103          	lb	sp,64(s2)
 70c:	0100                	addi	s0,sp,128
 70e:	1205                	addi	tp,tp,-31
 710:	0306                	slli	t1,t1,0x1
 712:	0900                	addi	s0,sp,144
 714:	0000                	unimp
 716:	0501                	addi	a0,a0,0
 718:	0301                	addi	t1,t1,0
 71a:	0905                	addi	s2,s2,1
 71c:	0004                	0x4
 71e:	0601                	addi	a2,a2,0
 720:	14090303          	lb	t1,320(s2)
 724:	0100                	addi	s0,sp,128
 726:	0505                	addi	a0,a0,1
 728:	00090103          	lb	sp,0(s2)
 72c:	0100                	addi	s0,sp,128
 72e:	00090103          	lb	sp,0(s2)
 732:	0100                	addi	s0,sp,128
 734:	00090103          	lb	sp,0(s2)
 738:	0100                	addi	s0,sp,128
 73a:	00090303          	lb	t1,0(s2)
 73e:	0100                	addi	s0,sp,128
 740:	0105                	addi	sp,sp,1
 742:	0306                	slli	t1,t1,0x1
 744:	097a                	slli	s2,s2,0x1e
 746:	0000                	unimp
 748:	0501                	addi	a0,a0,0
 74a:	0305                	addi	t1,t1,1
 74c:	0906                	slli	s2,s2,0x1
 74e:	0004                	0x4
 750:	0501                	addi	a0,a0,0
 752:	0301                	addi	t1,t1,0
 754:	097a                	slli	s2,s2,0x1e
 756:	0004                	0x4
 758:	0301                	addi	t1,t1,0
 75a:	0900                	addi	s0,sp,144
 75c:	000c                	0xc
 75e:	0501                	addi	a0,a0,0
 760:	030c                	addi	a1,sp,384
 762:	0004090f          	0x4090f
 766:	0501                	addi	a0,a0,0
 768:	0305                	addi	t1,t1,1
 76a:	00040977          	0x40977
 76e:	0601                	addi	a2,a2,0
 770:	04090203          	lb	tp,64(s2)
 774:	0100                	addi	s0,sp,128
 776:	0905                	addi	s2,s2,1
 778:	00090203          	lb	tp,0(s2)
 77c:	0100                	addi	s0,sp,128
 77e:	1205                	addi	tp,tp,-31
 780:	0306                	slli	t1,t1,0x1
 782:	0900                	addi	s0,sp,144
 784:	0000                	unimp
 786:	0501                	addi	a0,a0,0
 788:	0609                	addi	a2,a2,2
 78a:	0c090103          	lb	sp,192(s2)
 78e:	0100                	addi	s0,sp,128
 790:	0c05                	addi	s8,s8,1
 792:	0306                	slli	t1,t1,0x1
 794:	0900                	addi	s0,sp,144
 796:	0000                	unimp
 798:	0501                	addi	a0,a0,0
 79a:	01030607          	vle8ff.v	v12,(t1),v0.t
 79e:	0409                	addi	s0,s0,2
 7a0:	0100                	addi	s0,sp,128
 7a2:	1505                	addi	a0,a0,-31
 7a4:	0306                	slli	t1,t1,0x1
 7a6:	0900                	addi	s0,sp,144
 7a8:	0000                	unimp
 7aa:	0501                	addi	a0,a0,0
 7ac:	0301                	addi	t1,t1,0
 7ae:	090d                	addi	s2,s2,3
 7b0:	0004                	0x4
 7b2:	0501                	addi	a0,a0,0
 7b4:	0609                	addi	a2,a2,2
 7b6:	14097403          	0x14097403
 7ba:	0100                	addi	s0,sp,128
 7bc:	0d05                	addi	s10,s10,1
 7be:	0306                	slli	t1,t1,0x1
 7c0:	0900                	addi	s0,sp,144
 7c2:	0000                	unimp
 7c4:	0501                	addi	a0,a0,0
 7c6:	030c                	addi	a1,sp,384
 7c8:	0900                	addi	s0,sp,144
 7ca:	0008                	0x8
 7cc:	0501                	addi	a0,a0,0
 7ce:	0609                	addi	a2,a2,2
 7d0:	04090203          	lb	tp,64(s2)
 7d4:	0100                	addi	s0,sp,128
 7d6:	0c05                	addi	s8,s8,1
 7d8:	0306                	slli	t1,t1,0x1
 7da:	0900                	addi	s0,sp,144
 7dc:	0000                	unimp
 7de:	0501                	addi	a0,a0,0
 7e0:	0900030b          	0x900030b
 7e4:	000c                	0xc
 7e6:	0501                	addi	a0,a0,0
 7e8:	060d                	addi	a2,a2,3
 7ea:	04090203          	lb	tp,64(s2)
 7ee:	0100                	addi	s0,sp,128
 7f0:	0f05                	addi	t5,t5,1
 7f2:	0306                	slli	t1,t1,0x1
 7f4:	0900                	addi	s0,sp,144
 7f6:	0000                	unimp
 7f8:	0501                	addi	a0,a0,0
 7fa:	0315                	addi	t1,t1,5
 7fc:	097d                	addi	s2,s2,31
 7fe:	0010                	0x10
 800:	0501                	addi	a0,a0,0
 802:	0601                	addi	a2,a2,0
 804:	08090e03          	lb	t3,128(s2)
 808:	0100                	addi	s0,sp,128
 80a:	0505                	addi	a0,a0,1
 80c:	00090103          	lb	sp,0(s2)
 810:	0100                	addi	s0,sp,128
 812:	00090103          	lb	sp,0(s2)
 816:	0100                	addi	s0,sp,128
 818:	0105                	addi	sp,sp,1
 81a:	0306                	slli	t1,t1,0x1
 81c:	097e                	slli	s2,s2,0x1f
 81e:	0000                	unimp
 820:	0501                	addi	a0,a0,0
 822:	0305                	addi	t1,t1,1
 824:	0902                	c.slli64	s2
 826:	0004                	0x4
 828:	0501                	addi	a0,a0,0
 82a:	0301                	addi	t1,t1,0
 82c:	097e                	slli	s2,s2,0x1f
 82e:	0008                	0x8
 830:	0301                	addi	t1,t1,0
 832:	0900                	addi	s0,sp,144
 834:	0008                	0x8
 836:	0501                	addi	a0,a0,0
 838:	0305                	addi	t1,t1,1
 83a:	0902                	c.slli64	s2
 83c:	0004                	0x4
 83e:	0601                	addi	a2,a2,0
 840:	04090103          	lb	sp,64(s2)
 844:	0100                	addi	s0,sp,128
 846:	0c090103          	lb	sp,192(s2)
 84a:	0100                	addi	s0,sp,128
 84c:	08090103          	lb	sp,128(s2)
 850:	0100                	addi	s0,sp,128
 852:	0105                	addi	sp,sp,1
 854:	0306                	slli	t1,t1,0x1
 856:	0901                	addi	s2,s2,0
 858:	0000                	unimp
 85a:	0601                	addi	a2,a2,0
 85c:	14090303          	lb	t1,320(s2)
 860:	0100                	addi	s0,sp,128
 862:	0505                	addi	a0,a0,1
 864:	00090603          	lb	a2,0(s2)
 868:	0100                	addi	s0,sp,128
 86a:	0105                	addi	sp,sp,1
 86c:	0306                	slli	t1,t1,0x1
 86e:	097a                	slli	s2,s2,0x1e
 870:	0000                	unimp
 872:	0501                	addi	a0,a0,0
 874:	0305                	addi	t1,t1,1
 876:	0906                	slli	s2,s2,0x1
 878:	0008                	0x8
 87a:	0501                	addi	a0,a0,0
 87c:	0301                	addi	t1,t1,0
 87e:	097a                	slli	s2,s2,0x1e
 880:	0004                	0x4
 882:	0301                	addi	t1,t1,0
 884:	0900                	addi	s0,sp,144
 886:	000c                	0xc
 888:	0501                	addi	a0,a0,0
 88a:	0305                	addi	t1,t1,1
 88c:	0906                	slli	s2,s2,0x1
 88e:	0010                	0x10
 890:	0601                	addi	a2,a2,0
 892:	04090103          	lb	sp,64(s2)
 896:	0100                	addi	s0,sp,128
 898:	14090103          	lb	sp,320(s2)
 89c:	0100                	addi	s0,sp,128
 89e:	10090103          	lb	sp,256(s2)
 8a2:	0100                	addi	s0,sp,128
 8a4:	10090103          	lb	sp,256(s2)
 8a8:	0100                	addi	s0,sp,128
 8aa:	14090203          	lb	tp,320(s2)
 8ae:	0100                	addi	s0,sp,128
 8b0:	0c05                	addi	s8,s8,1
 8b2:	0306                	slli	t1,t1,0x1
 8b4:	0900                	addi	s0,sp,144
 8b6:	0000                	unimp
 8b8:	0501                	addi	a0,a0,0
 8ba:	0301                	addi	t1,t1,0
 8bc:	0901                	addi	s2,s2,0
 8be:	0004                	0x4
 8c0:	0501                	addi	a0,a0,0
 8c2:	030c                	addi	a1,sp,384
 8c4:	0010097f          	radd16	s2,zero,ra
 8c8:	0901                	addi	s2,s2,0
 8ca:	0004                	0x4
 8cc:	0100                	addi	s0,sp,128
 8ce:	ac01                	j	ade <_start-0x60fff522>
 8d0:	0002                	c.slli64	zero
 8d2:	0300                	addi	s0,sp,384
 8d4:	4f00                	lw	s0,24(a4)
 8d6:	0001                	nop
 8d8:	0100                	addi	s0,sp,128
 8da:	fb01                	bnez	a4,7ea <_start-0x60fff816>
 8dc:	0d0e                	slli	s10,s10,0x3
 8de:	0100                	addi	s0,sp,128
 8e0:	0101                	addi	sp,sp,0
 8e2:	0001                	nop
 8e4:	0000                	unimp
 8e6:	0001                	nop
 8e8:	0100                	addi	s0,sp,128
 8ea:	3a44                	fld	fs1,176(a2)
 8ec:	726f772f          	0x726f772f
 8f0:	30322f6b          	0x30322f6b
 8f4:	3232                	fld	ft4,296(sp)
 8f6:	396c612f          	0x396c612f
 8fa:	3030                	fld	fa2,96(s0)
 8fc:	2f30                	fld	fa2,88(a4)
 8fe:	642f7773          	csrrci	a4,0x642,30
 902:	6265                	lui	tp,0x19
 904:	6775                	lui	a4,0x1d
 906:	2f726567          	0x2f726567
 90a:	6c61                	lui	s8,0x18
 90c:	6f5f 6570 6f6e      	0x6f6e65706f5f
 912:	632f6463          	bltu	t5,s2,f3a <_start-0x60fff0c6>
 916:	72746e6f          	jal	t3,4783c <_start-0x60fb87c4>
 91a:	6269                	lui	tp,0x1a
 91c:	616f6c2f          	0x616f6c2f
 920:	6564                	flw	fs1,76(a0)
 922:	7372                	flw	ft6,60(sp)
 924:	616c662f          	0x616c662f
 928:	712f6873          	csrrsi	a6,0x712,30
 92c:	2f697073          	csrci	0x2f6,18
 930:	7764                	flw	fs1,108(a4)
 932:	69737363          	bgeu	t1,s7,fb8 <_start-0x60fff048>
 936:	6372732f          	0x6372732f
 93a:	6400                	flw	fs0,8(s0)
 93c:	5c3a                	lw	s8,172(sp)
 93e:	6b726f77          	0x6b726f77
 942:	325c                	fld	fa5,160(a2)
 944:	3230                	fld	fa2,96(a2)
 946:	5c32                	lw	s8,44(sp)
 948:	6c61                	lui	s8,0x18
 94a:	3039                	jal	158 <_start-0x60fffea8>
 94c:	3030                	fld	fa2,96(s0)
 94e:	735c                	flw	fa5,36(a4)
 950:	64735c77          	0x64735c77
 954:	6f735c6b          	0x6f735c6b
 958:	70612d63          	0x70612d63
 95c:	2d75                	jal	1018 <_start-0x60ffefe8>
 95e:	5c6b6473          	csrrsi	s0,0x5c6,22
 962:	6f74                	flw	fa3,92(a4)
 964:	5c736c6f          	jal	s8,3772a <_start-0x60fc88d6>
 968:	5c6e6977          	0x5c6e6977
 96c:	6972                	flw	fs2,28(sp)
 96e:	5c766373          	csrrsi	t1,0x5c7,12
 972:	6972                	flw	fs2,28(sp)
 974:	2d766373          	csrrsi	t1,0x2d7,12
 978:	756e                	flw	fa0,248(sp)
 97a:	69656c63          	bltu	a0,s6,1012 <_start-0x60ffefee>
 97e:	652d                	lui	a0,0xb
 980:	666c                	flw	fa1,76(a2)
 982:	695c                	flw	fa5,20(a0)
 984:	636e                	flw	ft6,216(sp)
 986:	756c                	flw	fa1,108(a0)
 988:	6564                	flw	fs1,76(a0)
 98a:	6d5c                	flw	fa5,28(a0)
 98c:	6361                	lui	t1,0x18
 98e:	6968                	flw	fa0,84(a0)
 990:	656e                	flw	fa0,216(sp)
 992:	6400                	flw	fs0,8(s0)
 994:	5c3a                	lw	s8,172(sp)
 996:	6b726f77          	0x6b726f77
 99a:	325c                	fld	fa5,160(a2)
 99c:	3230                	fld	fa2,96(a2)
 99e:	5c32                	lw	s8,44(sp)
 9a0:	6c61                	lui	s8,0x18
 9a2:	3039                	jal	1b0 <_start-0x60fffe50>
 9a4:	3030                	fld	fa2,96(s0)
 9a6:	735c                	flw	fa5,36(a4)
 9a8:	64735c77          	0x64735c77
 9ac:	6f735c6b          	0x6f735c6b
 9b0:	70612d63          	0x70612d63
 9b4:	2d75                	jal	1070 <_start-0x60ffef90>
 9b6:	5c6b6473          	csrrsi	s0,0x5c6,22
 9ba:	6f74                	flw	fa3,92(a4)
 9bc:	5c736c6f          	jal	s8,37782 <_start-0x60fc887e>
 9c0:	5c6e6977          	0x5c6e6977
 9c4:	6972                	flw	fs2,28(sp)
 9c6:	5c766373          	csrrsi	t1,0x5c7,12
 9ca:	6972                	flw	fs2,28(sp)
 9cc:	2d766373          	csrrsi	t1,0x2d7,12
 9d0:	756e                	flw	fa0,248(sp)
 9d2:	69656c63          	bltu	a0,s6,106a <_start-0x60ffef96>
 9d6:	652d                	lui	a0,0xb
 9d8:	666c                	flw	fa1,76(a2)
 9da:	695c                	flw	fa5,20(a0)
 9dc:	636e                	flw	ft6,216(sp)
 9de:	756c                	flw	fa1,108(a0)
 9e0:	6564                	flw	fs1,76(a0)
 9e2:	735c                	flw	fa5,36(a4)
 9e4:	7379                	lui	t1,0xffffe
 9e6:	0000                	unimp
 9e8:	7764                	flw	fs1,108(a4)
 9ea:	69737363          	bgeu	t1,s7,1070 <_start-0x60ffef90>
 9ee:	615f 7973 636e      	0x636e7973615f
 9f4:	632e                	flw	ft6,200(sp)
 9f6:	0100                	addi	s0,sp,128
 9f8:	0000                	unimp
 9fa:	645f 6665 7561      	0x75616665645f
 a00:	746c                	flw	fa1,108(s0)
 a02:	745f 7079 7365      	0x73657079745f
 a08:	682e                	flw	fa6,200(sp)
 a0a:	0200                	addi	s0,sp,256
 a0c:	0000                	unimp
 a0e:	735f 6474 6e69      	0x6e696474735f
 a14:	2e74                	fld	fa3,216(a2)
 a16:	0068                	addi	a0,sp,12
 a18:	64000003          	lb	zero,1600(zero) # 640 <_start-0x60fff9c0>
 a1c:	73736377          	0x73736377
 a20:	2e69                	jal	dba <_start-0x60fff246>
 a22:	0068                	addi	a0,sp,12
 a24:	0001                	nop
 a26:	0000                	unimp
 a28:	0105                	addi	sp,sp,1
 a2a:	0500                	addi	s0,sp,640
 a2c:	c802                	sw	zero,16(sp)
 a2e:	0004                	0x4
 a30:	1561                	addi	a0,a0,-8
 a32:	0505                	addi	a0,a0,1
 a34:	00090103          	lb	sp,0(s2)
 a38:	0100                	addi	s0,sp,128
 a3a:	00090103          	lb	sp,0(s2)
 a3e:	0100                	addi	s0,sp,128
 a40:	00090203          	lb	tp,0(s2)
 a44:	0100                	addi	s0,sp,128
 a46:	00090203          	lb	tp,0(s2)
 a4a:	0100                	addi	s0,sp,128
 a4c:	0105                	addi	sp,sp,1
 a4e:	0306                	slli	t1,t1,0x1
 a50:	097a                	slli	s2,s2,0x1e
 a52:	0000                	unimp
 a54:	0501                	addi	a0,a0,0
 a56:	0310                	addi	a2,sp,384
 a58:	00100917          	auipc	s2,0x100
 a5c:	0501                	addi	a0,a0,0
 a5e:	0301                	addi	t1,t1,0
 a60:	0969                	addi	s2,s2,26
 a62:	0004                	0x4
 a64:	0301                	addi	t1,t1,0
 a66:	0900                	addi	s0,sp,144
 a68:	000c                	0xc
 a6a:	0501                	addi	a0,a0,0
 a6c:	030e                	slli	t1,t1,0x3
 a6e:	0902                	c.slli64	s2
 a70:	000c                	0xc
 a72:	0501                	addi	a0,a0,0
 a74:	0310                	addi	a2,sp,384
 a76:	0915                	addi	s2,s2,5
 a78:	0004                	0x4
 a7a:	0501                	addi	a0,a0,0
 a7c:	060a                	slli	a2,a2,0x2
 a7e:	04096f03          	0x4096f03
 a82:	0100                	addi	s0,sp,128
 a84:	0505                	addi	a0,a0,1
 a86:	04091803          	lh	a6,64(s2) # 100a98 <_start-0x60eff568>
 a8a:	0100                	addi	s0,sp,128
 a8c:	0105                	addi	sp,sp,1
 a8e:	0306                	slli	t1,t1,0x1
 a90:	0901                	addi	s2,s2,0
 a92:	0000                	unimp
 a94:	0501                	addi	a0,a0,0
 a96:	031a                	slli	t1,t1,0x6
 a98:	096d                	addi	s2,s2,27
 a9a:	0014                	0x14
 a9c:	0501                	addi	a0,a0,0
 a9e:	0609                	addi	a2,a2,2
 aa0:	08090003          	lb	zero,128(s2)
 aa4:	0100                	addi	s0,sp,128
 aa6:	1a05                	addi	s4,s4,-31
 aa8:	0306                	slli	t1,t1,0x1
 aaa:	0900                	addi	s0,sp,144
 aac:	0000                	unimp
 aae:	0501                	addi	a0,a0,0
 ab0:	0901030b          	0x901030b
 ab4:	0004                	0x4
 ab6:	0501                	addi	a0,a0,0
 ab8:	031a                	slli	t1,t1,0x6
 aba:	0008097f          	radd16	s2,a6,zero
 abe:	0501                	addi	a0,a0,0
 ac0:	0609                	addi	a2,a2,2
 ac2:	04090103          	lb	sp,64(s2)
 ac6:	0100                	addi	s0,sp,128
 ac8:	1705                	addi	a4,a4,-31
 aca:	0306                	slli	t1,t1,0x1
 acc:	0901                	addi	s2,s2,0
 ace:	0000                	unimp
 ad0:	0501                	addi	a0,a0,0
 ad2:	097f030b          	0x97f030b
 ad6:	0004                	0x4
 ad8:	0501                	addi	a0,a0,0
 ada:	060d                	addi	a2,a2,3
 adc:	04090303          	lb	t1,64(s2)
 ae0:	0100                	addi	s0,sp,128
 ae2:	1705                	addi	a4,a4,-31
 ae4:	0306                	slli	t1,t1,0x1
 ae6:	0900                	addi	s0,sp,144
 ae8:	0000                	unimp
 aea:	0501                	addi	a0,a0,0
 aec:	0609                	addi	a2,a2,2
 aee:	04090203          	lb	tp,64(s2)
 af2:	0100                	addi	s0,sp,128
 af4:	1205                	addi	tp,tp,-31
 af6:	0306                	slli	t1,t1,0x1
 af8:	0900                	addi	s0,sp,144
 afa:	0000                	unimp
 afc:	0501                	addi	a0,a0,0
 afe:	0609                	addi	a2,a2,2
 b00:	18090303          	lb	t1,384(s2)
 b04:	0100                	addi	s0,sp,128
 b06:	0c05                	addi	s8,s8,1
 b08:	0306                	slli	t1,t1,0x1
 b0a:	0900                	addi	s0,sp,144
 b0c:	0000                	unimp
 b0e:	0501                	addi	a0,a0,0
 b10:	0901030b          	0x901030b
 b14:	0008                	0x8
 b16:	0501                	addi	a0,a0,0
 b18:	030c                	addi	a1,sp,384
 b1a:	0008097f          	radd16	s2,a6,zero
 b1e:	0501                	addi	a0,a0,0
 b20:	0609                	addi	a2,a2,2
 b22:	04090103          	lb	sp,64(s2)
 b26:	0100                	addi	s0,sp,128
 b28:	0b05                	addi	s6,s6,1
 b2a:	0306                	slli	t1,t1,0x1
 b2c:	0900                	addi	s0,sp,144
 b2e:	0000                	unimp
 b30:	0501                	addi	a0,a0,0
 b32:	060d                	addi	a2,a2,3
 b34:	04090103          	lb	sp,64(s2)
 b38:	0100                	addi	s0,sp,128
 b3a:	1005                	c.nop	-31
 b3c:	0306                	slli	t1,t1,0x1
 b3e:	0900                	addi	s0,sp,144
 b40:	0000                	unimp
 b42:	0501                	addi	a0,a0,0
 b44:	0609                	addi	a2,a2,2
 b46:	04090103          	lb	sp,64(s2)
 b4a:	0100                	addi	s0,sp,128
 b4c:	1a05                	addi	s4,s4,-31
 b4e:	0306                	slli	t1,t1,0x1
 b50:	0900                	addi	s0,sp,144
 b52:	0000                	unimp
 b54:	0501                	addi	a0,a0,0
 b56:	0609                	addi	a2,a2,2
 b58:	04090203          	lb	tp,64(s2)
 b5c:	0100                	addi	s0,sp,128
 b5e:	1005                	c.nop	-31
 b60:	0306                	slli	t1,t1,0x1
 b62:	0900                	addi	s0,sp,144
 b64:	0000                	unimp
 b66:	0501                	addi	a0,a0,0
 b68:	0609                	addi	a2,a2,2
 b6a:	04090103          	lb	sp,64(s2)
 b6e:	0100                	addi	s0,sp,128
 b70:	1005                	c.nop	-31
 b72:	0306                	slli	t1,t1,0x1
 b74:	0900                	addi	s0,sp,144
 b76:	0000                	unimp
 b78:	0901                	addi	s2,s2,0
 b7a:	0008                	0x8
 b7c:	0100                	addi	s0,sp,128
 b7e:	01              	Address 0x0000000000000b7e is out of bounds.


Disassembly of section .debug_info:

00000000 <.debug_info>:
   0:	0022                	c.slli	zero,0x8
   2:	0000                	unimp
   4:	0002                	c.slli64	zero
   6:	0000                	unimp
   8:	0000                	unimp
   a:	0104                	addi	s1,sp,128
   c:	0000                	unimp
   e:	0000                	unimp
  10:	0000                	unimp
  12:	6100                	flw	fs0,0(a0)
  14:	0010                	0x10
  16:	6100                	flw	fs0,0(a0)
  18:	0000                	unimp
  1a:	0000                	unimp
  1c:	0066                	c.slli	zero,0x19
  1e:	0000                	unimp
  20:	000000b3          	add	ra,zero,zero
  24:	8001                	c.srli64	s0
  26:	0ab8                	addi	a4,sp,344
  28:	0000                	unimp
  2a:	0004                	0x4
  2c:	0014                	0x14
  2e:	0000                	unimp
  30:	0104                	addi	s1,sp,128
  32:	00000387          	vle8.v	v7,(zero),v0.t
  36:	230c                	fld	fa1,0(a4)
  38:	0001                	nop
  3a:	6600                	flw	fs0,8(a2)
  3c:	0000                	unimp
  3e:	1000                	addi	s0,sp,32
  40:	0000                	unimp
  42:	b861                	j	fffff8da <stack_end+0x9efff25e>
  44:	0004                	0x4
  46:	a200                	fsd	fs0,0(a2)
  48:	0000                	unimp
  4a:	0200                	addi	s0,sp,256
  4c:	0601                	addi	a2,a2,0
  4e:	02f4                	addi	a3,sp,332
  50:	0000                	unimp
  52:	0000ca03          	lbu	s4,0(ra)
  56:	0200                	addi	s0,sp,256
  58:	0038182b          	0x38182b
  5c:	0000                	unimp
  5e:	0102                	c.slli64	sp
  60:	f208                	fsw	fa0,32(a2)
  62:	0002                	c.slli64	zero
  64:	0200                	addi	s0,sp,256
  66:	0502                	c.slli64	a0
  68:	030e                	slli	t1,t1,0x3
  6a:	0000                	unimp
  6c:	0202                	c.slli64	tp
  6e:	00022307          	flw	ft6,0(tp) # 1a000 <_start-0x60fe6000>
  72:	0200                	addi	s0,sp,256
  74:	0504                	addi	s1,sp,640
  76:	01a8                	addi	a0,sp,200
  78:	0000                	unimp
  7a:	0001df03          	lhu	t5,0(gp)
  7e:	0200                	addi	s0,sp,256
  80:	0060194f          	fnmadd.s	fs2,ft0,ft6,ft0,rtz
  84:	0000                	unimp
  86:	0402                	c.slli64	s0
  88:	0000fc07          	vle64.v	v24,(ra),v0.t
  8c:	0200                	addi	s0,sp,256
  8e:	0508                	addi	a0,sp,640
  90:	000001a3          	sb	zero,3(zero) # 3 <_start-0x60fffffd>
  94:	0802                	c.slli64	a6
  96:	0000f707          	vle64.v	v14,(ra),v0.t
  9a:	0400                	addi	s0,sp,512
  9c:	0504                	addi	s1,sp,640
  9e:	6e69                	lui	t3,0x1a
  a0:	0074                	addi	a3,sp,12
  a2:	0402                	c.slli64	s0
  a4:	00010107          	vle8.v	v2,(sp),v0.t
  a8:	0300                	addi	s0,sp,384
  aa:	00cc                	addi	a1,sp,68
  ac:	0000                	unimp
  ae:	2c131803          	lh	a6,705(t1) # ffffe2c1 <stack_end+0x9effdc45>
  b2:	0000                	unimp
  b4:	0500                	addi	s0,sp,640
  b6:	00000083          	lb	ra,0(zero) # 0 <_start-0x61000000>
  ba:	0001e103          	0x1e103
  be:	0300                	addi	s0,sp,384
  c0:	1430                	addi	a2,sp,552
  c2:	0054                	addi	a3,sp,4
  c4:	0000                	unimp
  c6:	9406                	add	s0,s0,ra
  c8:	0000                	unimp
  ca:	0200                	addi	s0,sp,256
  cc:	0410                	addi	a2,sp,512
  ce:	0299                	addi	t0,t0,6
  d0:	0000                	unimp
  d2:	0102                	c.slli64	sp
  d4:	fb08                	fsw	fa0,48(a4)
  d6:	0002                	c.slli64	zero
  d8:	0700                	addi	s0,sp,896
  da:	0369                	addi	t1,t1,26
  dc:	0000                	unimp
  de:	6201                	0x6201
  e0:	0501                	addi	a0,a0,0
  e2:	0075                	c.nop	29
  e4:	0000                	unimp
  e6:	043c                	addi	a5,sp,520
  e8:	6100                	flw	fs0,0(a0)
  ea:	008c                	addi	a1,sp,64
  ec:	0000                	unimp
  ee:	9c01                	0x9c01
  f0:	01c9                	addi	gp,gp,18
  f2:	0000                	unimp
  f4:	2908                	fld	fa0,16(a0)
  f6:	01000003          	lb	zero,16(zero) # 10 <_start-0x60fffff0>
  fa:	0162                	slli	sp,sp,0x18
  fc:	c92c                	sw	a1,80(a0)
  fe:	0001                	nop
 100:	0000                	unimp
 102:	0000                	unimp
 104:	0800                	addi	s0,sp,16
 106:	0376                	slli	t1,t1,0x1d
 108:	0000                	unimp
 10a:	6201                	0x6201
 10c:	4601                	li	a2,0
 10e:	000001cf          	fnmadd.s	ft3,ft0,ft0,ft0,rne
 112:	00000037          	lui	zero,0x0
 116:	4108                	lw	a0,0(a0)
 118:	01000003          	lb	zero,16(zero) # 10 <_start-0x60fffff0>
 11c:	0162                	slli	sp,sp,0x18
 11e:	00009457          	vfadd.vv	v8,v0,v1,v0.t
 122:	6200                	flw	fs0,0(a2)
 124:	0000                	unimp
 126:	0900                	addi	s0,sp,144
 128:	656c                	flw	fa1,76(a0)
 12a:	006e                	c.slli	zero,0x1b
 12c:	6201                	0x6201
 12e:	6801                	0x6801
 130:	0094                	addi	a3,sp,64
 132:	0000                	unimp
 134:	008d                	addi	ra,ra,3
 136:	0000                	unimp
 138:	3608                	fld	fa0,40(a2)
 13a:	0002                	c.slli64	zero
 13c:	0100                	addi	s0,sp,128
 13e:	0162                	slli	sp,sp,0x18
 140:	9476                	add	s0,s0,t4
 142:	0000                	unimp
 144:	b900                	fsd	fs0,48(a0)
 146:	0000                	unimp
 148:	0a00                	addi	s0,sp,272
 14a:	0468                	addi	a0,sp,524
 14c:	6100                	flw	fs0,0(a0)
 14e:	01d5                	addi	gp,gp,21
 150:	0000                	unimp
 152:	013c                	addi	a5,sp,136
 154:	0000                	unimp
 156:	025a010b          	0x25a010b
 15a:	0078                	addi	a4,sp,12
 15c:	015b010b          	0x15b010b
 160:	0030                	addi	a2,sp,8
 162:	7c0a                	flw	fs8,160(sp)
 164:	0004                	0x4
 166:	2d61                	jal	7fe <_start-0x60fff802>
 168:	0005                	c.nop	1
 16a:	6000                	flw	fs0,0(s0)
 16c:	0001                	nop
 16e:	0b00                	addi	s0,sp,400
 170:	5a01                	li	s4,-32
 172:	7802                	flw	fa6,32(sp)
 174:	0b00                	addi	s0,sp,400
 176:	5b01                	li	s6,-32
 178:	3201                	jal	fffffa78 <stack_end+0x9efff3fc>
 17a:	025c010b          	0x25c010b
 17e:	0079                	c.nop	30
 180:	015d010b          	0x15d010b
 184:	0034                	addi	a3,sp,8
 186:	8c0a                	mv	s8,sp
 188:	0004                	0x4
 18a:	9661                	srai	a2,a2,0x38
 18c:	0004                	0x4
 18e:	7b00                	flw	fs0,48(a4)
 190:	0001                	nop
 192:	0b00                	addi	s0,sp,400
 194:	5a01                	li	s4,-32
 196:	7802                	flw	fa6,32(sp)
 198:	0b00                	addi	s0,sp,400
 19a:	5b01                	li	s6,-32
 19c:	06007203          	0x6007203
 1a0:	0a00                	addi	s0,sp,272
 1a2:	049c                	addi	a5,sp,576
 1a4:	6100                	flw	fs0,0(a0)
 1a6:	0496                	slli	s1,s1,0x5
 1a8:	0000                	unimp
 1aa:	0196                	slli	gp,gp,0x5
 1ac:	0000                	unimp
 1ae:	025a010b          	0x25a010b
 1b2:	0078                	addi	a4,sp,12
 1b4:	035b010b          	0x35b010b
 1b8:	6c91                	lui	s9,0x4
 1ba:	0006                	c.slli	zero,0x1
 1bc:	b00a                	fsd	ft2,32(sp)
 1be:	0004                	0x4
 1c0:	a561                	j	848 <_start-0x60fff7b8>
 1c2:	b7000003          	lb	zero,-1168(zero) # fffffb70 <stack_end+0x9efff4f4>
 1c6:	0001                	nop
 1c8:	0b00                	addi	s0,sp,400
 1ca:	5a01                	li	s4,-32
 1cc:	7802                	flw	fa6,32(sp)
 1ce:	0b00                	addi	s0,sp,400
 1d0:	5b01                	li	s6,-32
 1d2:	06709103          	lh	sp,103(ra)
 1d6:	025c010b          	0x25c010b
 1da:	0079                	c.nop	30
 1dc:	0c00                	addi	s0,sp,528
 1de:	04c8                	addi	a0,sp,580
 1e0:	6100                	flw	fs0,0(a0)
 1e2:	0268                	addi	a0,sp,268
 1e4:	0000                	unimp
 1e6:	035a010b          	0x35a010b
 1ea:	005a01f3          	0x5a01f3
 1ee:	0d00                	addi	s0,sp,656
 1f0:	a004                	fsd	fs1,0(s0)
 1f2:	0000                	unimp
 1f4:	0d00                	addi	s0,sp,656
 1f6:	8f04                	0x8f04
 1f8:	0000                	unimp
 1fa:	0700                	addi	s0,sp,896
 1fc:	02df 0000 5901      	0x5901000002df
 202:	0501                	addi	a0,a0,0
 204:	0075                	c.nop	29
 206:	0000                	unimp
 208:	03f8                	addi	a4,sp,460
 20a:	6100                	flw	fs0,0(a0)
 20c:	0044                	addi	s1,sp,4
 20e:	0000                	unimp
 210:	9c01                	0x9c01
 212:	0268                	addi	a0,sp,268
 214:	0000                	unimp
 216:	2908                	fld	fa0,16(a0)
 218:	01000003          	lb	zero,16(zero) # 10 <_start-0x60fffff0>
 21c:	0159                	addi	sp,sp,22
 21e:	0001c92b          	0x1c92b
 222:	e400                	fsw	fs0,8(s0)
 224:	0000                	unimp
 226:	0900                	addi	s0,sp,144
 228:	7266                	flw	ft4,120(sp)
 22a:	0066                	c.slli	zero,0x19
 22c:	5901                	li	s2,-32
 22e:	3e01                	jal	fffffd3e <stack_end+0x9efff6c2>
 230:	00000083          	lb	ra,0(zero) # 0 <_start-0x61000000>
 234:	0110                	addi	a2,sp,128
 236:	0000                	unimp
 238:	e10e                	fsw	ft3,128(sp)
 23a:	0000                	unimp
 23c:	0100                	addi	s0,sp,128
 23e:	830d015b          	0x830d015b
 242:	0000                	unimp
 244:	0000                	unimp
 246:	140a                	slli	s0,s0,0x22
 248:	0004                	0x4
 24a:	2d61                	jal	8e2 <_start-0x60fff71e>
 24c:	0005                	c.nop	1
 24e:	3e00                	fld	fs0,56(a2)
 250:	0002                	c.slli64	zero
 252:	0b00                	addi	s0,sp,400
 254:	5a01                	li	s4,-32
 256:	7802                	flw	fa6,32(sp)
 258:	0b00                	addi	s0,sp,400
 25a:	5c01                	li	s8,-32
 25c:	3001                	jal	fffffa5c <stack_end+0x9efff3e0>
 25e:	015d010b          	0x15d010b
 262:	0030                	addi	a2,sp,8
 264:	200a                	fld	ft0,128(sp)
 266:	0004                	0x4
 268:	9661                	srai	a2,a2,0x38
 26a:	0004                	0x4
 26c:	5700                	lw	s0,40(a4)
 26e:	0002                	c.slli64	zero
 270:	0b00                	addi	s0,sp,400
 272:	5a01                	li	s4,-32
 274:	7802                	flw	fa6,32(sp)
 276:	0b00                	addi	s0,sp,400
 278:	5b01                	li	s6,-32
 27a:	3601                	jal	fffffd7a <stack_end+0x9efff6fe>
 27c:	0f00                	addi	s0,sp,912
 27e:	0428                	addi	a0,sp,520
 280:	6100                	flw	fs0,0(a0)
 282:	00000503          	lb	a0,0(zero) # 0 <_start-0x61000000>
 286:	025a010b          	0x25a010b
 28a:	0078                	addi	a4,sp,12
 28c:	0000                	unimp
 28e:	00020c07          	vle8.v	v24,(tp),v0.t
 292:	0100                	addi	s0,sp,128
 294:	013d                	addi	sp,sp,15
 296:	7505                	lui	a0,0xfffe1
 298:	0000                	unimp
 29a:	7c00                	flw	fs0,56(s0)
 29c:	7c610003          	lb	zero,1990(sp)
 2a0:	0000                	unimp
 2a2:	0100                	addi	s0,sp,128
 2a4:	1f9c                	addi	a5,sp,1008
 2a6:	08000003          	lb	zero,128(zero) # 80 <_start-0x60ffff80>
 2aa:	0329                	addi	t1,t1,10
 2ac:	0000                	unimp
 2ae:	3d01                	jal	be <_start-0x60ffff42>
 2b0:	2f01                	jal	9c0 <_start-0x60fff640>
 2b2:	01c9                	addi	gp,gp,18
 2b4:	0000                	unimp
 2b6:	0131                	addi	sp,sp,12
 2b8:	0000                	unimp
 2ba:	7210                	flw	fa2,32(a2)
 2bc:	0078                	addi	a4,sp,12
 2be:	3f01                	jal	1ce <_start-0x60fffe32>
 2c0:	0d01                	addi	s10,s10,0
 2c2:	00000083          	lb	ra,0(zero) # 0 <_start-0x61000000>
 2c6:	9102                	jalr	sp
 2c8:	03520e73          	0x3520e73
 2cc:	0000                	unimp
 2ce:	4001                	c.li	zero,0
 2d0:	0e01                	addi	t3,t3,0
 2d2:	0094                	addi	a3,sp,64
 2d4:	0000                	unimp
 2d6:	1101                	addi	sp,sp,-32
 2d8:	03e5                	addi	t2,t2,25
 2da:	0000                	unimp
 2dc:	4101                	li	sp,0
 2de:	0e01                	addi	t3,t3,0
 2e0:	0094                	addi	a3,sp,64
 2e2:	0000                	unimp
 2e4:	0168                	addi	a0,sp,140
 2e6:	0000                	unimp
 2e8:	9c0a                	add	s8,s8,sp
 2ea:	33610003          	lb	zero,822(sp)
 2ee:	0006                	c.slli	zero,0x1
 2f0:	db00                	sw	s0,48(a4)
 2f2:	0002                	c.slli64	zero
 2f4:	0b00                	addi	s0,sp,400
 2f6:	5a01                	li	s4,-32
 2f8:	7802                	flw	fa6,32(sp)
 2fa:	0b00                	addi	s0,sp,400
 2fc:	5b01                	li	s6,-32
 2fe:	3101                	jal	fffffefe <stack_end+0x9efff882>
 300:	0a00                	addi	s0,sp,272
 302:	03a8                	addi	a0,sp,456
 304:	6100                	flw	fs0,0(a0)
 306:	0496                	slli	s1,s1,0x5
 308:	0000                	unimp
 30a:	02f4                	addi	a3,sp,332
 30c:	0000                	unimp
 30e:	025a010b          	0x25a010b
 312:	0078                	addi	a4,sp,12
 314:	015b010b          	0x15b010b
 318:	0035                	c.nop	13
 31a:	cc0a                	sw	sp,24(sp)
 31c:	03610003          	lb	zero,54(sp)
 320:	0005                	c.nop	1
 322:	0800                	addi	s0,sp,16
 324:	0b000003          	lb	zero,176(zero) # b0 <_start-0x60ffff50>
 328:	5a01                	li	s4,-32
 32a:	7802                	flw	fa6,32(sp)
 32c:	0000                	unimp
 32e:	0003dc0f          	0x3dc0f
 332:	1f61                	addi	t5,t5,-8
 334:	0b000003          	lb	zero,176(zero) # b0 <_start-0x60ffff50>
 338:	5a01                	li	s4,-32
 33a:	7802                	flw	fa6,32(sp)
 33c:	0b00                	addi	s0,sp,400
 33e:	5b01                	li	s6,-32
 340:	7902                	flw	fs2,32(sp)
 342:	0000                	unimp
 344:	0700                	addi	s0,sp,896
 346:	0348                	addi	a0,sp,388
 348:	0000                	unimp
 34a:	2a01                	jal	45a <_start-0x60fffba6>
 34c:	0501                	addi	a0,a0,0
 34e:	0075                	c.nop	29
 350:	0000                	unimp
 352:	0320                	addi	s0,sp,392
 354:	6100                	flw	fs0,0(a0)
 356:	005c                	addi	a5,sp,4
 358:	0000                	unimp
 35a:	9c01                	0x9c01
 35c:	039f 0000 2908      	0x29080000039f
 362:	01000003          	lb	zero,16(zero) # 10 <_start-0x60fffff0>
 366:	012a                	slli	sp,sp,0xa
 368:	c922                	sw	s0,144(sp)
 36a:	0001                	nop
 36c:	8600                	0x8600
 36e:	0001                	nop
 370:	0900                	addi	s0,sp,144
 372:	0074756f          	jal	a0,47b78 <_start-0x60fb8488>
 376:	2a01                	jal	486 <_start-0x60fffb7a>
 378:	3601                	jal	fffffe78 <stack_end+0x9efff7fc>
 37a:	039f 0000 01b2      	0x1b20000039f
 380:	0000                	unimp
 382:	c411                	beqz	s0,38e <_start-0x60fffc72>
 384:	0000                	unimp
 386:	0100                	addi	s0,sp,128
 388:	012c                	addi	a1,sp,136
 38a:	940e                	add	s0,s0,gp
 38c:	0000                	unimp
 38e:	de00                	sw	s0,56(a2)
 390:	0001                	nop
 392:	1100                	addi	s0,sp,160
 394:	037d                	addi	t1,t1,31
 396:	0000                	unimp
 398:	2d01                	jal	9a8 <_start-0x60fff658>
 39a:	0e01                	addi	t3,t3,0
 39c:	0094                	addi	a3,sp,64
 39e:	0000                	unimp
 3a0:	01f1                	addi	gp,gp,28
 3a2:	0000                	unimp
 3a4:	0003480f          	0x3480f
 3a8:	7261                	lui	tp,0xffff8
 3aa:	0009                	c.nop	2
 3ac:	0b00                	addi	s0,sp,400
 3ae:	5a01                	li	s4,-32
 3b0:	7902                	flw	fs2,32(sp)
 3b2:	0b00                	addi	s0,sp,400
 3b4:	5b01                	li	s6,-32
 3b6:	3a01                	jal	fffffcc6 <stack_end+0x9efff64a>
 3b8:	025c010b          	0x25c010b
 3bc:	ff09                	bnez	a4,2d6 <_start-0x60fffd2a>
 3be:	015d010b          	0x15d010b
 3c2:	0030                	addi	a2,sp,8
 3c4:	0d00                	addi	s0,sp,656
 3c6:	8304                	0x8304
 3c8:	0000                	unimp
 3ca:	0700                	addi	s0,sp,896
 3cc:	027c                	addi	a5,sp,268
 3ce:	0000                	unimp
 3d0:	2301                	jal	8d0 <_start-0x60fff730>
 3d2:	0501                	addi	a0,a0,0
 3d4:	0075                	c.nop	29
 3d6:	0000                	unimp
 3d8:	02f8                	addi	a4,sp,332
 3da:	6100                	flw	fs0,0(a0)
 3dc:	0028                	addi	a0,sp,8
 3de:	0000                	unimp
 3e0:	9c01                	0x9c01
 3e2:	00000427          	vse8.v	v8,(zero),v0.t
 3e6:	2908                	fld	fa0,16(a0)
 3e8:	01000003          	lb	zero,16(zero) # 10 <_start-0x60fffff0>
 3ec:	c9260123          	sb	s2,-894(a2)
 3f0:	0001                	nop
 3f2:	0400                	addi	s0,sp,512
 3f4:	0002                	c.slli64	zero
 3f6:	0800                	addi	s0,sp,16
 3f8:	000001c7          	fmsub.s	ft3,ft0,ft0,ft0,rne
 3fc:	2301                	jal	8fc <_start-0x60fff704>
 3fe:	4001                	c.li	zero,0
 400:	000001cf          	fnmadd.s	ft3,ft0,ft0,ft0,rne
 404:	0000023b          	0x23b
 408:	fd08                	fsw	fa0,56(a0)
 40a:	0001                	nop
 40c:	0100                	addi	s0,sp,128
 40e:	94510123          	sb	t0,-1726(sp)
 412:	0000                	unimp
 414:	5c00                	lw	s0,56(s0)
 416:	0002                	c.slli64	zero
 418:	0a00                	addi	s0,sp,272
 41a:	030c                	addi	a1,sp,384
 41c:	6100                	flw	fs0,0(a0)
 41e:	00000427          	vse8.v	v8,(zero),v0.t
 422:	0415                	addi	s0,s0,5
 424:	0000                	unimp
 426:	025a010b          	0x25a010b
 42a:	0078                	addi	a4,sp,12
 42c:	035b010b          	0x35b010b
 430:	0b5b01f3          	0xb5b01f3
 434:	5c01                	li	s8,-32
 436:	5c01f303          	0x5c01f303
 43a:	0c00                	addi	s0,sp,528
 43c:	0320                	addi	s0,sp,392
 43e:	6100                	flw	fs0,0(a0)
 440:	00000503          	lb	a0,0(zero) # 0 <_start-0x61000000>
 444:	035a010b          	0x35a010b
 448:	005a01f3          	0x5a01f3
 44c:	0700                	addi	s0,sp,896
 44e:	01b1                	addi	gp,gp,12
 450:	0000                	unimp
 452:	1701                	addi	a4,a4,-32
 454:	0501                	addi	a0,a0,0
 456:	0075                	c.nop	29
 458:	0000                	unimp
 45a:	02a4                	addi	s1,sp,328
 45c:	6100                	flw	fs0,0(a0)
 45e:	0054                	addi	a3,sp,4
 460:	0000                	unimp
 462:	9c01                	0x9c01
 464:	0496                	slli	s1,s1,0x5
 466:	0000                	unimp
 468:	2908                	fld	fa0,16(a0)
 46a:	01000003          	lb	zero,16(zero) # 10 <_start-0x60fffff0>
 46e:	c92e0117          	auipc	sp,0xc92e0
 472:	0001                	nop
 474:	7d00                	flw	fs0,56(a0)
 476:	0002                	c.slli64	zero
 478:	0800                	addi	s0,sp,16
 47a:	000001c7          	fmsub.s	ft3,ft0,ft0,ft0,rne
 47e:	1701                	addi	a4,a4,-32
 480:	4801                	li	a6,0
 482:	000001cf          	fnmadd.s	ft3,ft0,ft0,ft0,rne
 486:	029e                	slli	t0,t0,0x7
 488:	0000                	unimp
 48a:	fd08                	fsw	fa0,56(a0)
 48c:	0001                	nop
 48e:	0100                	addi	s0,sp,128
 490:	94590117          	auipc	sp,0x94590
 494:	0000                	unimp
 496:	bf00                	fsd	fs0,56(a4)
 498:	0002                	c.slli64	zero
 49a:	1200                	addi	s0,sp,288
 49c:	0069                	c.nop	26
 49e:	1901                	addi	s2,s2,-32
 4a0:	0e01                	addi	t3,t3,0
 4a2:	0094                	addi	a3,sp,64
 4a4:	0000                	unimp
 4a6:	02e0                	addi	s0,sp,332
 4a8:	0000                	unimp
 4aa:	0002ec0f          	0x2ec0f
 4ae:	9661                	srai	a2,a2,0x38
 4b0:	0004                	0x4
 4b2:	0b00                	addi	s0,sp,400
 4b4:	5a01                	li	s4,-32
 4b6:	06007203          	0x6007203
 4ba:	0000                	unimp
 4bc:	0000ed07          	vle32.v	v26,(ra),v0.t
 4c0:	0100                	addi	s0,sp,128
 4c2:	0105                	addi	sp,sp,1
 4c4:	7505                	lui	a0,0xfffe1
 4c6:	0000                	unimp
 4c8:	5800                	lw	s0,48(s0)
 4ca:	0002                	c.slli64	zero
 4cc:	4c61                	li	s8,24
 4ce:	0000                	unimp
 4d0:	0100                	addi	s0,sp,128
 4d2:	039c                	addi	a5,sp,448
 4d4:	0005                	c.nop	1
 4d6:	0800                	addi	s0,sp,16
 4d8:	0329                	addi	t1,t1,10
 4da:	0000                	unimp
 4dc:	0501                	addi	a0,a0,0
 4de:	2201                	jal	5de <_start-0x60fffa22>
 4e0:	01c9                	addi	gp,gp,18
 4e2:	0000                	unimp
 4e4:	033a                	slli	t1,t1,0xe
 4e6:	0000                	unimp
 4e8:	6909                	lui	s2,0x2
 4ea:	006e                	c.slli	zero,0x1b
 4ec:	0501                	addi	a0,a0,0
 4ee:	3601                	jal	ffffffee <stack_end+0x9efff972>
 4f0:	0094                	addi	a3,sp,64
 4f2:	0000                	unimp
 4f4:	0366                	slli	t1,t1,0x19
 4f6:	0000                	unimp
 4f8:	0011                	c.nop	4
 4fa:	01000003          	lb	zero,16(zero) # 10 <_start-0x60fffff0>
 4fe:	940e0107          	0x940e0107
 502:	0000                	unimp
 504:	9300                	0x9300
 506:	0f000003          	lb	zero,240(zero) # f0 <_start-0x60ffff10>
 50a:	0284                	addi	s1,sp,320
 50c:	6100                	flw	fs0,0(a0)
 50e:	0972                	slli	s2,s2,0x1c
 510:	0000                	unimp
 512:	025a010b          	0x25a010b
 516:	0078                	addi	a4,sp,12
 518:	015b010b          	0x15b010b
 51c:	0b3a                	slli	s6,s6,0xe
 51e:	5c01                	li	s8,-32
 520:	3201                	jal	fffffe20 <stack_end+0x9efff7a4>
 522:	015d010b          	0x15d010b
 526:	0031                	c.nop	12
 528:	1300                	addi	s0,sp,416
 52a:	0318                	addi	a4,sp,384
 52c:	0000                	unimp
 52e:	ec01                	bnez	s0,546 <_start-0x60fffaba>
 530:	7505                	lui	a0,0xfffe1
 532:	0000                	unimp
 534:	0100                	addi	s0,sp,128
 536:	052d                	addi	a0,a0,11
 538:	0000                	unimp
 53a:	2914                	fld	fa3,16(a0)
 53c:	01000003          	lb	zero,16(zero) # 10 <_start-0x60fffff0>
 540:	29ec                	fld	fa1,208(a1)
 542:	01c9                	addi	gp,gp,18
 544:	0000                	unimp
 546:	0415                	addi	s0,s0,5
 548:	0002                	c.slli64	zero
 54a:	0100                	addi	s0,sp,128
 54c:	0eee                	slli	t4,t4,0x1b
 54e:	0094                	addi	a3,sp,64
 550:	0000                	unimp
 552:	1600                	addi	s0,sp,800
 554:	0192                	slli	gp,gp,0x4
 556:	0000                	unimp
 558:	dc01                	beqz	s0,470 <_start-0x60fffb90>
 55a:	4c06                	lw	s8,64(sp)
 55c:	0001                	nop
 55e:	9461                	srai	s0,s0,0x38
 560:	0000                	unimp
 562:	0100                	addi	s0,sp,128
 564:	339c                	fld	fa5,32(a5)
 566:	0006                	c.slli	zero,0x1
 568:	1700                	addi	s0,sp,928
 56a:	0329                	addi	t1,t1,10
 56c:	0000                	unimp
 56e:	dc01                	beqz	s0,486 <_start-0x60fffb7a>
 570:	c92a                	sw	a0,144(sp)
 572:	0001                	nop
 574:	a600                	fsd	fs0,8(a2)
 576:	18000003          	lb	zero,384(zero) # 180 <_start-0x60fffe80>
 57a:	7266                	flw	ft4,120(sp)
 57c:	0066                	c.slli	zero,0x19
 57e:	dc01                	beqz	s0,496 <_start-0x60fffb6a>
 580:	833d                	srli	a4,a4,0xf
 582:	0000                	unimp
 584:	dd00                	sw	s0,56(a0)
 586:	17000003          	lb	zero,368(zero) # 170 <_start-0x60fffe90>
 58a:	00d4                	addi	a3,sp,68
 58c:	0000                	unimp
 58e:	dc01                	beqz	s0,4a6 <_start-0x60fffb5a>
 590:	0000944b          	fnmsub.s	fs0,ft1,ft0,ft0,rtz
 594:	fe00                	fsw	fs0,56(a2)
 596:	17000003          	lb	zero,368(zero) # 170 <_start-0x60fffe90>
 59a:	00e1                	addi	ra,ra,24
 59c:	0000                	unimp
 59e:	dc01                	beqz	s0,4b6 <_start-0x60fffb4a>
 5a0:	9462                	add	s0,s0,s8
 5a2:	0000                	unimp
 5a4:	2900                	fld	fs0,16(a0)
 5a6:	0004                	0x4
 5a8:	0a00                	addi	s0,sp,272
 5aa:	0170                	addi	a2,sp,140
 5ac:	6100                	flw	fs0,0(a0)
 5ae:	08cc                	addi	a1,sp,84
 5b0:	0000                	unimp
 5b2:	00000597          	auipc	a1,0x0
 5b6:	025a010b          	0x25a010b
 5ba:	0078                	addi	a4,sp,12
 5bc:	0a00                	addi	s0,sp,272
 5be:	0184                	addi	s1,sp,192
 5c0:	6100                	flw	fs0,0(a0)
 5c2:	07e4                	addi	s1,sp,972
 5c4:	0000                	unimp
 5c6:	000005bb          	0x5bb
 5ca:	025a010b          	0x25a010b
 5ce:	0078                	addi	a4,sp,12
 5d0:	015b010b          	0x15b010b
 5d4:	5c010b37          	lui	s6,0x5c010
 5d8:	7902                	flw	fs2,32(sp)
 5da:	0b00                	addi	s0,sp,400
 5dc:	5d01                	li	s10,-32
 5de:	3101                	jal	1de <_start-0x60fffe22>
 5e0:	0a00                	addi	s0,sp,272
 5e2:	0198                	addi	a4,sp,192
 5e4:	6100                	flw	fs0,0(a0)
 5e6:	06ea                	slli	a3,a3,0x1a
 5e8:	0000                	unimp
 5ea:	000005db          	0x5db
 5ee:	025a010b          	0x25a010b
 5f2:	0078                	addi	a4,sp,12
 5f4:	015b010b          	0x15b010b
 5f8:	0b30                	addi	a2,sp,408
 5fa:	5c01                	li	s8,-32
 5fc:	06007203          	0x6007203
 600:	0a00                	addi	s0,sp,272
 602:	01b0                	addi	a2,sp,200
 604:	6100                	flw	fs0,0(a0)
 606:	0785                	addi	a5,a5,1
 608:	0000                	unimp
 60a:	05f8                	addi	a4,sp,716
 60c:	0000                	unimp
 60e:	025a010b          	0x25a010b
 612:	0078                	addi	a4,sp,12
 614:	055b010b          	0x55b010b
 618:	7091                	lui	ra,0xfffe4
 61a:	3106                	fld	ft2,96(sp)
 61c:	001c                	0x1c
 61e:	c80a                	sw	sp,16(sp)
 620:	0001                	nop
 622:	0161                	addi	sp,sp,24
 624:	0009                	c.nop	2
 626:	2100                	fld	fs0,0(a0)
 628:	0006                	c.slli	zero,0x1
 62a:	0b00                	addi	s0,sp,400
 62c:	5a01                	li	s4,-32
 62e:	7802                	flw	fa6,32(sp)
 630:	0b00                	addi	s0,sp,400
 632:	5b01                	li	s6,-32
 634:	0802                	c.slli64	a6
 636:	0b3d                	addi	s6,s6,15
 638:	5c01                	li	s8,-32
 63a:	0c05                	addi	s8,s8,1
 63c:	0220                	addi	s0,sp,264
 63e:	4000                	lw	s0,0(s0)
 640:	025d010b          	0x25d010b
 644:	ff09                	bnez	a4,55e <_start-0x60fffaa2>
 646:	0c00                	addi	s0,sp,528
 648:	01e0                	addi	s0,sp,204
 64a:	6100                	flw	fs0,0(a0)
 64c:	00000897          	auipc	a7,0x0
 650:	035a010b          	0x35a010b
 654:	005a01f3          	0x5a01f3
 658:	1600                	addi	s0,sp,800
 65a:	00000257          	vadd.vv	v4,v0,v0,v0.t
 65e:	d301                	beqz	a4,55e <_start-0x60fffaa2>
 660:	e806                	fsw	ft1,16(sp)
 662:	0000                	unimp
 664:	6461                	lui	s0,0x18
 666:	0000                	unimp
 668:	0100                	addi	s0,sp,128
 66a:	ea9c                	fsw	fa5,16(a3)
 66c:	0006                	c.slli	zero,0x1
 66e:	1700                	addi	s0,sp,928
 670:	0329                	addi	t1,t1,10
 672:	0000                	unimp
 674:	d301                	beqz	a4,574 <_start-0x60fffa8c>
 676:	c92e                	sw	a1,144(sp)
 678:	0001                	nop
 67a:	5400                	lw	s0,40(s0)
 67c:	0004                	0x4
 67e:	1800                	addi	s0,sp,48
 680:	656c                	flw	fa1,76(a0)
 682:	006e                	c.slli	zero,0x1b
 684:	d301                	beqz	a4,584 <_start-0x60fffa7c>
 686:	9442                	add	s0,s0,a6
 688:	0000                	unimp
 68a:	8b00                	0x8b00
 68c:	0004                	0x4
 68e:	0a00                	addi	s0,sp,272
 690:	0104                	addi	s1,sp,128
 692:	6100                	flw	fs0,0(a0)
 694:	08cc                	addi	a1,sp,84
 696:	0000                	unimp
 698:	067d                	addi	a2,a2,31
 69a:	0000                	unimp
 69c:	025a010b          	0x25a010b
 6a0:	0078                	addi	a4,sp,12
 6a2:	0a00                	addi	s0,sp,272
 6a4:	0118                	addi	a4,sp,128
 6a6:	6100                	flw	fs0,0(a0)
 6a8:	07e4                	addi	s1,sp,972
 6aa:	0000                	unimp
 6ac:	06a0                	addi	s0,sp,840
 6ae:	0000                	unimp
 6b0:	025a010b          	0x25a010b
 6b4:	0078                	addi	a4,sp,12
 6b6:	015b010b          	0x15b010b
 6ba:	5c010b37          	lui	s6,0x5c010
 6be:	3001                	jal	fffffebe <stack_end+0x9efff842>
 6c0:	015d010b          	0x15d010b
 6c4:	240a0033          	0x240a0033
 6c8:	0001                	nop
 6ca:	8561                	srai	a0,a0,0x18
 6cc:	ba000007          	0xba000007
 6d0:	0006                	c.slli	zero,0x1
 6d2:	0b00                	addi	s0,sp,400
 6d4:	5a01                	li	s4,-32
 6d6:	7802                	flw	fa6,32(sp)
 6d8:	0b00                	addi	s0,sp,400
 6da:	5b01                	li	s6,-32
 6dc:	7902                	flw	fs2,32(sp)
 6de:	340a007f          	ukcras16	zero,s4,zero
 6e2:	0001                	nop
 6e4:	ea61                	bnez	a2,7b4 <_start-0x60fff84c>
 6e6:	0006                	c.slli	zero,0x1
 6e8:	d800                	sw	s0,48(s0)
 6ea:	0006                	c.slli	zero,0x1
 6ec:	0b00                	addi	s0,sp,400
 6ee:	5a01                	li	s4,-32
 6f0:	7802                	flw	fa6,32(sp)
 6f2:	0b00                	addi	s0,sp,400
 6f4:	5b01                	li	s6,-32
 6f6:	3001                	jal	fffffef6 <stack_end+0x9efff87a>
 6f8:	015c010b          	0x15c010b
 6fc:	0030                	addi	a2,sp,8
 6fe:	4c0c                	lw	a1,24(s0)
 700:	0001                	nop
 702:	9761                	srai	a4,a4,0x38
 704:	0008                	0x8
 706:	0b00                	addi	s0,sp,400
 708:	5a01                	li	s4,-32
 70a:	5a01f303          	0x5a01f303
 70e:	0000                	unimp
 710:	0e16                	slli	t3,t3,0x5
 712:	0001                	nop
 714:	0100                	addi	s0,sp,128
 716:	06ca                	slli	a3,a3,0x12
 718:	00c8                	addi	a0,sp,68
 71a:	6100                	flw	fs0,0(a0)
 71c:	0020                	addi	s0,sp,8
 71e:	0000                	unimp
 720:	9c01                	0x9c01
 722:	0785                	addi	a5,a5,1
 724:	0000                	unimp
 726:	00032917          	auipc	s2,0x32
 72a:	0100                	addi	s0,sp,128
 72c:	2eca                	fld	ft9,144(sp)
 72e:	01c9                	addi	gp,gp,18
 730:	0000                	unimp
 732:	000004b7          	lui	s1,0x0
 736:	7418                	flw	fa4,40(s0)
 738:	7466                	flw	fs0,120(sp)
 73a:	0100                	addi	s0,sp,128
 73c:	42ca                	lw	t0,144(sp)
 73e:	0094                	addi	a3,sp,64
 740:	0000                	unimp
 742:	04d8                	addi	a4,sp,580
 744:	0000                	unimp
 746:	0001ce17          	auipc	t3,0x1c
 74a:	0100                	addi	s0,sp,128
 74c:	50ca                	lw	ra,176(sp)
 74e:	0094                	addi	a3,sp,64
 750:	0000                	unimp
 752:	04f9                	addi	s1,s1,30
 754:	0000                	unimp
 756:	7619                	lui	a2,0xfffe6
 758:	6c61                	lui	s8,0x18
 75a:	0100                	addi	s0,sp,128
 75c:	0ecc                	addi	a1,sp,852
 75e:	0094                	addi	a3,sp,64
 760:	0000                	unimp
 762:	051a                	slli	a0,a0,0x6
 764:	0000                	unimp
 766:	da1a                	sw	t1,52(sp)
 768:	0002                	c.slli64	zero
 76a:	0100                	addi	s0,sp,128
 76c:	13cc                	addi	a1,sp,484
 76e:	0094                	addi	a3,sp,64
 770:	0000                	unimp
 772:	00ff00ff          	radd16	ra,t5,a5
 776:	e80c                	fsw	fa1,16(s0)
 778:	0000                	unimp
 77a:	0161                	addi	sp,sp,24
 77c:	0009                	c.nop	2
 77e:	0b00                	addi	s0,sp,400
 780:	5a01                	li	s4,-32
 782:	5a01f303          	0x5a01f303
 786:	015b010b          	0x15b010b
 78a:	0b36                	slli	s6,s6,0xd
 78c:	5c01                	li	s8,-32
 78e:	f311                	bnez	a4,692 <_start-0x60fff96e>
 790:	5c01                	li	s8,-32
 792:	2440                	fld	fs0,136(s0)
 794:	ff08                	fsw	fa0,56(a4)
 796:	2440                	fld	fs0,136(s0)
 798:	f31a                	fsw	ft6,164(sp)
 79a:	5b01                	li	s6,-32
 79c:	ff08                	fsw	fa0,56(a4)
 79e:	211a                	fld	ft2,384(sp)
 7a0:	055d010b          	0x55d010b
 7a4:	ff0c                	fsw	fa1,56(a4)
 7a6:	ff00                	fsw	fs0,56(a4)
 7a8:	0000                	unimp
 7aa:	1600                	addi	s0,sp,800
 7ac:	02c2                	slli	t0,t0,0x10
 7ae:	0000                	unimp
 7b0:	c401                	beqz	s0,7b8 <_start-0x60fff848>
 7b2:	b406                	fsd	ft1,40(sp)
 7b4:	0000                	unimp
 7b6:	1461                	addi	s0,s0,-8
 7b8:	0000                	unimp
 7ba:	0100                	addi	s0,sp,128
 7bc:	e49c                	fsw	fa5,8(s1)
 7be:	17000007          	0x17000007
 7c2:	0329                	addi	t1,t1,10
 7c4:	0000                	unimp
 7c6:	c401                	beqz	s0,7ce <_start-0x60fff832>
 7c8:	c92e                	sw	a1,144(sp)
 7ca:	0001                	nop
 7cc:	7300                	flw	fs0,32(a4)
 7ce:	0005                	c.nop	1
 7d0:	1800                	addi	s0,sp,48
 7d2:	646e                	flw	fs0,216(sp)
 7d4:	0066                	c.slli	zero,0x19
 7d6:	c401                	beqz	s0,7de <_start-0x60fff822>
 7d8:	9442                	add	s0,s0,a6
 7da:	0000                	unimp
 7dc:	9400                	0x9400
 7de:	0005                	c.nop	1
 7e0:	0c00                	addi	s0,sp,528
 7e2:	00c8                	addi	a0,sp,68
 7e4:	6100                	flw	fs0,0(a0)
 7e6:	0901                	addi	s2,s2,0
 7e8:	0000                	unimp
 7ea:	035a010b          	0x35a010b
 7ee:	0b5a01f3          	0xb5a01f3
 7f2:	5b01                	li	s6,-32
 7f4:	3101                	jal	3f4 <_start-0x60fffc0c>
 7f6:	075c010b          	0x75c010b
 7fa:	0a5b01f3          	0xa5b01f3
 7fe:	0b1affff          	0xb1affff
 802:	5d01                	li	s10,-32
 804:	ffff0a03          	lb	s4,-1(t5)
 808:	0000                	unimp
 80a:	ad16                	fsd	ft5,152(sp)
 80c:	0002                	c.slli64	zero
 80e:	0100                	addi	s0,sp,128
 810:	007c06bb          	0x7c06bb
 814:	6100                	flw	fs0,0(a0)
 816:	0038                	addi	a4,sp,8
 818:	0000                	unimp
 81a:	9c01                	0x9c01
 81c:	00000897          	auipc	a7,0x0
 820:	00032917          	auipc	s2,0x32
 824:	0100                	addi	s0,sp,128
 826:	01c92ebb          	0x1c92ebb
 82a:	0000                	unimp
 82c:	05b5                	addi	a1,a1,13
 82e:	0000                	unimp
 830:	6418                	flw	fa4,8(s0)
 832:	7366                	flw	ft6,120(sp)
 834:	0100                	addi	s0,sp,128
 836:	009442bb          	0x9442bb
 83a:	0000                	unimp
 83c:	05d6                	slli	a1,a1,0x15
 83e:	0000                	unimp
 840:	00033317          	auipc	t1,0x33
 844:	0100                	addi	s0,sp,128
 846:	009450bb          	0x9450bb
 84a:	0000                	unimp
 84c:	000005f7          	0x5f7
 850:	00017d17          	auipc	s10,0x17
 854:	0100                	addi	s0,sp,128
 856:	009462bb          	0x9462bb
 85a:	0000                	unimp
 85c:	0618                	addi	a4,sp,768
 85e:	0000                	unimp
 860:	7619                	lui	a2,0xfffe6
 862:	6c61                	lui	s8,0x18
 864:	0100                	addi	s0,sp,128
 866:	0ebd                	addi	t4,t4,15
 868:	0094                	addi	a3,sp,64
 86a:	0000                	unimp
 86c:	0639                	addi	a2,a2,14
 86e:	0000                	unimp
 870:	da1a                	sw	t1,52(sp)
 872:	0002                	c.slli64	zero
 874:	0100                	addi	s0,sp,128
 876:	13bd                	addi	t2,t2,-17
 878:	0094                	addi	a3,sp,64
 87a:	0000                	unimp
 87c:	00c00c0f          	0xc00c0f
 880:	b40c                	fsd	fa1,40(s0)
 882:	0000                	unimp
 884:	0161                	addi	sp,sp,24
 886:	0009                	c.nop	2
 888:	0b00                	addi	s0,sp,400
 88a:	5a01                	li	s4,-32
 88c:	5a01f303          	0x5a01f303
 890:	015b010b          	0x15b010b
 894:	0b30                	addi	a2,sp,408
 896:	5c01                	li	s8,-32
 898:	f319                	bnez	a4,79e <_start-0x60fff862>
 89a:	5c01                	li	s8,-32
 89c:	2446                	fld	fs0,80(sp)
 89e:	4348                	lw	a0,4(a4)
 8a0:	1a24                	addi	s1,sp,312
 8a2:	3f5b01f3          	0x3f5b01f3
 8a6:	211a                	fld	ft2,384(sp)
 8a8:	3a5d01f3          	0x3a5d01f3
 8ac:	0a24                	addi	s1,sp,280
 8ae:	0c00                	addi	s0,sp,528
 8b0:	211a                	fld	ft2,384(sp)
 8b2:	055d010b          	0x55d010b
 8b6:	0f0c                	addi	a1,sp,912
 8b8:	c00c                	sw	a1,0(s0)
 8ba:	0000                	unimp
 8bc:	1600                	addi	s0,sp,800
 8be:	0249                	addi	tp,tp,18
 8c0:	0000                	unimp
 8c2:	b401                	j	2c2 <_start-0x60fffd3e>
 8c4:	6c06                	flw	fs8,64(sp)
 8c6:	0000                	unimp
 8c8:	1061                	c.nop	-8
 8ca:	0000                	unimp
 8cc:	0100                	addi	s0,sp,128
 8ce:	cc9c                	sw	a5,24(s1)
 8d0:	0008                	0x8
 8d2:	1b00                	addi	s0,sp,432
 8d4:	0329                	addi	t1,t1,10
 8d6:	0000                	unimp
 8d8:	b401                	j	2d8 <_start-0x60fffd28>
 8da:	0001c927          	fsq	ft0,18(gp)
 8de:	0100                	addi	s0,sp,128
 8e0:	1c5a                	slli	s8,s8,0x36
 8e2:	0241                	addi	tp,tp,16
 8e4:	0000                	unimp
 8e6:	b601                	j	3e6 <_start-0x60fffc1a>
 8e8:	940e                	add	s0,s0,gp
 8ea:	0000                	unimp
 8ec:	cb00                	sw	s0,16(a4)
 8ee:	0006                	c.slli	zero,0x1
 8f0:	0000                	unimp
 8f2:	8a16                	mv	s4,t0
 8f4:	0002                	c.slli64	zero
 8f6:	0100                	addi	s0,sp,128
 8f8:	005c06ab          	0x5c06ab
 8fc:	6100                	flw	fs0,0(a0)
 8fe:	0010                	0x10
 900:	0000                	unimp
 902:	9c01                	0x9c01
 904:	0901                	addi	s2,s2,0
 906:	0000                	unimp
 908:	0003291b          	0x3291b
 90c:	0100                	addi	s0,sp,128
 90e:	01c928ab          	0x1c928ab
 912:	0000                	unimp
 914:	5a01                	li	s4,-32
 916:	411c                	lw	a5,0(a0)
 918:	0002                	c.slli64	zero
 91a:	0100                	addi	s0,sp,128
 91c:	0ead                	addi	t4,t4,11
 91e:	0094                	addi	a3,sp,64
 920:	0000                	unimp
 922:	06de                	slli	a3,a3,0x17
 924:	0000                	unimp
 926:	1600                	addi	s0,sp,800
 928:	026c                	addi	a1,sp,268
 92a:	0000                	unimp
 92c:	a301                	j	e2c <_start-0x60fff1d4>
 92e:	3c06                	fld	fs8,96(sp)
 930:	0000                	unimp
 932:	2061                	jal	9ba <_start-0x60fff646>
 934:	0000                	unimp
 936:	0100                	addi	s0,sp,128
 938:	729c                	flw	fa5,32(a3)
 93a:	0009                	c.nop	2
 93c:	1700                	addi	s0,sp,928
 93e:	0329                	addi	t1,t1,10
 940:	0000                	unimp
 942:	a301                	j	e42 <_start-0x60fff1be>
 944:	c929                	beqz	a0,996 <_start-0x60fff66a>
 946:	0001                	nop
 948:	f100                	fsw	fs0,32(a0)
 94a:	0006                	c.slli	zero,0x1
 94c:	1700                	addi	s0,sp,928
 94e:	02a5                	addi	t0,t0,9
 950:	0000                	unimp
 952:	a301                	j	e52 <_start-0x60fff1ae>
 954:	943d                	srai	s0,s0,0x2f
 956:	0000                	unimp
 958:	1200                	addi	s0,sp,288
 95a:	17000007          	0x17000007
 95e:	00c4                	addi	s1,sp,68
 960:	0000                	unimp
 962:	a301                	j	e62 <_start-0x60fff19e>
 964:	0000944f          	fnmadd.s	fs0,ft1,ft0,ft0,rtz
 968:	3300                	fld	fs0,32(a4)
 96a:	1b000007          	0x1b000007
 96e:	000002d7          	vadd.vv	v5,v0,v0,v0.t
 972:	a301                	j	e72 <_start-0x60fff18e>
 974:	945f 0000 0100      	0x1000000945f
 97a:	1d5d                	addi	s10,s10,-9
 97c:	00c1                	addi	ra,ra,16
 97e:	0000                	unimp
 980:	a501                	j	f80 <_start-0x60fff080>
 982:	940e                	add	s0,s0,gp
 984:	0000                	unimp
 986:	0100                	addi	s0,sp,128
 988:	1d5f 01ea 0000      	0x1ea1d5f
 98e:	a501                	j	f8e <_start-0x60fff072>
 990:	9418                	0x9418
 992:	0000                	unimp
 994:	0100                	addi	s0,sp,128
 996:	005c                	addi	a5,sp,4
 998:	591e                	lw	s2,228(sp)
 99a:	01000003          	lb	zero,16(zero) # 10 <_start-0x60fffff0>
 99e:	0598                	addi	a4,sp,704
 9a0:	0075                	c.nop	29
 9a2:	0000                	unimp
 9a4:	0024                	addi	s1,sp,8
 9a6:	6100                	flw	fs0,0(a0)
 9a8:	0018                	0x18
 9aa:	0000                	unimp
 9ac:	9c01                	0x9c01
 9ae:	09e9                	addi	s3,s3,26
 9b0:	0000                	unimp
 9b2:	00032917          	auipc	s2,0x32
 9b6:	0100                	addi	s0,sp,128
 9b8:	2898                	fld	fa4,16(s1)
 9ba:	01c9                	addi	gp,gp,18
 9bc:	0000                	unimp
 9be:	0754                	addi	a3,sp,900
 9c0:	0000                	unimp
 9c2:	0002a517          	auipc	a0,0x2a
 9c6:	0100                	addi	s0,sp,128
 9c8:	3c98                	fld	fa4,56(s1)
 9ca:	0094                	addi	a3,sp,64
 9cc:	0000                	unimp
 9ce:	0775                	addi	a4,a4,29
 9d0:	0000                	unimp
 9d2:	0002d71b          	0x2d71b
 9d6:	0100                	addi	s0,sp,128
 9d8:	4e98                	lw	a4,24(a3)
 9da:	0094                	addi	a3,sp,64
 9dc:	0000                	unimp
 9de:	5c01                	li	s8,-32
 9e0:	00033b1b          	0x33b1b
 9e4:	0100                	addi	s0,sp,128
 9e6:	6098                	flw	fa4,0(s1)
 9e8:	0094                	addi	a3,sp,64
 9ea:	0000                	unimp
 9ec:	5d01                	li	s10,-32
 9ee:	c11c                	sw	a5,0(a0)
 9f0:	0000                	unimp
 9f2:	0100                	addi	s0,sp,128
 9f4:	0e9a                	slli	t4,t4,0x6
 9f6:	0094                	addi	a3,sp,64
 9f8:	0000                	unimp
 9fa:	0796                	slli	a5,a5,0x5
 9fc:	0000                	unimp
 9fe:	f31c                	fsw	fa5,32(a4)
 a00:	0001                	nop
 a02:	0100                	addi	s0,sp,128
 a04:	189a                	slli	a7,a7,0x26
 a06:	0094                	addi	a3,sp,64
 a08:	0000                	unimp
 a0a:	07a9                	addi	a5,a5,10
 a0c:	0000                	unimp
 a0e:	1e00                	addi	s0,sp,816
 a10:	01d5                	addi	gp,gp,21
 a12:	0000                	unimp
 a14:	8d01                	sub	a0,a0,s0
 a16:	940a                	add	s0,s0,sp
 a18:	0000                	unimp
 a1a:	1000                	addi	s0,sp,32
 a1c:	0000                	unimp
 a1e:	1461                	addi	s0,s0,-8
 a20:	0000                	unimp
 a22:	0100                	addi	s0,sp,128
 a24:	329c                	fld	fa5,32(a3)
 a26:	000a                	c.slli	zero,0x2
 a28:	1700                	addi	s0,sp,928
 a2a:	0182                	c.slli64	gp
 a2c:	0000                	unimp
 a2e:	8d01                	sub	a0,a0,s0
 a30:	321e                	fld	ft4,480(sp)
 a32:	000a                	c.slli	zero,0x2
 a34:	c400                	sw	s0,8(s0)
 a36:	19000007          	0x19000007
 a3a:	01007077          	0x1007077
 a3e:	00940e8f          	0x940e8f
 a42:	0000                	unimp
 a44:	07e2                	slli	a5,a5,0x18
 a46:	0000                	unimp
 a48:	7219                	lui	tp,0xfffe6
 a4a:	0070                	addi	a2,sp,12
 a4c:	8f01                	sub	a4,a4,s0
 a4e:	9416                	add	s0,s0,t0
 a50:	0000                	unimp
 a52:	0100                	addi	s0,sp,128
 a54:	0008                	0x8
 a56:	0000                	unimp
 a58:	040d                	addi	s0,s0,3
 a5a:	0094                	addi	a3,sp,64
 a5c:	0000                	unimp
 a5e:	031f 0005 e000      	0xe0000005031f
 a64:	0001                	nop
 a66:	7861                	lui	a6,0xffff8
 a68:	0000                	unimp
 a6a:	0100                	addi	s0,sp,128
 a6c:	209c                	fld	fa5,0(s1)
 a6e:	0514                	addi	a3,sp,640
 a70:	0000                	unimp
 a72:	0820                	addi	s0,sp,24
 a74:	0000                	unimp
 a76:	2021                	jal	a7e <_start-0x60fff582>
 a78:	0005                	c.nop	1
 a7a:	5700                	lw	s0,40(a4)
 a7c:	0008                	0x8
 a7e:	2200                	fld	fs0,0(a2)
 a80:	00000503          	lb	a0,0(zero) # 0 <_start-0x61000000>
 a84:	0234                	addi	a3,sp,264
 a86:	6100                	flw	fs0,0(a0)
 a88:	0024                	addi	s1,sp,8
 a8a:	0000                	unimp
 a8c:	ec01                	bnez	s0,aa4 <_start-0x60fff55c>
 a8e:	9b05                	andi	a4,a4,-31
 a90:	000a                	c.slli	zero,0x2
 a92:	2300                	fld	fs0,0(a4)
 a94:	0514                	addi	a3,sp,640
 a96:	0000                	unimp
 a98:	2021                	jal	aa0 <_start-0x60fff560>
 a9a:	0005                	c.nop	1
 a9c:	af00                	fsd	fs0,24(a4)
 a9e:	0008                	0x8
 aa0:	0f00                	addi	s0,sp,912
 aa2:	0248                	addi	a0,sp,260
 aa4:	6100                	flw	fs0,0(a0)
 aa6:	0972                	slli	s2,s2,0x1c
 aa8:	0000                	unimp
 aaa:	025a010b          	0x25a010b
 aae:	0078                	addi	a4,sp,12
 ab0:	015b010b          	0x15b010b
 ab4:	0b3a                	slli	s6,s6,0xe
 ab6:	5c01                	li	s8,-32
 ab8:	3101                	jal	6b8 <_start-0x60fff948>
 aba:	015d010b          	0x15d010b
 abe:	0030                	addi	a2,sp,8
 ac0:	0f00                	addi	s0,sp,912
 ac2:	020c                	addi	a1,sp,256
 ac4:	6100                	flw	fs0,0(a0)
 ac6:	0972                	slli	s2,s2,0x1c
 ac8:	0000                	unimp
 aca:	025a010b          	0x25a010b
 ace:	0078                	addi	a4,sp,12
 ad0:	015b010b          	0x15b010b
 ad4:	0b3a                	slli	s6,s6,0xe
 ad6:	5c01                	li	s8,-32
 ad8:	3401                	jal	4d8 <_start-0x60fffb28>
 ada:	015d010b          	0x15d010b
 ade:	0032                	c.slli	zero,0xc
 ae0:	0000                	unimp
 ae2:	01e8                	addi	a0,sp,204
 ae4:	0000                	unimp
 ae6:	0004                	0x4
 ae8:	023c                	addi	a5,sp,264
 aea:	0000                	unimp
 aec:	0104                	addi	s1,sp,128
 aee:	00000387          	vle8.v	v7,(zero),v0.t
 af2:	f60c                	fsw	fa1,40(a2)
 af4:	66000003          	lb	zero,1632(zero) # 660 <_start-0x60fff9a0>
 af8:	0000                	unimp
 afa:	c800                	sw	s0,16(s0)
 afc:	0004                	0x4
 afe:	b461                	j	586 <_start-0x60fffa7a>
 b00:	0000                	unimp
 b02:	cf00                	sw	s0,24(a4)
 b04:	0008                	0x8
 b06:	0200                	addi	s0,sp,256
 b08:	0601                	addi	a2,a2,0
 b0a:	02f4                	addi	a3,sp,332
 b0c:	0000                	unimp
 b0e:	0000ca03          	lbu	s4,0(ra) # fffe4000 <stack_end+0x9efe3984>
 b12:	0200                	addi	s0,sp,256
 b14:	0038182b          	0x38182b
 b18:	0000                	unimp
 b1a:	0102                	c.slli64	sp
 b1c:	f208                	fsw	fa0,32(a2)
 b1e:	0002                	c.slli64	zero
 b20:	0200                	addi	s0,sp,256
 b22:	0502                	c.slli64	a0
 b24:	030e                	slli	t1,t1,0x3
 b26:	0000                	unimp
 b28:	0202                	c.slli64	tp
 b2a:	00022307          	flw	ft6,0(tp) # fffe6000 <stack_end+0x9efe5984>
 b2e:	0300                	addi	s0,sp,384
 b30:	03ec                	addi	a1,sp,460
 b32:	0000                	unimp
 b34:	4d02                	lw	s10,0(sp)
 b36:	5918                	lw	a4,48(a0)
 b38:	0000                	unimp
 b3a:	0200                	addi	s0,sp,256
 b3c:	0504                	addi	s1,sp,640
 b3e:	01a8                	addi	a0,sp,200
 b40:	0000                	unimp
 b42:	0001df03          	lhu	t5,0(gp)
 b46:	0200                	addi	s0,sp,256
 b48:	006c194f          	fnmadd.s	fs2,fs8,ft6,ft0,rtz
 b4c:	0000                	unimp
 b4e:	0402                	c.slli64	s0
 b50:	0000fc07          	vle64.v	v24,(ra),v0.t
 b54:	0200                	addi	s0,sp,256
 b56:	0508                	addi	a0,sp,640
 b58:	000001a3          	sb	zero,3(zero) # 3 <_start-0x60fffffd>
 b5c:	0802                	c.slli64	a6
 b5e:	0000f707          	vle64.v	v14,(ra),v0.t
 b62:	0400                	addi	s0,sp,512
 b64:	0504                	addi	s1,sp,640
 b66:	6e69                	lui	t3,0x1a
 b68:	0074                	addi	a3,sp,12
 b6a:	0402                	c.slli64	s0
 b6c:	00010107          	vle8.v	v2,(sp),v0.t
 b70:	0300                	addi	s0,sp,384
 b72:	00cc                	addi	a1,sp,68
 b74:	0000                	unimp
 b76:	2c131803          	lh	a6,705(t1) # 33b01 <_start-0x60fcc4ff>
 b7a:	0000                	unimp
 b7c:	0300                	addi	s0,sp,384
 b7e:	03ee                	slli	t2,t2,0x1b
 b80:	0000                	unimp
 b82:	4d132c03          	lw	s8,1233(t1)
 b86:	0000                	unimp
 b88:	0300                	addi	s0,sp,384
 b8a:	01e1                	addi	gp,gp,24
 b8c:	0000                	unimp
 b8e:	60143003          	0x60143003
 b92:	0000                	unimp
 b94:	0500                	addi	s0,sp,640
 b96:	000000a7          	vse8.v	v1,(zero),v0.t
 b9a:	1002                	c.slli	zero,0x20
 b9c:	9904                	0x9904
 b9e:	0002                	c.slli64	zero
 ba0:	0200                	addi	s0,sp,256
 ba2:	0801                	addi	a6,a6,0
 ba4:	000002fb          	dkhmx8	t0,zero,zero
 ba8:	7906                	flw	fs2,96(sp)
 baa:	0004                	0x4
 bac:	0100                	addi	s0,sp,128
 bae:	00810503          	lb	a0,8(sp) # 94590498 <stack_end+0x3358fe1c>
 bb2:	0000                	unimp
 bb4:	04c8                	addi	a0,sp,580
 bb6:	6100                	flw	fs0,0(a0)
 bb8:	00b4                	addi	a3,sp,72
 bba:	0000                	unimp
 bbc:	9c01                	0x9c01
 bbe:	01c1                	addi	gp,gp,16
 bc0:	0000                	unimp
 bc2:	00032907          	flw	fs2,0(t1)
 bc6:	0100                	addi	s0,sp,128
 bc8:	01c12503          	lw	a0,28(sp)
 bcc:	0000                	unimp
 bce:	08ea                	slli	a7,a7,0x1a
 bd0:	0000                	unimp
 bd2:	00048607          	vle8.v	v12,(s1),v0.t
 bd6:	0100                	addi	s0,sp,128
 bd8:	009b3803          	0x9b3803
 bdc:	0000                	unimp
 bde:	0921                	addi	s2,s2,8
 be0:	0000                	unimp
 be2:	00046107          	vle32.v	v2,(s0),v0.t
 be6:	0100                	addi	s0,sp,128
 be8:	00814703          	lbu	a4,8(sp)
 bec:	0000                	unimp
 bee:	0958                	addi	a4,sp,148
 bf0:	0000                	unimp
 bf2:	00049007          	flh	ft0,0(s1) # 0 <_start-0x61000000>
 bf6:	0100                	addi	s0,sp,128
 bf8:	01c75803          	lhu	a6,28(a4) # 1d01c <_start-0x60fe2fe4>
 bfc:	0000                	unimp
 bfe:	0981                	addi	s3,s3,0
 c00:	0000                	unimp
 c02:	00046707          	vle32.v	v14,(s0),v0.t
 c06:	0100                	addi	s0,sp,128
 c08:	01c76d03          	0x1c76d03
 c0c:	0000                	unimp
 c0e:	09ca                	slli	s3,s3,0x12
 c10:	0000                	unimp
 c12:	00034107          	flq	ft2,0(t1)
 c16:	0100                	addi	s0,sp,128
 c18:	00a77f03          	0xa77f03
 c1c:	0000                	unimp
 c1e:	0a01                	addi	s4,s4,0
 c20:	0000                	unimp
 c22:	00046f07          	vle32.v	v30,(s0),v0.t
 c26:	0100                	addi	s0,sp,128
 c28:	00a79003          	lh	zero,10(a5)
 c2c:	0000                	unimp
 c2e:	0a36                	slli	s4,s4,0xd
 c30:	0000                	unimp
 c32:	7208                	flw	fa0,32(a2)
 c34:	0070                	addi	a2,sp,12
 c36:	0501                	addi	a0,a0,0
 c38:	cd0e                	sw	gp,152(sp)
 c3a:	0001                	nop
 c3c:	6200                	flw	fs0,0(a2)
 c3e:	000a                	c.slli	zero,0x2
 c40:	0900                	addi	s0,sp,144
 c42:	0456                	slli	s0,s0,0x15
 c44:	0000                	unimp
 c46:	0601                	addi	a2,a2,0
 c48:	a70e                	fsd	ft3,392(sp)
 c4a:	0000                	unimp
 c4c:	9700                	0x9700
 c4e:	000a                	c.slli	zero,0x2
 c50:	0900                	addi	s0,sp,144
 c52:	045d                	addi	s0,s0,23
 c54:	0000                	unimp
 c56:	0801                	addi	a6,a6,0
 c58:	a70e                	fsd	ft3,392(sp)
 c5a:	0000                	unimp
 c5c:	c100                	sw	s0,0(a0)
 c5e:	000a                	c.slli	zero,0x2
 c60:	0a00                	addi	s0,sp,272
 c62:	0520                	addi	s0,sp,648
 c64:	6100                	flw	fs0,0(a0)
 c66:	000001d3          	fadd.s	ft3,ft0,ft0,rne
 c6a:	00000193          	li	gp,0
 c6e:	025a010b          	0x25a010b
 c72:	0078                	addi	a4,sp,12
 c74:	0c00                	addi	s0,sp,528
 c76:	0550                	addi	a2,sp,644
 c78:	6100                	flw	fs0,0(a0)
 c7a:	01df 0000 010b      	0x10b000001df
 c80:	035a                	slli	t1,t1,0x16
 c82:	5c91                	li	s9,-28
 c84:	0b06                	slli	s6,s6,0x1
 c86:	5b01                	li	s6,-32
 c88:	06689103          	lh	sp,102(a7) # 882 <_start-0x60fff77e>
 c8c:	035c010b          	0x35c010b
 c90:	6c91                	lui	s9,0x4
 c92:	0b06                	slli	s6,s6,0x1
 c94:	5d01                	li	s10,-32
 c96:	06709103          	lh	sp,103(ra)
 c9a:	035e010b          	0x35e010b
 c9e:	0091                	addi	ra,ra,4
 ca0:	0006                	c.slli	zero,0x1
 ca2:	0d00                	addi	s0,sp,656
 ca4:	b304                	fsd	fs1,32(a4)
 ca6:	0000                	unimp
 ca8:	0d00                	addi	s0,sp,656
 caa:	a704                	fsd	fs1,8(a4)
 cac:	0000                	unimp
 cae:	0d00                	addi	s0,sp,656
 cb0:	8f04                	0x8f04
 cb2:	0000                	unimp
 cb4:	0e00                	addi	s0,sp,784
 cb6:	01d5                	addi	gp,gp,21
 cb8:	0000                	unimp
 cba:	01d5                	addi	gp,gp,21
 cbc:	0000                	unimp
 cbe:	8604                	0x8604
 cc0:	0e0a                	slli	t3,t3,0x2
 cc2:	0369                	addi	t1,t1,26
 cc4:	0000                	unimp
 cc6:	0369                	addi	t1,t1,26
 cc8:	0000                	unimp
 cca:	8e04                	0x8e04
 ccc:	0005                	c.nop	1

Disassembly of section .debug_abbrev:

00000000 <.debug_abbrev>:
   0:	1101                	addi	sp,sp,-32
   2:	1000                	addi	s0,sp,32
   4:	1106                	slli	sp,sp,0x21
   6:	1201                	addi	tp,tp,-32
   8:	0301                	addi	t1,t1,0
   a:	1b0e                	slli	s6,s6,0x23
   c:	250e                	fld	fa0,192(sp)
   e:	130e                	slli	t1,t1,0x23
  10:	0005                	c.nop	1
  12:	0000                	unimp
  14:	1101                	addi	sp,sp,-32
  16:	2501                	jal	616 <_start-0x60fff9ea>
  18:	130e                	slli	t1,t1,0x23
  1a:	1b0e030b          	0x1b0e030b
  1e:	110e                	slli	sp,sp,0x23
  20:	1201                	addi	tp,tp,-32
  22:	1006                	c.slli	zero,0x21
  24:	02000017          	auipc	zero,0x2000
  28:	0024                	addi	s1,sp,8
  2a:	0b3e0b0b          	0xb3e0b0b
  2e:	00000e03          	lb	t3,0(zero) # 0 <_start-0x61000000>
  32:	03001603          	lh	a2,48(zero) # 30 <_start-0x60ffffd0>
  36:	3a0e                	fld	fs4,224(sp)
  38:	390b3b0b          	0x390b3b0b
  3c:	0013490b          	0x13490b
  40:	0400                	addi	s0,sp,512
  42:	0024                	addi	s1,sp,8
  44:	0b3e0b0b          	0xb3e0b0b
  48:	00000803          	lb	a6,0(zero) # 0 <_start-0x61000000>
  4c:	2605                	jal	36c <_start-0x60fffc94>
  4e:	4900                	lw	s0,16(a0)
  50:	06000013          	li	zero,96
  54:	0035                	c.nop	13
  56:	1349                	addi	t1,t1,-14
  58:	0000                	unimp
  5a:	3f012e07          	flw	ft8,1008(sp)
  5e:	0319                	addi	t1,t1,6
  60:	3a0e                	fld	fs4,224(sp)
  62:	39053b0b          	0x39053b0b
  66:	4919270b          	0x4919270b
  6a:	12011113          	0x12011113
  6e:	4006                	0x4006
  70:	9718                	0x9718
  72:	1942                	slli	s2,s2,0x30
  74:	1301                	addi	t1,t1,-32
  76:	0000                	unimp
  78:	0508                	addi	a0,sp,640
  7a:	0300                	addi	s0,sp,384
  7c:	3a0e                	fld	fs4,224(sp)
  7e:	39053b0b          	0x39053b0b
  82:	0213490b          	0x213490b
  86:	09000017          	auipc	zero,0x9000
  8a:	0005                	c.nop	1
  8c:	0b3a0803          	lb	a6,179(s4)
  90:	0b39053b          	0xb39053b
  94:	1349                	addi	t1,t1,-14
  96:	1702                	slli	a4,a4,0x20
  98:	0000                	unimp
  9a:	890a                	mv	s2,sp
  9c:	0182                	c.slli64	gp
  9e:	1101                	addi	sp,sp,-32
  a0:	3101                	jal	fffffca0 <stack_end+0x9efff624>
  a2:	00130113          	addi	sp,t1,1
  a6:	0b00                	addi	s0,sp,400
  a8:	828a                	mv	t0,sp
  aa:	0001                	nop
  ac:	1802                	slli	a6,a6,0x20
  ae:	4291                	li	t0,4
  b0:	0018                	0x18
  b2:	0c00                	addi	s0,sp,528
  b4:	8289                	srli	a3,a3,0x2
  b6:	0101                	addi	sp,sp,0
  b8:	0111                	addi	sp,sp,4
  ba:	4295                	li	t0,5
  bc:	3119                	jal	fffffcc2 <stack_end+0x9efff646>
  be:	0d000013          	li	zero,208
  c2:	0b0b000f          	0xb0b000f
  c6:	1349                	addi	t1,t1,-14
  c8:	0000                	unimp
  ca:	340e                	fld	fs0,224(sp)
  cc:	0300                	addi	s0,sp,384
  ce:	3a0e                	fld	fs4,224(sp)
  d0:	39053b0b          	0x39053b0b
  d4:	1c13490b          	0x1c13490b
  d8:	0f00000b          	0xf00000b
  dc:	8289                	srli	a3,a3,0x2
  de:	0101                	addi	sp,sp,0
  e0:	0111                	addi	sp,sp,4
  e2:	1331                	addi	t1,t1,-20
  e4:	0000                	unimp
  e6:	3410                	fld	fa2,40(s0)
  e8:	0300                	addi	s0,sp,384
  ea:	3a08                	fld	fa0,48(a2)
  ec:	39053b0b          	0x39053b0b
  f0:	0213490b          	0x213490b
  f4:	0018                	0x18
  f6:	1100                	addi	s0,sp,160
  f8:	0034                	addi	a3,sp,8
  fa:	0b3a0e03          	lb	t3,179(s4)
  fe:	0b39053b          	0xb39053b
 102:	1349                	addi	t1,t1,-14
 104:	1702                	slli	a4,a4,0x20
 106:	0000                	unimp
 108:	3412                	fld	fs0,288(sp)
 10a:	0300                	addi	s0,sp,384
 10c:	3a08                	fld	fa0,48(a2)
 10e:	39053b0b          	0x39053b0b
 112:	0213490b          	0x213490b
 116:	13000017          	auipc	zero,0x13000
 11a:	012e                	slli	sp,sp,0xb
 11c:	0e03193f 0b3b0b3a 	0xb3b0b3a0e03193f
 124:	0b39                	addi	s6,s6,14
 126:	13491927          	fsh	fs4,306(s2) # 32ae4 <_start-0x60fcd51c>
 12a:	0b20                	addi	s0,sp,408
 12c:	1301                	addi	t1,t1,-32
 12e:	0000                	unimp
 130:	0514                	addi	a3,sp,640
 132:	0300                	addi	s0,sp,384
 134:	3a0e                	fld	fs4,224(sp)
 136:	390b3b0b          	0x390b3b0b
 13a:	0013490b          	0x13490b
 13e:	1500                	addi	s0,sp,672
 140:	0034                	addi	a3,sp,8
 142:	0b3a0e03          	lb	t3,179(s4)
 146:	0b390b3b          	0xb390b3b
 14a:	1349                	addi	t1,t1,-14
 14c:	0000                	unimp
 14e:	2e16                	fld	ft8,320(sp)
 150:	3f01                	jal	60 <_start-0x60ffffa0>
 152:	0319                	addi	t1,t1,6
 154:	3a0e                	fld	fs4,224(sp)
 156:	390b3b0b          	0x390b3b0b
 15a:	1119270b          	0x1119270b
 15e:	1201                	addi	tp,tp,-32
 160:	4006                	0x4006
 162:	9718                	0x9718
 164:	1942                	slli	s2,s2,0x30
 166:	1301                	addi	t1,t1,-32
 168:	0000                	unimp
 16a:	03000517          	auipc	a0,0x3000
 16e:	3a0e                	fld	fs4,224(sp)
 170:	390b3b0b          	0x390b3b0b
 174:	0213490b          	0x213490b
 178:	18000017          	auipc	zero,0x18000
 17c:	0005                	c.nop	1
 17e:	0b3a0803          	lb	a6,179(s4)
 182:	0b390b3b          	0xb390b3b
 186:	1349                	addi	t1,t1,-14
 188:	1702                	slli	a4,a4,0x20
 18a:	0000                	unimp
 18c:	3419                	jal	fffffb92 <stack_end+0x9efff516>
 18e:	0300                	addi	s0,sp,384
 190:	3a08                	fld	fa0,48(a2)
 192:	390b3b0b          	0x390b3b0b
 196:	0213490b          	0x213490b
 19a:	1a000017          	auipc	zero,0x1a000
 19e:	0034                	addi	a3,sp,8
 1a0:	0b3a0e03          	lb	t3,179(s4)
 1a4:	0b390b3b          	0xb390b3b
 1a8:	1349                	addi	t1,t1,-14
 1aa:	061c                	addi	a5,sp,768
 1ac:	0000                	unimp
 1ae:	0300051b          	0x300051b
 1b2:	3a0e                	fld	fs4,224(sp)
 1b4:	390b3b0b          	0x390b3b0b
 1b8:	0213490b          	0x213490b
 1bc:	0018                	0x18
 1be:	1c00                	addi	s0,sp,560
 1c0:	0034                	addi	a3,sp,8
 1c2:	0b3a0e03          	lb	t3,179(s4)
 1c6:	0b390b3b          	0xb390b3b
 1ca:	1349                	addi	t1,t1,-14
 1cc:	1702                	slli	a4,a4,0x20
 1ce:	0000                	unimp
 1d0:	341d                	jal	fffffbf6 <stack_end+0x9efff57a>
 1d2:	0300                	addi	s0,sp,384
 1d4:	3a0e                	fld	fs4,224(sp)
 1d6:	390b3b0b          	0x390b3b0b
 1da:	0213490b          	0x213490b
 1de:	0018                	0x18
 1e0:	1e00                	addi	s0,sp,816
 1e2:	012e                	slli	sp,sp,0xb
 1e4:	0e03193f 0b3b0b3a 	0xb3b0b3a0e03193f
 1ec:	0b39                	addi	s6,s6,14
 1ee:	13491927          	fsh	fs4,306(s2)
 1f2:	0111                	addi	sp,sp,4
 1f4:	0612                	slli	a2,a2,0x4
 1f6:	1840                	addi	s0,sp,52
 1f8:	01194297          	auipc	t0,0x1194
 1fc:	1f000013          	li	zero,496
 200:	012e                	slli	sp,sp,0xb
 202:	1331                	addi	t1,t1,-20
 204:	0111                	addi	sp,sp,4
 206:	0612                	slli	a2,a2,0x4
 208:	1840                	addi	s0,sp,52
 20a:	00194297          	auipc	t0,0x194
 20e:	2000                	fld	fs0,0(s0)
 210:	0005                	c.nop	1
 212:	1331                	addi	t1,t1,-20
 214:	1702                	slli	a4,a4,0x20
 216:	0000                	unimp
 218:	3421                	jal	fffffc20 <stack_end+0x9efff5a4>
 21a:	3100                	fld	fs0,32(a0)
 21c:	00170213          	addi	tp,a4,1
 220:	2200                	fld	fs0,0(a2)
 222:	011d                	addi	sp,sp,7
 224:	1331                	addi	t1,t1,-20
 226:	0111                	addi	sp,sp,4
 228:	0612                	slli	a2,a2,0x4
 22a:	0b58                	addi	a4,sp,404
 22c:	0b59                	addi	s6,s6,22
 22e:	13010b57          	vminu.vv	v22,v16,v2
 232:	0000                	unimp
 234:	31000523          	sb	a6,778(zero) # 30a <_start-0x60fffcf6>
 238:	00000013          	nop
 23c:	1101                	addi	sp,sp,-32
 23e:	2501                	jal	83e <_start-0x60fff7c2>
 240:	130e                	slli	t1,t1,0x23
 242:	1b0e030b          	0x1b0e030b
 246:	110e                	slli	sp,sp,0x23
 248:	1201                	addi	tp,tp,-32
 24a:	1006                	c.slli	zero,0x21
 24c:	02000017          	auipc	zero,0x2000
 250:	0024                	addi	s1,sp,8
 252:	0b3e0b0b          	0xb3e0b0b
 256:	00000e03          	lb	t3,0(zero) # 0 <_start-0x61000000>
 25a:	03001603          	lh	a2,48(zero) # 30 <_start-0x60ffffd0>
 25e:	3a0e                	fld	fs4,224(sp)
 260:	390b3b0b          	0x390b3b0b
 264:	0013490b          	0x13490b
 268:	0400                	addi	s0,sp,512
 26a:	0024                	addi	s1,sp,8
 26c:	0b3e0b0b          	0xb3e0b0b
 270:	00000803          	lb	a6,0(zero) # 0 <_start-0x61000000>
 274:	3505                	jal	94 <_start-0x60ffff6c>
 276:	4900                	lw	s0,16(a0)
 278:	06000013          	li	zero,96
 27c:	012e                	slli	sp,sp,0xb
 27e:	0e03193f 0b3b0b3a 	0xb3b0b3a0e03193f
 286:	0b39                	addi	s6,s6,14
 288:	13491927          	fsh	fs4,306(s2)
 28c:	0111                	addi	sp,sp,4
 28e:	0612                	slli	a2,a2,0x4
 290:	1840                	addi	s0,sp,52
 292:	01194297          	auipc	t0,0x1194
 296:	07000013          	li	zero,112
 29a:	0005                	c.nop	1
 29c:	0b3a0e03          	lb	t3,179(s4)
 2a0:	0b390b3b          	0xb390b3b
 2a4:	1349                	addi	t1,t1,-14
 2a6:	1702                	slli	a4,a4,0x20
 2a8:	0000                	unimp
 2aa:	3408                	fld	fa0,40(s0)
 2ac:	0300                	addi	s0,sp,384
 2ae:	3a08                	fld	fa0,48(a2)
 2b0:	390b3b0b          	0x390b3b0b
 2b4:	0213490b          	0x213490b
 2b8:	09000017          	auipc	zero,0x9000
 2bc:	0034                	addi	a3,sp,8
 2be:	0b3a0e03          	lb	t3,179(s4)
 2c2:	0b390b3b          	0xb390b3b
 2c6:	1349                	addi	t1,t1,-14
 2c8:	1702                	slli	a4,a4,0x20
 2ca:	0000                	unimp
 2cc:	890a                	mv	s2,sp
 2ce:	0182                	c.slli64	gp
 2d0:	1101                	addi	sp,sp,-32
 2d2:	3101                	jal	fffffed2 <stack_end+0x9efff856>
 2d4:	00130113          	addi	sp,t1,1
 2d8:	0b00                	addi	s0,sp,400
 2da:	828a                	mv	t0,sp
 2dc:	0001                	nop
 2de:	1802                	slli	a6,a6,0x20
 2e0:	4291                	li	t0,4
 2e2:	0018                	0x18
 2e4:	0c00                	addi	s0,sp,528
 2e6:	8289                	srli	a3,a3,0x2
 2e8:	0101                	addi	sp,sp,0
 2ea:	0111                	addi	sp,sp,4
 2ec:	1331                	addi	t1,t1,-20
 2ee:	0000                	unimp
 2f0:	0f0d                	addi	t5,t5,3
 2f2:	0b00                	addi	s0,sp,400
 2f4:	0013490b          	0x13490b
 2f8:	0e00                	addi	s0,sp,784
 2fa:	002e                	c.slli	zero,0xb
 2fc:	193c193f 0e030e6e 	0xe030e6e193c193f
 304:	0b3a                	slli	s6,s6,0xe
 306:	0b390b3b          	0xb390b3b
 30a:	0000                	unimp
	...

Disassembly of section .debug_aranges:

00000000 <.debug_aranges>:
   0:	001c                	0x1c
   2:	0000                	unimp
   4:	0002                	c.slli64	zero
   6:	0000                	unimp
   8:	0000                	unimp
   a:	0004                	0x4
   c:	0000                	unimp
   e:	0000                	unimp
  10:	0000                	unimp
  12:	6100                	flw	fs0,0(a0)
  14:	0010                	0x10
	...
  1e:	0000                	unimp
  20:	001c                	0x1c
  22:	0000                	unimp
  24:	0002                	c.slli64	zero
  26:	0026                	c.slli	zero,0x9
  28:	0000                	unimp
  2a:	0004                	0x4
  2c:	0000                	unimp
  2e:	0000                	unimp
  30:	0010                	0x10
  32:	6100                	flw	fs0,0(a0)
  34:	04b8                	addi	a4,sp,584
	...
  3e:	0000                	unimp
  40:	001c                	0x1c
  42:	0000                	unimp
  44:	0002                	c.slli64	zero
  46:	0ae2                	slli	s5,s5,0x18
  48:	0000                	unimp
  4a:	0004                	0x4
  4c:	0000                	unimp
  4e:	0000                	unimp
  50:	04c8                	addi	a0,sp,580
  52:	6100                	flw	fs0,0(a0)
  54:	00b4                	addi	a3,sp,72
	...

Disassembly of section .debug_str:

00000000 <.debug_str>:
   0:	3a44                	fld	fs1,176(a2)
   2:	726f772f          	0x726f772f
   6:	30322f6b          	0x30322f6b
   a:	3232                	fld	ft4,296(sp)
   c:	396c612f          	0x396c612f
  10:	3030                	fld	fa2,96(s0)
  12:	2f30                	fld	fa2,88(a4)
  14:	642f7773          	csrrci	a4,0x642,30
  18:	6265                	lui	tp,0x19
  1a:	6775                	lui	a4,0x1d
  1c:	2f726567          	0x2f726567
  20:	6c61                	lui	s8,0x18
  22:	6f5f 6570 6f6e      	0x6f6e65706f5f
  28:	632f6463          	bltu	t5,s2,650 <_start-0x60fff9b0>
  2c:	72746e6f          	jal	t3,46f52 <_start-0x60fb90ae>
  30:	6269                	lui	tp,0x1a
  32:	616f6c2f          	0x616f6c2f
  36:	6564                	flw	fs1,76(a0)
  38:	7372                	flw	ft6,60(sp)
  3a:	616c662f          	0x616c662f
  3e:	712f6873          	csrrsi	a6,0x712,30
  42:	2f697073          	csrci	0x2f6,18
  46:	7764                	flw	fs1,108(a4)
  48:	69737363          	bgeu	t1,s7,6ce <_start-0x60fff932>
  4c:	6372732f          	0x6372732f
  50:	6f6f622f          	0x6f6f622f
  54:	2f74                	fld	fa3,216(a4)
  56:	6972                	flw	fs2,28(sp)
  58:	5c766373          	csrrsi	t1,0x5c7,12
  5c:	70617277          	0x70617277
  60:	6570                	flw	fa2,76(a0)
  62:	2e72                	fld	ft8,280(sp)
  64:	3a440053          	0x3a440053
  68:	775c                	flw	fa5,44(a4)
  6a:	5c6b726f          	jal	tp,b7630 <_start-0x60f489d0>
  6e:	3032                	fld	ft0,296(sp)
  70:	3232                	fld	ft4,296(sp)
  72:	615c                	flw	fa5,4(a0)
  74:	396c                	fld	fa1,240(a0)
  76:	3030                	fld	fa2,96(s0)
  78:	5c30                	lw	a2,120(s0)
  7a:	645c7773          	csrrci	a4,0x645,24
  7e:	6265                	lui	tp,0x19
  80:	6775                	lui	a4,0x1d
  82:	5c726567          	0x5c726567
  86:	6c61                	lui	s8,0x18
  88:	6f5f 6570 6f6e      	0x6f6e65706f5f
  8e:	635c6463          	bltu	s8,s5,6b6 <_start-0x60fff94a>
  92:	72746e6f          	jal	t3,46fb8 <_start-0x60fb9048>
  96:	6269                	lui	tp,0x1a
  98:	6c5c                	flw	fa5,28(s0)
  9a:	6564616f          	jal	sp,466f0 <_start-0x60fb9910>
  9e:	7372                	flw	ft6,60(sp)
  a0:	665c                	flw	fa5,12(a2)
  a2:	616c                	flw	fa1,68(a0)
  a4:	715c6873          	csrrsi	a6,0x715,24
  a8:	5c697073          	csrci	0x5c6,18
  ac:	7764                	flw	fs1,108(a4)
  ae:	69737363          	bgeu	t1,s7,734 <_start-0x60fff8cc>
  b2:	4700                	lw	s0,8(a4)
  b4:	554e                	lw	a0,240(sp)
  b6:	4120                	lw	s0,64(a0)
  b8:	2e322053          	0x2e322053
  bc:	312e3633          	0x312e3633
  c0:	7200                	flw	fs0,32(a2)
  c2:	5f64                	lw	s1,124(a4)
  c4:	6176                	flw	ft2,92(sp)
  c6:	756c                	flw	fa1,108(a0)
  c8:	0065                	c.nop	25
  ca:	5f5f 6975 746e      	0x746e69755f5f
  d0:	5f38                	lw	a4,120(a4)
  d2:	0074                	addi	a3,sp,12
  d4:	7874                	flw	fa3,116(s0)
  d6:	745f 746f 6c61      	0x6c61746f745f
  dc:	6c5f 6e65 7400      	0x74006e656c5f
  e2:	5f78                	lw	a4,124(a4)
  e4:	72617473          	csrrci	s0,0x726,2
  e8:	5f74                	lw	a3,124(a4)
  ea:	766c                	flw	fa1,108(a2)
  ec:	6400                	flw	fs0,8(s0)
  ee:	73736377          	0x73736377
  f2:	5f69                	li	t5,-6
  f4:	7874                	flw	fa3,116(s0)
  f6:	6c00                	flw	fs0,24(s0)
  f8:	20676e6f          	jal	t3,762fe <_start-0x60f89d02>
  fc:	6f6c                	flw	fa1,92(a4)
  fe:	676e                	flw	fa4,216(sp)
 100:	7520                	flw	fs0,104(a0)
 102:	736e                	flw	ft6,248(sp)
 104:	6769                	lui	a4,0x1a
 106:	656e                	flw	fa0,216(sp)
 108:	2064                	fld	fs1,192(s0)
 10a:	6e69                	lui	t3,0x1a
 10c:	0074                	addi	a3,sp,12
 10e:	7764                	flw	fs1,108(a4)
 110:	69737363          	bgeu	t1,s7,796 <_start-0x60fff86a>
 114:	635f 6e6f 6966      	0x69666e6f635f
 11a:	58545f67          	0x58545f67
 11e:	5446                	lw	s0,112(sp)
 120:	524c                	lw	a1,36(a2)
 122:	4400                	lw	s0,8(s0)
 124:	2f3a                	fld	ft10,392(sp)
 126:	6b726f77          	0x6b726f77
 12a:	3230322f          	0x3230322f
 12e:	2f32                	fld	ft10,264(sp)
 130:	6c61                	lui	s8,0x18
 132:	3039                	jal	fffff940 <stack_end+0x9efff2c4>
 134:	3030                	fld	fa2,96(s0)
 136:	2f77732f          	0x2f77732f
 13a:	6564                	flw	fs1,76(a0)
 13c:	7562                	flw	fa0,56(sp)
 13e:	72656767          	0x72656767
 142:	5f6c612f          	0x5f6c612f
 146:	6e65706f          	j	5782c <_start-0x60fa87d4>
 14a:	2f64636f          	jal	t1,46440 <_start-0x60fb9bc0>
 14e:	746e6f63          	bltu	t3,t1,8ac <_start-0x60fff754>
 152:	6972                	flw	fs2,28(sp)
 154:	2f62                	fld	ft10,24(sp)
 156:	6f6c                	flw	fa1,92(a4)
 158:	6461                	lui	s0,0x18
 15a:	7265                	lui	tp,0xffff9
 15c:	6c662f73          	csrrs	t5,0x6c6,a2
 160:	7361                	lui	t1,0xffff8
 162:	2f68                	fld	fa0,216(a4)
 164:	7371                	lui	t1,0xffffc
 166:	6970                	flw	fa2,84(a0)
 168:	6377642f          	0x6377642f
 16c:	2f697373          	csrrci	t1,0x2f6,18
 170:	2f637273          	csrrci	tp,0x2f6,6
 174:	7764                	flw	fs1,108(a4)
 176:	69737363          	bgeu	t1,s7,7fc <_start-0x60fff804>
 17a:	632e                	flw	ft6,200(sp)
 17c:	7400                	flw	fs0,40(s0)
 17e:	6f6d                	lui	t5,0x1b
 180:	0064                	addi	s1,sp,12
 182:	6b726f77          	0x6b726f77
 186:	615f 6572 5f61      	0x5f616572615f
 18c:	72617473          	csrrci	s0,0x726,2
 190:	0074                	addi	a3,sp,12
 192:	7764                	flw	fs1,108(a4)
 194:	69737363          	bgeu	t1,s7,81a <_start-0x60fff7e6>
 198:	635f 6e6f 6966      	0x69666e6f635f
 19e:	78745f67          	0x78745f67
 1a2:	6c00                	flw	fs0,24(s0)
 1a4:	20676e6f          	jal	t3,763aa <_start-0x60f89c56>
 1a8:	6f6c                	flw	fa1,92(a4)
 1aa:	676e                	flw	fa4,216(sp)
 1ac:	6920                	flw	fs0,80(a0)
 1ae:	746e                	flw	fs0,248(sp)
 1b0:	6400                	flw	fs0,8(s0)
 1b2:	73736377          	0x73736377
 1b6:	5f69                	li	t5,-6
 1b8:	7874                	flw	fa3,116(s0)
 1ba:	625f 6675 6e5f      	0x6e5f6675625f
 1c0:	61775f6f          	jal	t5,75fd6 <_start-0x60f8a02a>
 1c4:	7469                	lui	s0,0xffffa
 1c6:	6900                	flw	fs0,16(a0)
 1c8:	5f6e                	lw	t5,248(sp)
 1ca:	7562                	flw	fa0,56(sp)
 1cc:	0066                	c.slli	zero,0x19
 1ce:	7874                	flw	fa3,116(s0)
 1d0:	7466                	flw	fs0,120(sp)
 1d2:	7268                	flw	fa0,100(a2)
 1d4:	7700                	flw	fs0,40(a4)
 1d6:	6961                	lui	s2,0x18
 1d8:	5f74                	lw	a3,124(a4)
 1da:	6966                	flw	fs2,88(sp)
 1dc:	6f66                	flw	ft10,88(sp)
 1de:	5f00                	lw	s0,56(a4)
 1e0:	755f 6e69 3374      	0x33746e69755f
 1e6:	5f32                	lw	t5,44(sp)
 1e8:	0074                	addi	a3,sp,12
 1ea:	765f7277          	0x765f7277
 1ee:	6c61                	lui	s8,0x18
 1f0:	6575                	lui	a0,0x1d
 1f2:	7200                	flw	fs0,32(a2)
 1f4:	7465                	lui	s0,0xffff9
 1f6:	765f 6c61 6575      	0x65756c61765f
 1fc:	6900                	flw	fs0,16(a0)
 1fe:	5f6e                	lw	t5,248(sp)
 200:	00746e63          	bltu	s0,t2,21c <_start-0x60fffde4>
 204:	6974                	flw	fa3,84(a0)
 206:	656d                	lui	a0,0x1b
 208:	0074756f          	jal	a0,47a0e <_start-0x60fb85f2>
 20c:	7764                	flw	fs1,108(a4)
 20e:	69737363          	bgeu	t1,s7,894 <_start-0x60fff76c>
 212:	775f 6961 5f74      	0x5f746961775f
 218:	6c66                	flw	fs8,88(sp)
 21a:	7361                	lui	t1,0xffff8
 21c:	5f68                	lw	a0,124(a4)
 21e:	6469                	lui	s0,0x1a
 220:	656c                	flw	fa1,76(a0)
 222:	7300                	flw	fs0,32(a4)
 224:	6f68                	flw	fa0,92(a4)
 226:	7472                	flw	fs0,60(sp)
 228:	7520                	flw	fs0,104(a0)
 22a:	736e                	flw	ft6,248(sp)
 22c:	6769                	lui	a4,0x1a
 22e:	656e                	flw	fa0,216(sp)
 230:	2064                	fld	fs1,192(s0)
 232:	6e69                	lui	t3,0x1a
 234:	0074                	addi	a3,sp,12
 236:	6c66                	flw	fs8,88(sp)
 238:	7361                	lui	t1,0xffff8
 23a:	5f68                	lw	a0,124(a4)
 23c:	6e69                	lui	t3,0x1a
 23e:	6f66                	flw	ft10,88(sp)
 240:	7300                	flw	fs0,32(a4)
 242:	5f636973          	csrrsi	s2,0x5f6,6
 246:	6e65                	lui	t3,0x19
 248:	6400                	flw	fs0,8(s0)
 24a:	73736377          	0x73736377
 24e:	5f69                	li	t5,-6
 250:	6e65                	lui	t3,0x19
 252:	6261                	lui	tp,0x18
 254:	656c                	flw	fa1,76(a0)
 256:	6400                	flw	fs0,8(s0)
 258:	73736377          	0x73736377
 25c:	5f69                	li	t5,-6
 25e:	666e6f63          	bltu	t3,t1,8dc <_start-0x60fff724>
 262:	6769                	lui	a4,0x1a
 264:	655f 7065 6f72      	0x6f727065655f
 26a:	006d                	c.nop	27
 26c:	7764                	flw	fs1,108(a4)
 26e:	69737363          	bgeu	t1,s7,8f4 <_start-0x60fff70c>
 272:	735f 7465 625f      	0x625f7465735f
 278:	7469                	lui	s0,0xffffa
 27a:	77640073          	0x77640073
 27e:	69737363          	bgeu	t1,s7,904 <_start-0x60fff6fc>
 282:	745f 5f78 7562      	0x75625f78745f
 288:	0066                	c.slli	zero,0x19
 28a:	7764                	flw	fs1,108(a4)
 28c:	69737363          	bgeu	t1,s7,912 <_start-0x60fff6ee>
 290:	645f 7369 6261      	0x62617369645f
 296:	656c                	flw	fa1,76(a0)
 298:	6c00                	flw	fs0,24(s0)
 29a:	20676e6f          	jal	t3,764a0 <_start-0x60f89b60>
 29e:	6f64                	flw	fs1,92(a4)
 2a0:	6275                	lui	tp,0x1d
 2a2:	656c                	flw	fa1,76(a0)
 2a4:	6100                	flw	fs0,0(a0)
 2a6:	6464                	flw	fs1,76(s0)
 2a8:	6572                	flw	fa0,28(sp)
 2aa:	64007373          	csrrci	t1,0x640,0
 2ae:	73736377          	0x73736377
 2b2:	5f69                	li	t5,-6
 2b4:	666e6f63          	bltu	t3,t1,932 <_start-0x60fff6ce>
 2b8:	6769                	lui	a4,0x1a
 2ba:	435f 5254 524c      	0x524c5254435f
 2c0:	0030                	addi	a2,sp,8
 2c2:	7764                	flw	fs1,108(a4)
 2c4:	69737363          	bgeu	t1,s7,94a <_start-0x60fff6b6>
 2c8:	635f 6e6f 6966      	0x69666e6f635f
 2ce:	54435f67          	0x54435f67
 2d2:	4c52                	lw	s8,20(sp)
 2d4:	3152                	fld	ft2,304(sp)
 2d6:	6200                	flw	fs0,0(a2)
 2d8:	7469                	lui	s0,0xffffa
 2da:	616d                	addi	sp,sp,240
 2dc:	64006b73          	csrrsi	s6,0x640,0
 2e0:	73736377          	0x73736377
 2e4:	5f69                	li	t5,-6
 2e6:	6c66                	flw	fs8,88(sp)
 2e8:	7361                	lui	t1,0xffff8
 2ea:	5f68                	lw	a0,124(a4)
 2ec:	655f7277          	0x655f7277
 2f0:	006e                	c.slli	zero,0x1b
 2f2:	6e75                	lui	t3,0x1d
 2f4:	6e676973          	csrrsi	s2,0x6e6,14
 2f8:	6465                	lui	s0,0x19
 2fa:	6320                	flw	fs0,64(a4)
 2fc:	6168                	flw	fa0,68(a0)
 2fe:	0072                	c.slli	zero,0x1c
 300:	6966                	flw	fs2,88(sp)
 302:	6f66                	flw	ft10,88(sp)
 304:	6e5f 746f 665f      	0x665f746f6e5f
 30a:	6c75                	lui	s8,0x1d
 30c:	006c                	addi	a1,sp,12
 30e:	726f6873          	csrrsi	a6,0x726,30
 312:	2074                	fld	fa3,192(s0)
 314:	6e69                	lui	t3,0x1a
 316:	0074                	addi	a3,sp,12
 318:	7764                	flw	fs1,108(a4)
 31a:	69737363          	bgeu	t1,s7,9a0 <_start-0x60fff660>
 31e:	745f 7778 5f6d      	0x5f6d7778745f
 324:	74696177          	0x74696177
 328:	6300                	flw	fs0,0(a4)
 32a:	7274                	flw	fa3,100(a2)
 32c:	5f6c                	lw	a1,124(a4)
 32e:	6162                	flw	ft2,24(sp)
 330:	73006573          	csrrsi	a0,0x730,0
 334:	6970                	flw	fa2,84(a0)
 336:	725f 6665 6900      	0x69006665725f
 33c:	646e                	flw	fs0,216(sp)
 33e:	7865                	lui	a6,0xffff9
 340:	6f00                	flw	fs0,24(a4)
 342:	6666                	flw	fa2,88(sp)
 344:	00746573          	csrrsi	a0,0x7,8
 348:	7764                	flw	fs1,108(a4)
 34a:	69737363          	bgeu	t1,s7,9d0 <_start-0x60fff630>
 34e:	725f 0078 7872      	0x78720078725f
 354:	6c5f 6e65 6400      	0x64006e656c5f
 35a:	73736377          	0x73736377
 35e:	5f69                	li	t5,-6
 360:	5f746567          	0x5f746567
 364:	6962                	flw	fs2,24(sp)
 366:	7374                	flw	fa3,100(a4)
 368:	6400                	flw	fs0,8(s0)
 36a:	73736377          	0x73736377
 36e:	5f69                	li	t5,-6
 370:	74697277          	0x74697277
 374:	5f65                	li	t5,-7
 376:	7562                	flw	fa0,56(sp)
 378:	6666                	flw	fa2,88(sp)
 37a:	7265                	lui	tp,0xffff9
 37c:	6400                	flw	fs0,8(s0)
 37e:	73736377          	0x73736377
 382:	5f69                	li	t5,-6
 384:	47007273          	csrrci	tp,0x470,0
 388:	554e                	lw	a0,240(sp)
 38a:	4320                	lw	s0,64(a4)
 38c:	3731                	jal	298 <_start-0x60fffd68>
 38e:	3120                	fld	fs0,96(a0)
 390:	2e30                	fld	fa2,88(a2)
 392:	2e32                	fld	ft8,264(sp)
 394:	2030                	fld	fa2,64(s0)
 396:	6d2d                	lui	s10,0xb
 398:	7261                	lui	tp,0xffff8
 39a:	723d6863          	bltu	s10,gp,aca <_start-0x60fff536>
 39e:	3376                	fld	ft6,376(sp)
 3a0:	6532                	flw	fa0,12(sp)
 3a2:	2d20                	fld	fs0,88(a0)
 3a4:	616d                	addi	sp,sp,240
 3a6:	6962                	flw	fs2,24(sp)
 3a8:	693d                	lui	s2,0xf
 3aa:	706c                	flw	fa1,100(s0)
 3ac:	20653233          	0x20653233
 3b0:	6d2d                	lui	s10,0xb
 3b2:	7574                	flw	fa3,108(a0)
 3b4:	656e                	flw	fa0,216(sp)
 3b6:	723d                	lui	tp,0xfffef
 3b8:	656b636f          	jal	t1,b6a0e <_start-0x60f495f2>
 3bc:	2074                	fld	fa3,192(s0)
 3be:	6d2d                	lui	s10,0xb
 3c0:	7261                	lui	tp,0xffff8
 3c2:	723d6863          	bltu	s10,gp,af2 <_start-0x60fff50e>
 3c6:	3376                	fld	ft6,376(sp)
 3c8:	6532                	flw	fa0,12(sp)
 3ca:	2d20                	fld	fs0,88(a0)
 3cc:	4f2d2067          	0x4f2d2067
 3d0:	662d2073          	csrs	0x662,s10
 3d4:	6f6e                	flw	ft10,216(sp)
 3d6:	622d                	lui	tp,0xb
 3d8:	6975                	lui	s2,0x1d
 3da:	746c                	flw	fa1,108(s0)
 3dc:	6e69                	lui	t3,0x1a
 3de:	2d20                	fld	fs0,88(a0)
 3e0:	5066                	0x5066
 3e2:	4349                	li	t1,18
 3e4:	7200                	flw	fs0,32(a2)
 3e6:	7365                	lui	t1,0xffff9
 3e8:	6c75                	lui	s8,0x1d
 3ea:	0074                	addi	a3,sp,12
 3ec:	5f5f 6e69 3374      	0x33746e695f5f
 3f2:	5f32                	lw	t5,44(sp)
 3f4:	0074                	addi	a3,sp,12
 3f6:	3a44                	fld	fs1,176(a2)
 3f8:	726f772f          	0x726f772f
 3fc:	30322f6b          	0x30322f6b
 400:	3232                	fld	ft4,296(sp)
 402:	396c612f          	0x396c612f
 406:	3030                	fld	fa2,96(s0)
 408:	2f30                	fld	fa2,88(a4)
 40a:	642f7773          	csrrci	a4,0x642,30
 40e:	6265                	lui	tp,0x19
 410:	6775                	lui	a4,0x1d
 412:	2f726567          	0x2f726567
 416:	6c61                	lui	s8,0x18
 418:	6f5f 6570 6f6e      	0x6f6e65706f5f
 41e:	632f6463          	bltu	t5,s2,a46 <_start-0x60fff5ba>
 422:	72746e6f          	jal	t3,47348 <_start-0x60fb8cb8>
 426:	6269                	lui	tp,0x1a
 428:	616f6c2f          	0x616f6c2f
 42c:	6564                	flw	fs1,76(a0)
 42e:	7372                	flw	ft6,60(sp)
 430:	616c662f          	0x616c662f
 434:	712f6873          	csrrsi	a6,0x712,30
 438:	2f697073          	csrci	0x2f6,18
 43c:	7764                	flw	fs1,108(a4)
 43e:	69737363          	bgeu	t1,s7,ac4 <_start-0x60fff53c>
 442:	6372732f          	0x6372732f
 446:	6377642f          	0x6377642f
 44a:	5f697373          	csrrci	t1,0x5f6,18
 44e:	7361                	lui	t1,0xffff8
 450:	6e79                	lui	t3,0x1e
 452:	00632e63          	0x632e63
 456:	6572                	flw	fa0,28(sp)
 458:	7674                	flw	fa3,108(a2)
 45a:	6c61                	lui	s8,0x18
 45c:	6300                	flw	fs0,0(a4)
 45e:	7275                	lui	tp,0xffffd
 460:	635f 756f 746e      	0x746e756f635f
 466:	6200                	flw	fs0,0(a2)
 468:	6675                	lui	a2,0x1d
 46a:	655f 646e 7100      	0x7100646e655f
 470:	7270                	flw	fa2,100(a2)
 472:	635f676f          	jal	a4,f72a6 <_start-0x60f08d5a>
 476:	646d                	lui	s0,0x1b
 478:	6600                	flw	fs0,8(a2)
 47a:	616c                	flw	fa1,68(a0)
 47c:	645f6873          	csrrsi	a6,0x645,30
 480:	73736377          	0x73736377
 484:	0069                	c.nop	26
 486:	6170                	flw	fa2,68(a0)
 488:	735f6567          	0x735f6567
 48c:	7a69                	lui	s4,0xffffa
 48e:	0065                	c.nop	25
 490:	7562                	flw	fa0,56(sp)
 492:	5f66                	lw	t5,120(sp)
 494:	72617473          	csrrci	s0,0x726,2
 498:	0074                	addi	a3,sp,12

Disassembly of section .debug_loc:

00000000 <.debug_loc>:
   0:	042c                	addi	a1,sp,520
   2:	0000                	unimp
   4:	00000457          	vadd.vv	v8,v0,v0,v0.t
   8:	0001                	nop
   a:	575a                	lw	a4,180(sp)
   c:	0004                	0x4
   e:	a800                	fsd	fs0,16(s0)
  10:	0004                	0x4
  12:	0100                	addi	s0,sp,128
  14:	5800                	lw	s0,48(s0)
  16:	04a8                	addi	a0,sp,584
  18:	0000                	unimp
  1a:	000004b7          	lui	s1,0x0
  1e:	0001                	nop
  20:	b75a                	fsd	fs6,424(sp)
  22:	0004                	0x4
  24:	b800                	fsd	fs0,48(s0)
  26:	0004                	0x4
  28:	0400                	addi	s0,sp,512
  2a:	f300                	fsw	fs0,32(a4)
  2c:	5a01                	li	s4,-32
  2e:	009f 0000 0000      	0x9f
  34:	0000                	unimp
  36:	2c00                	fld	fs0,24(s0)
  38:	0004                	0x4
  3a:	3800                	fld	fs0,48(s0)
  3c:	0004                	0x4
  3e:	0100                	addi	s0,sp,128
  40:	5b00                	lw	s0,48(a4)
  42:	0438                	addi	a4,sp,520
  44:	0000                	unimp
  46:	04b4                	addi	a3,sp,584
  48:	0000                	unimp
  4a:	0002                	c.slli64	zero
  4c:	7091                	lui	ra,0xfffe4
  4e:	04b4                	addi	a3,sp,584
  50:	0000                	unimp
  52:	04b8                	addi	a4,sp,584
  54:	0000                	unimp
  56:	0002                	c.slli64	zero
  58:	7072                	flw	ft0,60(sp)
	...
  62:	042c                	addi	a1,sp,520
  64:	0000                	unimp
  66:	00000457          	vadd.vv	v8,v0,v0,v0.t
  6a:	0001                	nop
  6c:	575c                	lw	a5,44(a4)
  6e:	0004                	0x4
  70:	b400                	fsd	fs0,40(s0)
  72:	0004                	0x4
  74:	0200                	addi	s0,sp,256
  76:	9100                	0x9100
  78:	b46c                	fsd	fa1,232(s0)
  7a:	0004                	0x4
  7c:	b800                	fsd	fs0,48(s0)
  7e:	0004                	0x4
  80:	0200                	addi	s0,sp,256
  82:	7200                	flw	fs0,32(a2)
  84:	006c                	addi	a1,sp,12
  86:	0000                	unimp
  88:	0000                	unimp
  8a:	0000                	unimp
  8c:	2c00                	fld	fs0,24(s0)
  8e:	0004                	0x4
  90:	5700                	lw	s0,40(a4)
  92:	0004                	0x4
  94:	0100                	addi	s0,sp,128
  96:	5d00                	lw	s0,56(a0)
  98:	00000457          	vadd.vv	v8,v0,v0,v0.t
  9c:	04b0                	addi	a2,sp,584
  9e:	0000                	unimp
  a0:	0001                	nop
  a2:	b059                	j	fffff928 <stack_end+0x9efff2ac>
  a4:	0004                	0x4
  a6:	b800                	fsd	fs0,48(s0)
  a8:	0004                	0x4
  aa:	0400                	addi	s0,sp,512
  ac:	f300                	fsw	fs0,32(a4)
  ae:	5d01                	li	s10,-32
  b0:	009f 0000 0000      	0x9f
  b6:	0000                	unimp
  b8:	2c00                	fld	fs0,24(s0)
  ba:	0004                	0x4
  bc:	5700                	lw	s0,40(a4)
  be:	0004                	0x4
  c0:	0100                	addi	s0,sp,128
  c2:	5e00                	lw	s0,56(a2)
  c4:	00000457          	vadd.vv	v8,v0,v0,v0.t
  c8:	04b4                	addi	a3,sp,584
  ca:	0000                	unimp
  cc:	0002                	c.slli64	zero
  ce:	0072                	c.slli	zero,0x1c
  d0:	04b4                	addi	a3,sp,584
  d2:	0000                	unimp
  d4:	04b8                	addi	a4,sp,584
  d6:	0000                	unimp
  d8:	0002                	c.slli64	zero
  da:	6872                	flw	fa6,28(sp)
	...
  e4:	03e8                	addi	a0,sp,460
  e6:	0000                	unimp
  e8:	00000403          	lb	s0,0(zero) # 0 <_start-0x61000000>
  ec:	0001                	nop
  ee:	035a                	slli	t1,t1,0x16
  f0:	0004                	0x4
  f2:	2000                	fld	fs0,0(s0)
  f4:	0004                	0x4
  f6:	0100                	addi	s0,sp,128
  f8:	5800                	lw	s0,48(s0)
  fa:	0420                	addi	s0,sp,520
  fc:	0000                	unimp
  fe:	042c                	addi	a1,sp,520
 100:	0000                	unimp
 102:	0004                	0x4
 104:	9f5a01f3          	0x9f5a01f3
	...
 110:	03e8                	addi	a0,sp,460
 112:	0000                	unimp
 114:	00000403          	lb	s0,0(zero) # 0 <_start-0x61000000>
 118:	0001                	nop
 11a:	0004035b          	0x4035b
 11e:	2c00                	fld	fs0,24(s0)
 120:	0004                	0x4
 122:	0400                	addi	s0,sp,512
 124:	f300                	fsw	fs0,32(a4)
 126:	5b01                	li	s6,-32
 128:	009f 0000 0000      	0x9f
 12e:	0000                	unimp
 130:	6c00                	flw	fs0,24(s0)
 132:	8b000003          	lb	zero,-1872(zero) # fffff8b0 <stack_end+0x9efff234>
 136:	01000003          	lb	zero,16(zero) # 10 <_start-0x60fffff0>
 13a:	5a00                	lw	s0,48(a2)
 13c:	0000038b          	0x38b
 140:	03a8                	addi	a0,sp,456
 142:	0000                	unimp
 144:	0001                	nop
 146:	a858                	fsd	fa4,144(s0)
 148:	b4000003          	lb	zero,-1216(zero) # fffffb40 <stack_end+0x9efff4c4>
 14c:	04000003          	lb	zero,64(zero) # 40 <_start-0x60ffffc0>
 150:	f300                	fsw	fs0,32(a4)
 152:	5a01                	li	s4,-32
 154:	b49f 0003 e800      	0xe8000003b49f
 15a:	01000003          	lb	zero,16(zero) # 10 <_start-0x60fffff0>
 15e:	5800                	lw	s0,48(s0)
	...
 168:	0398                	addi	a4,sp,448
 16a:	0000                	unimp
 16c:	03a0                	addi	s0,sp,456
 16e:	0000                	unimp
 170:	0001                	nop
 172:	b45a                	fsd	fs6,40(sp)
 174:	b8000003          	lb	zero,-1152(zero) # fffffb80 <stack_end+0x9efff504>
 178:	01000003          	lb	zero,16(zero) # 10 <_start-0x60fffff0>
 17c:	5a00                	lw	s0,48(a2)
	...
 186:	0310                	addi	a2,sp,384
 188:	0000                	unimp
 18a:	00000337          	lui	t1,0x0
 18e:	0001                	nop
 190:	375a                	fld	fa4,432(sp)
 192:	64000003          	lb	zero,1600(zero) # 640 <_start-0x60fff9c0>
 196:	01000003          	lb	zero,16(zero) # 10 <_start-0x60fffff0>
 19a:	5900                	lw	s0,48(a0)
 19c:	0364                	addi	s1,sp,396
 19e:	0000                	unimp
 1a0:	036c                	addi	a1,sp,396
 1a2:	0000                	unimp
 1a4:	0004                	0x4
 1a6:	9f5a01f3          	0x9f5a01f3
	...
 1b2:	0310                	addi	a2,sp,384
 1b4:	0000                	unimp
 1b6:	0328                	addi	a0,sp,392
 1b8:	0000                	unimp
 1ba:	0001                	nop
 1bc:	0003285b          	0x3285b
 1c0:	6000                	flw	fs0,0(s0)
 1c2:	01000003          	lb	zero,16(zero) # 10 <_start-0x60fffff0>
 1c6:	5800                	lw	s0,48(s0)
 1c8:	0360                	addi	s0,sp,396
 1ca:	0000                	unimp
 1cc:	036c                	addi	a1,sp,396
 1ce:	0000                	unimp
 1d0:	0004                	0x4
 1d2:	9f5b01f3          	0x9f5b01f3
	...
 1de:	034c                	addi	a1,sp,388
 1e0:	0000                	unimp
 1e2:	0358                	addi	a4,sp,388
 1e4:	0000                	unimp
 1e6:	0001                	nop
 1e8:	005f 0000 0000      	0x5f
 1ee:	0000                	unimp
 1f0:	3800                	fld	fs0,48(s0)
 1f2:	44000003          	lb	zero,1088(zero) # 440 <_start-0x60fffbc0>
 1f6:	01000003          	lb	zero,16(zero) # 10 <_start-0x60fffff0>
 1fa:	5a00                	lw	s0,48(a2)
	...
 204:	02e8                	addi	a0,sp,332
 206:	0000                	unimp
 208:	000002fb          	dkhmx8	t0,zero,zero
 20c:	0001                	nop
 20e:	fb5a                	fsw	fs6,180(sp)
 210:	0002                	c.slli64	zero
 212:	0400                	addi	s0,sp,512
 214:	01000003          	lb	zero,16(zero) # 10 <_start-0x60fffff0>
 218:	5800                	lw	s0,48(s0)
 21a:	0304                	addi	s1,sp,384
 21c:	0000                	unimp
 21e:	0000030f          	0x30f
 222:	0001                	nop
 224:	0f5a                	slli	t5,t5,0x16
 226:	10000003          	lb	zero,256(zero) # 100 <_start-0x60ffff00>
 22a:	04000003          	lb	zero,64(zero) # 40 <_start-0x60ffffc0>
 22e:	f300                	fsw	fs0,32(a4)
 230:	5a01                	li	s4,-32
 232:	009f 0000 0000      	0x9f
 238:	0000                	unimp
 23a:	e800                	fsw	fs0,16(s0)
 23c:	0002                	c.slli64	zero
 23e:	fb00                	fsw	fs0,48(a4)
 240:	0002                	c.slli64	zero
 242:	0100                	addi	s0,sp,128
 244:	5b00                	lw	s0,48(a4)
 246:	000002fb          	dkhmx8	t0,zero,zero
 24a:	0310                	addi	a2,sp,384
 24c:	0000                	unimp
 24e:	0004                	0x4
 250:	9f5b01f3          	0x9f5b01f3
	...
 25c:	02e8                	addi	a0,sp,332
 25e:	0000                	unimp
 260:	000002fb          	dkhmx8	t0,zero,zero
 264:	0001                	nop
 266:	fb5c                	fsw	fa5,52(a4)
 268:	0002                	c.slli64	zero
 26a:	1000                	addi	s0,sp,32
 26c:	04000003          	lb	zero,64(zero) # 40 <_start-0x60ffffc0>
 270:	f300                	fsw	fs0,32(a4)
 272:	5c01                	li	s8,-32
 274:	009f 0000 0000      	0x9f
 27a:	0000                	unimp
 27c:	9400                	0x9400
 27e:	0002                	c.slli64	zero
 280:	b000                	fsd	fs0,32(s0)
 282:	0002                	c.slli64	zero
 284:	0100                	addi	s0,sp,128
 286:	5a00                	lw	s0,48(a2)
 288:	02b0                	addi	a2,sp,328
 28a:	0000                	unimp
 28c:	02e8                	addi	a0,sp,332
 28e:	0000                	unimp
 290:	0004                	0x4
 292:	9f5a01f3          	0x9f5a01f3
	...
 29e:	0294                	addi	a3,sp,320
 2a0:	0000                	unimp
 2a2:	02b0                	addi	a2,sp,328
 2a4:	0000                	unimp
 2a6:	0001                	nop
 2a8:	0002b05b          	0x2b05b
 2ac:	e800                	fsw	fs0,16(s0)
 2ae:	0002                	c.slli64	zero
 2b0:	0400                	addi	s0,sp,512
 2b2:	f300                	fsw	fs0,32(a4)
 2b4:	5b01                	li	s6,-32
 2b6:	009f 0000 0000      	0x9f
 2bc:	0000                	unimp
 2be:	9400                	0x9400
 2c0:	0002                	c.slli64	zero
 2c2:	b000                	fsd	fs0,32(s0)
 2c4:	0002                	c.slli64	zero
 2c6:	0100                	addi	s0,sp,128
 2c8:	5c00                	lw	s0,56(s0)
 2ca:	02b0                	addi	a2,sp,328
 2cc:	0000                	unimp
 2ce:	02e8                	addi	a0,sp,332
 2d0:	0000                	unimp
 2d2:	0004                	0x4
 2d4:	9f5c01f3          	0x9f5c01f3
	...
 2e0:	02a8                	addi	a0,sp,328
 2e2:	0000                	unimp
 2e4:	02b0                	addi	a2,sp,328
 2e6:	0000                	unimp
 2e8:	0002                	c.slli64	zero
 2ea:	9f30                	0x9f30
 2ec:	02b0                	addi	a2,sp,328
 2ee:	0000                	unimp
 2f0:	02bc                	addi	a5,sp,328
 2f2:	0000                	unimp
 2f4:	00780007          	0x780007
 2f8:	1c5b01f3          	0x1c5b01f3
 2fc:	cc9f 0002 dc00      	0xdc000002cc9f
 302:	0002                	c.slli64	zero
 304:	0700                	addi	s0,sp,896
 306:	7800                	flw	fs0,48(s0)
 308:	f300                	fsw	fs0,32(a4)
 30a:	5b01                	li	s6,-32
 30c:	9f1c                	0x9f1c
 30e:	02dc                	addi	a5,sp,324
 310:	0000                	unimp
 312:	02e4                	addi	s1,sp,332
 314:	0000                	unimp
 316:	0009                	c.nop	2
 318:	0078                	addi	a4,sp,12
 31a:	1c5b01f3          	0x1c5b01f3
 31e:	e49f0123          	sb	s1,-446(t5) # 1ae42 <_start-0x60fe51be>
 322:	0002                	c.slli64	zero
 324:	e800                	fsw	fs0,16(s0)
 326:	0002                	c.slli64	zero
 328:	0700                	addi	s0,sp,896
 32a:	7800                	flw	fs0,48(s0)
 32c:	f300                	fsw	fs0,32(a4)
 32e:	5b01                	li	s6,-32
 330:	9f1c                	0x9f1c
	...
 33a:	0248                	addi	a0,sp,260
 33c:	0000                	unimp
 33e:	0260                	addi	s0,sp,268
 340:	0000                	unimp
 342:	0001                	nop
 344:	605a                	flw	ft0,148(sp)
 346:	0002                	c.slli64	zero
 348:	8400                	0x8400
 34a:	0002                	c.slli64	zero
 34c:	0100                	addi	s0,sp,128
 34e:	5800                	lw	s0,48(s0)
 350:	0284                	addi	s1,sp,320
 352:	0000                	unimp
 354:	0294                	addi	a3,sp,320
 356:	0000                	unimp
 358:	0004                	0x4
 35a:	9f5a01f3          	0x9f5a01f3
	...
 366:	0248                	addi	a0,sp,260
 368:	0000                	unimp
 36a:	0260                	addi	s0,sp,268
 36c:	0000                	unimp
 36e:	0001                	nop
 370:	0002605b          	0x2605b
 374:	8800                	0x8800
 376:	0002                	c.slli64	zero
 378:	0100                	addi	s0,sp,128
 37a:	5900                	lw	s0,48(a0)
 37c:	0288                	addi	a0,sp,320
 37e:	0000                	unimp
 380:	0294                	addi	a3,sp,320
 382:	0000                	unimp
 384:	0005                	c.nop	1
 386:	235a01f3          	0x235a01f3
 38a:	0060                	addi	s0,sp,12
 38c:	0000                	unimp
 38e:	0000                	unimp
 390:	0000                	unimp
 392:	7400                	flw	fs0,40(s0)
 394:	0002                	c.slli64	zero
 396:	8c00                	0x8c00
 398:	0002                	c.slli64	zero
 39a:	0100                	addi	s0,sp,128
 39c:	5a00                	lw	s0,48(a2)
	...
 3a6:	013c                	addi	a5,sp,136
 3a8:	0000                	unimp
 3aa:	015f 0000 0001      	0x10000015f
 3b0:	5f5a                	lw	t5,180(sp)
 3b2:	0001                	nop
 3b4:	c000                	sw	s0,0(s0)
 3b6:	0001                	nop
 3b8:	0100                	addi	s0,sp,128
 3ba:	5800                	lw	s0,48(s0)
 3bc:	01c0                	addi	s0,sp,196
 3be:	0000                	unimp
 3c0:	000001cf          	fnmadd.s	ft3,ft0,ft0,ft0,rne
 3c4:	0001                	nop
 3c6:	cf5a                	sw	s6,156(sp)
 3c8:	0001                	nop
 3ca:	d000                	sw	s0,32(s0)
 3cc:	0001                	nop
 3ce:	0400                	addi	s0,sp,512
 3d0:	f300                	fsw	fs0,32(a4)
 3d2:	5a01                	li	s4,-32
 3d4:	009f 0000 0000      	0x9f
 3da:	0000                	unimp
 3dc:	3c00                	fld	fs0,56(s0)
 3de:	0001                	nop
 3e0:	5f00                	lw	s0,56(a4)
 3e2:	0001                	nop
 3e4:	0100                	addi	s0,sp,128
 3e6:	5b00                	lw	s0,48(a4)
 3e8:	015f 0000 01d0      	0x1d00000015f
 3ee:	0000                	unimp
 3f0:	0004                	0x4
 3f2:	9f5b01f3          	0x9f5b01f3
	...
 3fe:	013c                	addi	a5,sp,136
 400:	0000                	unimp
 402:	015f 0000 0001      	0x10000015f
 408:	5f5c                	lw	a5,60(a4)
 40a:	0001                	nop
 40c:	cc00                	sw	s0,24(s0)
 40e:	0001                	nop
 410:	0200                	addi	s0,sp,256
 412:	9100                	0x9100
 414:	cc70                	sw	a2,92(s0)
 416:	0001                	nop
 418:	d000                	sw	s0,32(s0)
 41a:	0001                	nop
 41c:	0200                	addi	s0,sp,256
 41e:	7200                	flw	fs0,32(a2)
 420:	0070                	addi	a2,sp,12
 422:	0000                	unimp
 424:	0000                	unimp
 426:	0000                	unimp
 428:	3c00                	fld	fs0,56(s0)
 42a:	0001                	nop
 42c:	5f00                	lw	s0,56(a4)
 42e:	0001                	nop
 430:	0100                	addi	s0,sp,128
 432:	5d00                	lw	s0,56(a0)
 434:	015f 0000 01cc      	0x1cc0000015f
 43a:	0000                	unimp
 43c:	0002                	c.slli64	zero
 43e:	0072                	c.slli	zero,0x1c
 440:	01cc                	addi	a1,sp,196
 442:	0000                	unimp
 444:	01d0                	addi	a2,sp,196
 446:	0000                	unimp
 448:	0002                	c.slli64	zero
 44a:	6c72                	flw	fs8,28(sp)
	...
 454:	00d8                	addi	a4,sp,68
 456:	0000                	unimp
 458:	000000f3          	0xf3
 45c:	0001                	nop
 45e:	f35a                	fsw	fs6,164(sp)
 460:	0000                	unimp
 462:	2c00                	fld	fs0,24(s0)
 464:	0001                	nop
 466:	0100                	addi	s0,sp,128
 468:	5800                	lw	s0,48(s0)
 46a:	012c                	addi	a1,sp,136
 46c:	0000                	unimp
 46e:	0000013b          	0x13b
 472:	0001                	nop
 474:	3b5a                	fld	fs6,432(sp)
 476:	0001                	nop
 478:	3c00                	fld	fs0,56(s0)
 47a:	0001                	nop
 47c:	0400                	addi	s0,sp,512
 47e:	f300                	fsw	fs0,32(a4)
 480:	5a01                	li	s4,-32
 482:	009f 0000 0000      	0x9f
 488:	0000                	unimp
 48a:	d800                	sw	s0,48(s0)
 48c:	0000                	unimp
 48e:	f300                	fsw	fs0,32(a4)
 490:	0000                	unimp
 492:	0100                	addi	s0,sp,128
 494:	5b00                	lw	s0,48(a4)
 496:	000000f3          	0xf3
 49a:	0134                	addi	a3,sp,136
 49c:	0000                	unimp
 49e:	0001                	nop
 4a0:	3459                	jal	ffffff26 <stack_end+0x9efff8aa>
 4a2:	0001                	nop
 4a4:	3c00                	fld	fs0,56(s0)
 4a6:	0001                	nop
 4a8:	0400                	addi	s0,sp,512
 4aa:	f300                	fsw	fs0,32(a4)
 4ac:	5b01                	li	s6,-32
 4ae:	009f 0000 0000      	0x9f
 4b4:	0000                	unimp
 4b6:	b800                	fsd	fs0,48(s0)
 4b8:	0000                	unimp
 4ba:	d700                	sw	s0,40(a4)
 4bc:	0000                	unimp
 4be:	0100                	addi	s0,sp,128
 4c0:	5a00                	lw	s0,48(a2)
 4c2:	000000d7          	vadd.vv	v1,v0,v0,v0.t
 4c6:	00d8                	addi	a4,sp,68
 4c8:	0000                	unimp
 4ca:	0004                	0x4
 4cc:	9f5a01f3          	0x9f5a01f3
	...
 4d8:	00b8                	addi	a4,sp,72
 4da:	0000                	unimp
 4dc:	00c8                	addi	a0,sp,68
 4de:	0000                	unimp
 4e0:	0001                	nop
 4e2:	0000c85b          	0xc85b
 4e6:	d800                	sw	s0,48(s0)
 4e8:	0000                	unimp
 4ea:	0400                	addi	s0,sp,512
 4ec:	f300                	fsw	fs0,32(a4)
 4ee:	5b01                	li	s6,-32
 4f0:	009f 0000 0000      	0x9f
 4f6:	0000                	unimp
 4f8:	b800                	fsd	fs0,48(s0)
 4fa:	0000                	unimp
 4fc:	c000                	sw	s0,0(s0)
 4fe:	0000                	unimp
 500:	0100                	addi	s0,sp,128
 502:	5c00                	lw	s0,56(s0)
 504:	00c0                	addi	s0,sp,68
 506:	0000                	unimp
 508:	00d8                	addi	a4,sp,68
 50a:	0000                	unimp
 50c:	0004                	0x4
 50e:	9f5c01f3          	0x9f5c01f3
	...
 51a:	00b8                	addi	a4,sp,72
 51c:	0000                	unimp
 51e:	00c0                	addi	s0,sp,68
 520:	0000                	unimp
 522:	0010                	0x10
 524:	007c                	addi	a5,sp,12
 526:	2440                	fld	fs0,136(s0)
 528:	ff08                	fsw	fa0,56(a4)
 52a:	2440                	fld	fs0,136(s0)
 52c:	7b1a                	flw	fs6,164(sp)
 52e:	0800                	addi	s0,sp,16
 530:	9f211aff          	kmmwb2.u	s5,sp,s2
 534:	00c0                	addi	s0,sp,68
 536:	0000                	unimp
 538:	00c8                	addi	a0,sp,68
 53a:	0000                	unimp
 53c:	0011                	c.nop	4
 53e:	405c01f3          	0x405c01f3
 542:	0824                	addi	s1,sp,24
 544:	1a2440ff          	0x1a2440ff
 548:	ff08007b          	0xff08007b
 54c:	211a                	fld	ft2,384(sp)
 54e:	c89f 0000 d800      	0xd8000000c89f
 554:	0000                	unimp
 556:	1200                	addi	s0,sp,288
 558:	f300                	fsw	fs0,32(a4)
 55a:	5c01                	li	s8,-32
 55c:	2440                	fld	fs0,136(s0)
 55e:	ff08                	fsw	fa0,56(a4)
 560:	2440                	fld	fs0,136(s0)
 562:	f31a                	fsw	ft6,164(sp)
 564:	5b01                	li	s6,-32
 566:	ff08                	fsw	fa0,56(a4)
 568:	211a                	fld	ft2,384(sp)
 56a:	009f 0000 0000      	0x9f
 570:	0000                	unimp
 572:	a400                	fsd	fs0,8(s0)
 574:	0000                	unimp
 576:	b700                	fsd	fs0,40(a4)
 578:	0000                	unimp
 57a:	0100                	addi	s0,sp,128
 57c:	5a00                	lw	s0,48(a2)
 57e:	000000b7          	lui	ra,0x0
 582:	00b8                	addi	a4,sp,72
 584:	0000                	unimp
 586:	0004                	0x4
 588:	9f5a01f3          	0x9f5a01f3
	...
 594:	00a4                	addi	s1,sp,72
 596:	0000                	unimp
 598:	00b4                	addi	a3,sp,72
 59a:	0000                	unimp
 59c:	0001                	nop
 59e:	0000b45b          	0xb45b
 5a2:	b800                	fsd	fs0,48(s0)
 5a4:	0000                	unimp
 5a6:	0400                	addi	s0,sp,512
 5a8:	f300                	fsw	fs0,32(a4)
 5aa:	5b01                	li	s6,-32
 5ac:	009f 0000 0000      	0x9f
 5b2:	0000                	unimp
 5b4:	6c00                	flw	fs0,24(s0)
 5b6:	0000                	unimp
 5b8:	a300                	fsd	fs0,0(a4)
 5ba:	0000                	unimp
 5bc:	0100                	addi	s0,sp,128
 5be:	5a00                	lw	s0,48(a2)
 5c0:	000000a3          	sb	zero,1(zero) # 1 <_start-0x60ffffff>
 5c4:	00a4                	addi	s1,sp,72
 5c6:	0000                	unimp
 5c8:	0004                	0x4
 5ca:	9f5a01f3          	0x9f5a01f3
	...
 5d6:	006c                	addi	a1,sp,12
 5d8:	0000                	unimp
 5da:	007c                	addi	a5,sp,12
 5dc:	0000                	unimp
 5de:	0001                	nop
 5e0:	00007c5b          	0x7c5b
 5e4:	a400                	fsd	fs0,8(s0)
 5e6:	0000                	unimp
 5e8:	0400                	addi	s0,sp,512
 5ea:	f300                	fsw	fs0,32(a4)
 5ec:	5b01                	li	s6,-32
 5ee:	009f 0000 0000      	0x9f
 5f4:	0000                	unimp
 5f6:	6c00                	flw	fs0,24(s0)
 5f8:	0000                	unimp
 5fa:	7000                	flw	fs0,32(s0)
 5fc:	0000                	unimp
 5fe:	0100                	addi	s0,sp,128
 600:	5c00                	lw	s0,56(s0)
 602:	0070                	addi	a2,sp,12
 604:	0000                	unimp
 606:	00a4                	addi	s1,sp,72
 608:	0000                	unimp
 60a:	0004                	0x4
 60c:	9f5c01f3          	0x9f5c01f3
	...
 618:	006c                	addi	a1,sp,12
 61a:	0000                	unimp
 61c:	0088                	addi	a0,sp,64
 61e:	0000                	unimp
 620:	0001                	nop
 622:	885d                	andi	s0,s0,23
 624:	0000                	unimp
 626:	a400                	fsd	fs0,8(s0)
 628:	0000                	unimp
 62a:	0400                	addi	s0,sp,512
 62c:	f300                	fsw	fs0,32(a4)
 62e:	5d01                	li	s10,-32
 630:	009f 0000 0000      	0x9f
 636:	0000                	unimp
 638:	6c00                	flw	fs0,24(s0)
 63a:	0000                	unimp
 63c:	7000                	flw	fs0,32(s0)
 63e:	0000                	unimp
 640:	1700                	addi	s0,sp,928
 642:	7c00                	flw	fs0,56(s0)
 644:	4600                	lw	s0,8(a2)
 646:	4824                	lw	s1,80(s0)
 648:	7b1a2443          	fmadd.d	fs0,fs4,fa7,fa5,rdn
 64c:	3f00                	fld	fs0,56(a4)
 64e:	211a                	fld	ft2,384(sp)
 650:	007d                	c.nop	31
 652:	243a                	fld	fs0,392(sp)
 654:	000a                	c.slli	zero,0x2
 656:	1a0c                	addi	a1,sp,304
 658:	9f21                	0x9f21
 65a:	0070                	addi	a2,sp,12
 65c:	0000                	unimp
 65e:	007c                	addi	a5,sp,12
 660:	0000                	unimp
 662:	0018                	0x18
 664:	465c01f3          	0x465c01f3
 668:	4824                	lw	s1,80(s0)
 66a:	7b1a2443          	fmadd.d	fs0,fs4,fa7,fa5,rdn
 66e:	3f00                	fld	fs0,56(a4)
 670:	211a                	fld	ft2,384(sp)
 672:	007d                	c.nop	31
 674:	243a                	fld	fs0,392(sp)
 676:	000a                	c.slli	zero,0x2
 678:	1a0c                	addi	a1,sp,304
 67a:	9f21                	0x9f21
 67c:	007c                	addi	a5,sp,12
 67e:	0000                	unimp
 680:	0088                	addi	a0,sp,64
 682:	0000                	unimp
 684:	0019                	c.nop	6
 686:	465c01f3          	0x465c01f3
 68a:	4824                	lw	s1,80(s0)
 68c:	f31a2443          	fmadd.d	fs0,fs4,fa7,ft10,rdn
 690:	5b01                	li	s6,-32
 692:	7d211a3f 0a243a00 	0xa243a007d211a3f
 69a:	0c00                	addi	s0,sp,528
 69c:	211a                	fld	ft2,384(sp)
 69e:	889f 0000 a400      	0xa4000000889f
 6a4:	0000                	unimp
 6a6:	1a00                	addi	s0,sp,304
 6a8:	f300                	fsw	fs0,32(a4)
 6aa:	5c01                	li	s8,-32
 6ac:	2446                	fld	fs0,80(sp)
 6ae:	4348                	lw	a0,4(a4)
 6b0:	1a24                	addi	s1,sp,312
 6b2:	3f5b01f3          	0x3f5b01f3
 6b6:	211a                	fld	ft2,384(sp)
 6b8:	3a5d01f3          	0x3a5d01f3
 6bc:	0a24                	addi	s1,sp,280
 6be:	0c00                	addi	s0,sp,528
 6c0:	211a                	fld	ft2,384(sp)
 6c2:	009f 0000 0000      	0x9f
 6c8:	0000                	unimp
 6ca:	6000                	flw	fs0,0(s0)
 6cc:	0000                	unimp
 6ce:	6400                	flw	fs0,8(s0)
 6d0:	0000                	unimp
 6d2:	0100                	addi	s0,sp,128
 6d4:	5f00                	lw	s0,56(a4)
	...
 6de:	0050                	addi	a2,sp,4
 6e0:	0000                	unimp
 6e2:	0054                	addi	a3,sp,4
 6e4:	0000                	unimp
 6e6:	0001                	nop
 6e8:	005f 0000 0000      	0x5f
 6ee:	0000                	unimp
 6f0:	2c00                	fld	fs0,24(s0)
 6f2:	0000                	unimp
 6f4:	3400                	fld	fs0,40(s0)
 6f6:	0000                	unimp
 6f8:	0100                	addi	s0,sp,128
 6fa:	5a00                	lw	s0,48(a2)
 6fc:	0034                	addi	a3,sp,8
 6fe:	0000                	unimp
 700:	004c                	addi	a1,sp,4
 702:	0000                	unimp
 704:	0004                	0x4
 706:	9f5a01f3          	0x9f5a01f3
	...
 712:	002c                	addi	a1,sp,8
 714:	0000                	unimp
 716:	0030                	addi	a2,sp,8
 718:	0000                	unimp
 71a:	0001                	nop
 71c:	0000305b          	0x305b
 720:	4c00                	lw	s0,24(s0)
 722:	0000                	unimp
 724:	0400                	addi	s0,sp,512
 726:	f300                	fsw	fs0,32(a4)
 728:	5b01                	li	s6,-32
 72a:	009f 0000 0000      	0x9f
 730:	0000                	unimp
 732:	2c00                	fld	fs0,24(s0)
 734:	0000                	unimp
 736:	3c00                	fld	fs0,56(s0)
 738:	0000                	unimp
 73a:	0100                	addi	s0,sp,128
 73c:	5c00                	lw	s0,56(s0)
 73e:	003c                	addi	a5,sp,8
 740:	0000                	unimp
 742:	004c                	addi	a1,sp,4
 744:	0000                	unimp
 746:	0004                	0x4
 748:	9f5c01f3          	0x9f5c01f3
	...
 754:	0014                	0x14
 756:	0000                	unimp
 758:	001c                	0x1c
 75a:	0000                	unimp
 75c:	0001                	nop
 75e:	1c5a                	slli	s8,s8,0x36
 760:	0000                	unimp
 762:	2c00                	fld	fs0,24(s0)
 764:	0000                	unimp
 766:	0400                	addi	s0,sp,512
 768:	f300                	fsw	fs0,32(a4)
 76a:	5a01                	li	s4,-32
 76c:	009f 0000 0000      	0x9f
 772:	0000                	unimp
 774:	1400                	addi	s0,sp,544
 776:	0000                	unimp
 778:	1800                	addi	s0,sp,48
 77a:	0000                	unimp
 77c:	0100                	addi	s0,sp,128
 77e:	5b00                	lw	s0,48(a4)
 780:	0018                	0x18
 782:	0000                	unimp
 784:	002c                	addi	a1,sp,8
 786:	0000                	unimp
 788:	0004                	0x4
 78a:	9f5b01f3          	0x9f5b01f3
	...
 796:	0020                	addi	s0,sp,8
 798:	0000                	unimp
 79a:	0024                	addi	s1,sp,8
 79c:	0000                	unimp
 79e:	0001                	nop
 7a0:	005f 0000 0000      	0x5f
 7a6:	0000                	unimp
 7a8:	2000                	fld	fs0,0(s0)
 7aa:	0000                	unimp
 7ac:	2400                	fld	fs0,8(s0)
 7ae:	0000                	unimp
 7b0:	0900                	addi	s0,sp,144
 7b2:	7f00                	flw	fs0,56(a4)
 7b4:	7c00                	flw	fs0,56(s0)
 7b6:	1a00                	addi	s0,sp,304
 7b8:	007d                	c.nop	31
 7ba:	9f25                	0x9f25
	...
 7c8:	0004                	0x4
 7ca:	0000                	unimp
 7cc:	0001                	nop
 7ce:	045a                	slli	s0,s0,0x16
 7d0:	0000                	unimp
 7d2:	1400                	addi	s0,sp,544
 7d4:	0000                	unimp
 7d6:	0100                	addi	s0,sp,128
 7d8:	5f00                	lw	s0,56(a4)
	...
 7e2:	0004                	0x4
 7e4:	0000                	unimp
 7e6:	0008                	0x8
 7e8:	0000                	unimp
 7ea:	0002                	c.slli64	zero
 7ec:	9f30                	0x9f30
 7ee:	0008                	0x8
 7f0:	0000                	unimp
 7f2:	0014                	0x14
 7f4:	0000                	unimp
 7f6:	0001                	nop
 7f8:	005e                	c.slli	zero,0x17
 7fa:	0000                	unimp
 7fc:	0000                	unimp
 7fe:	0000                	unimp
 800:	0400                	addi	s0,sp,512
 802:	0000                	unimp
 804:	0c00                	addi	s0,sp,528
 806:	0000                	unimp
 808:	0200                	addi	s0,sp,256
 80a:	3000                	fld	fs0,32(s0)
 80c:	0c9f 0000 1400      	0x140000000c9f
 812:	0000                	unimp
 814:	0100                	addi	s0,sp,128
 816:	5a00                	lw	s0,48(a2)
	...
 820:	01d0                	addi	a2,sp,196
 822:	0000                	unimp
 824:	01e8                	addi	a0,sp,204
 826:	0000                	unimp
 828:	0001                	nop
 82a:	e85a                	fsw	fs6,16(sp)
 82c:	0001                	nop
 82e:	1400                	addi	s0,sp,544
 830:	0002                	c.slli64	zero
 832:	0100                	addi	s0,sp,128
 834:	5800                	lw	s0,48(s0)
 836:	0214                	addi	a3,sp,256
 838:	0000                	unimp
 83a:	0220                	addi	s0,sp,264
 83c:	0000                	unimp
 83e:	0004                	0x4
 840:	9f5a01f3          	0x9f5a01f3
 844:	0220                	addi	s0,sp,264
 846:	0000                	unimp
 848:	0248                	addi	a0,sp,260
 84a:	0000                	unimp
 84c:	0001                	nop
 84e:	0058                	addi	a4,sp,4
 850:	0000                	unimp
 852:	0000                	unimp
 854:	0000                	unimp
 856:	d000                	sw	s0,32(s0)
 858:	0001                	nop
 85a:	e800                	fsw	fs0,16(s0)
 85c:	0001                	nop
 85e:	0200                	addi	s0,sp,256
 860:	3000                	fld	fs0,32(s0)
 862:	e89f 0001 0000      	0x1e89f
 868:	0002                	c.slli64	zero
 86a:	0700                	addi	s0,sp,896
 86c:	0a00                	addi	s0,sp,272
 86e:	03e9                	addi	t2,t2,26
 870:	0079                	c.nop	30
 872:	9f1c                	0x9f1c
 874:	0200                	addi	s0,sp,256
 876:	0000                	unimp
 878:	0204                	addi	s1,sp,256
 87a:	0000                	unimp
 87c:	ea0a0007          	vlsseg8e8.v	v0,(s4),zero
 880:	1c007903          	0x1c007903
 884:	049f 0002 0800      	0x8000002049f
 88a:	0002                	c.slli64	zero
 88c:	0700                	addi	s0,sp,896
 88e:	0a00                	addi	s0,sp,272
 890:	03e9                	addi	t2,t2,26
 892:	0079                	c.nop	30
 894:	9f1c                	0x9f1c
 896:	0220                	addi	s0,sp,264
 898:	0000                	unimp
 89a:	0224                	addi	s1,sp,264
 89c:	0000                	unimp
 89e:	e90a0007          	vlsseg8e8.v	v0,(s4),a6,v0.t
 8a2:	1c007903          	0x1c007903
 8a6:	009f 0000 0000      	0x9f
 8ac:	0000                	unimp
 8ae:	2400                	fld	fs0,8(s0)
 8b0:	0002                	c.slli64	zero
 8b2:	3c00                	fld	fs0,56(s0)
 8b4:	0002                	c.slli64	zero
 8b6:	0700                	addi	s0,sp,896
 8b8:	0a00                	addi	s0,sp,272
 8ba:	03e9                	addi	t2,t2,26
 8bc:	0079                	c.nop	30
 8be:	9f1c                	0x9f1c
 8c0:	023c                	addi	a5,sp,264
 8c2:	0000                	unimp
 8c4:	0240                	addi	s0,sp,260
 8c6:	0000                	unimp
 8c8:	ea0a0007          	vlsseg8e8.v	v0,(s4),zero
 8cc:	1c007903          	0x1c007903
 8d0:	409f 0002 4800      	0x48000002409f
 8d6:	0002                	c.slli64	zero
 8d8:	0700                	addi	s0,sp,896
 8da:	0a00                	addi	s0,sp,272
 8dc:	03e9                	addi	t2,t2,26
 8de:	0079                	c.nop	30
 8e0:	9f1c                	0x9f1c
	...
 8ee:	0030                	addi	a2,sp,8
 8f0:	0000                	unimp
 8f2:	0001                	nop
 8f4:	305a                	fld	ft0,432(sp)
 8f6:	0000                	unimp
 8f8:	4800                	lw	s0,16(s0)
 8fa:	0000                	unimp
 8fc:	0200                	addi	s0,sp,256
 8fe:	9100                	0x9100
 900:	485c                	lw	a5,20(s0)
 902:	0000                	unimp
 904:	4c00                	lw	s0,24(s0)
 906:	0000                	unimp
 908:	0200                	addi	s0,sp,256
 90a:	7200                	flw	fs0,32(a2)
 90c:	4c5c                	lw	a5,28(s0)
 90e:	0000                	unimp
 910:	b400                	fsd	fs0,40(s0)
 912:	0000                	unimp
 914:	0200                	addi	s0,sp,256
 916:	9100                	0x9100
 918:	005c                	addi	a5,sp,4
	...
 922:	0000                	unimp
 924:	3400                	fld	fs0,40(s0)
 926:	0000                	unimp
 928:	0100                	addi	s0,sp,128
 92a:	5b00                	lw	s0,48(a4)
 92c:	0034                	addi	a3,sp,8
 92e:	0000                	unimp
 930:	0048                	addi	a0,sp,4
 932:	0000                	unimp
 934:	0002                	c.slli64	zero
 936:	0072                	c.slli	zero,0x1c
 938:	0048                	addi	a0,sp,4
 93a:	0000                	unimp
 93c:	004c                	addi	a1,sp,4
 93e:	0000                	unimp
 940:	0002                	c.slli64	zero
 942:	5872                	lw	a6,60(sp)
 944:	004c                	addi	a1,sp,4
 946:	0000                	unimp
 948:	00b4                	addi	a3,sp,72
 94a:	0000                	unimp
 94c:	0002                	c.slli64	zero
 94e:	0072                	c.slli	zero,0x1c
	...
 95c:	0010                	0x10
 95e:	0000                	unimp
 960:	0001                	nop
 962:	105c                	addi	a5,sp,36
 964:	0000                	unimp
 966:	4400                	lw	s0,8(s0)
 968:	0000                	unimp
 96a:	0100                	addi	s0,sp,128
 96c:	5900                	lw	s0,48(a0)
 96e:	004c                	addi	a1,sp,4
 970:	0000                	unimp
 972:	00b4                	addi	a3,sp,72
 974:	0000                	unimp
 976:	0001                	nop
 978:	0059                	c.nop	22
	...
 982:	0000                	unimp
 984:	3400                	fld	fs0,40(s0)
 986:	0000                	unimp
 988:	0100                	addi	s0,sp,128
 98a:	5d00                	lw	s0,56(a0)
 98c:	0034                	addi	a3,sp,8
 98e:	0000                	unimp
 990:	0040                	addi	s0,sp,4
 992:	0000                	unimp
 994:	0001                	nop
 996:	4058                	lw	a4,4(s0)
 998:	0000                	unimp
 99a:	4800                	lw	s0,16(s0)
 99c:	0000                	unimp
 99e:	0600                	addi	s0,sp,768
 9a0:	9100                	0x9100
 9a2:	0664                	addi	s1,sp,780
 9a4:	1c38                	addi	a4,sp,568
 9a6:	489f 0000 4c00      	0x4c000000489f
 9ac:	0000                	unimp
 9ae:	0600                	addi	s0,sp,768
 9b0:	7200                	flw	fs0,32(a2)
 9b2:	0664                	addi	s1,sp,780
 9b4:	1c38                	addi	a4,sp,568
 9b6:	4c9f 0000 b400      	0xb40000004c9f
 9bc:	0000                	unimp
 9be:	0100                	addi	s0,sp,128
 9c0:	5800                	lw	s0,48(s0)
	...
 9ce:	0034                	addi	a3,sp,8
 9d0:	0000                	unimp
 9d2:	0001                	nop
 9d4:	345e                	fld	fs0,496(sp)
 9d6:	0000                	unimp
 9d8:	4800                	lw	s0,16(s0)
 9da:	0000                	unimp
 9dc:	0200                	addi	s0,sp,256
 9de:	9100                	0x9100
 9e0:	4860                	lw	s0,84(s0)
 9e2:	0000                	unimp
 9e4:	4c00                	lw	s0,24(s0)
 9e6:	0000                	unimp
 9e8:	0200                	addi	s0,sp,256
 9ea:	7200                	flw	fs0,32(a2)
 9ec:	4c60                	lw	s0,92(s0)
 9ee:	0000                	unimp
 9f0:	b400                	fsd	fs0,40(s0)
 9f2:	0000                	unimp
 9f4:	0200                	addi	s0,sp,256
 9f6:	9100                	0x9100
 9f8:	0060                	addi	s0,sp,12
	...
 a02:	0000                	unimp
 a04:	1400                	addi	s0,sp,544
 a06:	0000                	unimp
 a08:	0100                	addi	s0,sp,128
 a0a:	5f00                	lw	s0,56(a4)
 a0c:	0014                	0x14
 a0e:	0000                	unimp
 a10:	00000057          	vadd.vv	v0,v0,v0,v0.t
 a14:	0001                	nop
 a16:	575c                	lw	a5,44(a4)
 a18:	0000                	unimp
 a1a:	8400                	0x8400
 a1c:	0000                	unimp
 a1e:	0200                	addi	s0,sp,256
 a20:	9100                	0x9100
 a22:	ac68                	fsd	fa0,216(s0)
 a24:	0000                	unimp
 a26:	b400                	fsd	fs0,40(s0)
 a28:	0000                	unimp
 a2a:	0100                	addi	s0,sp,128
 a2c:	5c00                	lw	s0,56(s0)
	...
 a3a:	0048                	addi	a0,sp,4
 a3c:	0000                	unimp
 a3e:	0002                	c.slli64	zero
 a40:	0091                	addi	ra,ra,4
 a42:	0048                	addi	a0,sp,4
 a44:	0000                	unimp
 a46:	004c                	addi	a1,sp,4
 a48:	0000                	unimp
 a4a:	0002                	c.slli64	zero
 a4c:	0072                	c.slli	zero,0x1c
 a4e:	004c                	addi	a1,sp,4
 a50:	0000                	unimp
 a52:	00b4                	addi	a3,sp,72
 a54:	0000                	unimp
 a56:	0002                	c.slli64	zero
 a58:	0091                	addi	ra,ra,4
	...
 a62:	0064                	addi	s1,sp,12
 a64:	0000                	unimp
 a66:	0078                	addi	a4,sp,12
 a68:	0000                	unimp
 a6a:	0001                	nop
 a6c:	785a                	flw	fa6,180(sp)
 a6e:	0000                	unimp
 a70:	8700                	0x8700
 a72:	0000                	unimp
 a74:	0100                	addi	s0,sp,128
 a76:	5b00                	lw	s0,48(a4)
 a78:	00000087          	vle8.v	v1,(zero),v0.t
 a7c:	009c                	addi	a5,sp,64
 a7e:	0000                	unimp
 a80:	0002                	c.slli64	zero
 a82:	6891                	lui	a7,0x4
 a84:	009c                	addi	a5,sp,64
 a86:	0000                	unimp
 a88:	00b4                	addi	a3,sp,72
 a8a:	0000                	unimp
 a8c:	0001                	nop
 a8e:	0000005b          	0x5b
	...
 a9a:	3400                	fld	fs0,40(s0)
 a9c:	0000                	unimp
 a9e:	0200                	addi	s0,sp,256
 aa0:	3000                	fld	fs0,32(s0)
 aa2:	349f 0000 5000      	0x50000000349f
 aa8:	0000                	unimp
 aaa:	0100                	addi	s0,sp,128
 aac:	5a00                	lw	s0,48(a2)
 aae:	0088                	addi	a0,sp,64
 ab0:	0000                	unimp
 ab2:	00b4                	addi	a3,sp,72
 ab4:	0000                	unimp
 ab6:	0001                	nop
 ab8:	005a                	c.slli	zero,0x16
 aba:	0000                	unimp
 abc:	0000                	unimp
 abe:	0000                	unimp
 ac0:	7000                	flw	fs0,32(s0)
 ac2:	0000                	unimp
 ac4:	8700                	0x8700
 ac6:	0000                	unimp
 ac8:	0100                	addi	s0,sp,128
 aca:	5d00                	lw	s0,56(a0)
 acc:	00000087          	vle8.v	v1,(zero),v0.t
 ad0:	00b4                	addi	a3,sp,72
 ad2:	0000                	unimp
 ad4:	0002                	c.slli64	zero
 ad6:	7091                	lui	ra,0xfffe4
	...

Disassembly of section .debug_frame:

00000000 <.debug_frame>:
   0:	000c                	0xc
   2:	0000                	unimp
   4:	ffffffff          	0xffffffff
   8:	7c010003          	lb	zero,1984(sp)
   c:	0d01                	addi	s10,s10,0
   e:	0002                	c.slli64	zero
  10:	000c                	0xc
  12:	0000                	unimp
  14:	0000                	unimp
  16:	0000                	unimp
  18:	0010                	0x10
  1a:	6100                	flw	fs0,0(a0)
  1c:	0014                	0x14
  1e:	0000                	unimp
  20:	000c                	0xc
  22:	0000                	unimp
  24:	0000                	unimp
  26:	0000                	unimp
  28:	0024                	addi	s1,sp,8
  2a:	6100                	flw	fs0,0(a0)
  2c:	0018                	0x18
  2e:	0000                	unimp
  30:	000c                	0xc
  32:	0000                	unimp
  34:	0000                	unimp
  36:	0000                	unimp
  38:	003c                	addi	a5,sp,8
  3a:	6100                	flw	fs0,0(a0)
  3c:	0020                	addi	s0,sp,8
  3e:	0000                	unimp
  40:	000c                	0xc
  42:	0000                	unimp
  44:	0000                	unimp
  46:	0000                	unimp
  48:	005c                	addi	a5,sp,4
  4a:	6100                	flw	fs0,0(a0)
  4c:	0010                	0x10
  4e:	0000                	unimp
  50:	000c                	0xc
  52:	0000                	unimp
  54:	0000                	unimp
  56:	0000                	unimp
  58:	006c                	addi	a1,sp,12
  5a:	6100                	flw	fs0,0(a0)
  5c:	0010                	0x10
  5e:	0000                	unimp
  60:	000c                	0xc
  62:	0000                	unimp
  64:	0000                	unimp
  66:	0000                	unimp
  68:	007c                	addi	a5,sp,12
  6a:	6100                	flw	fs0,0(a0)
  6c:	0038                	addi	a4,sp,8
  6e:	0000                	unimp
  70:	000c                	0xc
  72:	0000                	unimp
  74:	0000                	unimp
  76:	0000                	unimp
  78:	00b4                	addi	a3,sp,72
  7a:	6100                	flw	fs0,0(a0)
  7c:	0014                	0x14
  7e:	0000                	unimp
  80:	000c                	0xc
  82:	0000                	unimp
  84:	0000                	unimp
  86:	0000                	unimp
  88:	00c8                	addi	a0,sp,68
  8a:	6100                	flw	fs0,0(a0)
  8c:	0020                	addi	s0,sp,8
  8e:	0000                	unimp
  90:	0020                	addi	s0,sp,8
  92:	0000                	unimp
  94:	0000                	unimp
  96:	0000                	unimp
  98:	00e8                	addi	a0,sp,76
  9a:	6100                	flw	fs0,0(a0)
  9c:	0064                	addi	s1,sp,12
  9e:	0000                	unimp
  a0:	0e44                	addi	s1,sp,788
  a2:	4c0c                	lw	a1,24(s0)
  a4:	0181                	addi	gp,gp,0
  a6:	0288                	addi	a0,sp,320
  a8:	0389                	addi	t2,t2,2
  aa:	4402                	lw	s0,0(sp)
  ac:	44c8                	lw	a0,12(s1)
  ae:	44c1                	li	s1,16
  b0:	44c9                	li	s1,18
  b2:	000e                	c.slli	zero,0x3
  b4:	0020                	addi	s0,sp,8
  b6:	0000                	unimp
  b8:	0000                	unimp
  ba:	0000                	unimp
  bc:	014c                	addi	a1,sp,132
  be:	6100                	flw	fs0,0(a0)
  c0:	0094                	addi	a3,sp,64
  c2:	0000                	unimp
  c4:	0e44                	addi	s1,sp,788
  c6:	4c14                	lw	a3,24(s0)
  c8:	0181                	addi	gp,gp,0
  ca:	0288                	addi	a0,sp,320
  cc:	0389                	addi	t2,t2,2
  ce:	7402                	flw	fs0,32(sp)
  d0:	44c8                	lw	a0,12(s1)
  d2:	44c1                	li	s1,16
  d4:	44c9                	li	s1,18
  d6:	000e                	c.slli	zero,0x3
  d8:	0024                	addi	s1,sp,8
  da:	0000                	unimp
  dc:	0000                	unimp
  de:	0000                	unimp
  e0:	01e0                	addi	s0,sp,204
  e2:	6100                	flw	fs0,0(a0)
  e4:	0078                	addi	a4,sp,12
  e6:	0000                	unimp
  e8:	0e44                	addi	s1,sp,788
  ea:	4c0c                	lw	a1,24(s0)
  ec:	0288                	addi	a0,sp,320
  ee:	0389                	addi	t2,t2,2
  f0:	0181                	addi	gp,gp,0
  f2:	0a70                	addi	a2,sp,284
  f4:	44c1                	li	s1,16
  f6:	44c8                	lw	a0,12(s1)
  f8:	44c9                	li	s1,18
  fa:	000e                	c.slli	zero,0x3
  fc:	0b44                	addi	s1,sp,404
  fe:	0000                	unimp
 100:	0020                	addi	s0,sp,8
 102:	0000                	unimp
 104:	0000                	unimp
 106:	0000                	unimp
 108:	0258                	addi	a4,sp,260
 10a:	6100                	flw	fs0,0(a0)
 10c:	004c                	addi	a1,sp,4
 10e:	0000                	unimp
 110:	0e44                	addi	s1,sp,788
 112:	4c0c                	lw	a1,24(s0)
 114:	0288                	addi	a0,sp,320
 116:	0389                	addi	t2,t2,2
 118:	0181                	addi	gp,gp,0
 11a:	c168                	sw	a0,68(a0)
 11c:	c844                	sw	s1,20(s0)
 11e:	c944                	sw	s1,20(a0)
 120:	0e48                	addi	a0,sp,788
 122:	0000                	unimp
 124:	0024                	addi	s1,sp,8
 126:	0000                	unimp
 128:	0000                	unimp
 12a:	0000                	unimp
 12c:	02a4                	addi	s1,sp,328
 12e:	6100                	flw	fs0,0(a0)
 130:	0054                	addi	a3,sp,4
 132:	0000                	unimp
 134:	0e44                	addi	s1,sp,788
 136:	4c10                	lw	a2,24(s0)
 138:	0288                	addi	a0,sp,320
 13a:	0389                	addi	t2,t2,2
 13c:	0181                	addi	gp,gp,0
 13e:	0a54                	addi	a3,sp,276
 140:	44c1                	li	s1,16
 142:	44c8                	lw	a0,12(s1)
 144:	48c9                	li	a7,18
 146:	000e                	c.slli	zero,0x3
 148:	0b44                	addi	s1,sp,404
 14a:	0000                	unimp
 14c:	001c                	0x1c
 14e:	0000                	unimp
 150:	0000                	unimp
 152:	0000                	unimp
 154:	02f8                	addi	a4,sp,332
 156:	6100                	flw	fs0,0(a0)
 158:	0028                	addi	a0,sp,8
 15a:	0000                	unimp
 15c:	0e44                	addi	s1,sp,788
 15e:	480c                	lw	a1,16(s0)
 160:	0288                	addi	a0,sp,320
 162:	0181                	addi	gp,gp,0
 164:	c850                	sw	a2,20(s0)
 166:	c144                	sw	s1,4(a0)
 168:	0e44                	addi	s1,sp,788
 16a:	0000                	unimp
 16c:	0020                	addi	s0,sp,8
 16e:	0000                	unimp
 170:	0000                	unimp
 172:	0000                	unimp
 174:	0320                	addi	s0,sp,392
 176:	6100                	flw	fs0,0(a0)
 178:	005c                	addi	a5,sp,4
 17a:	0000                	unimp
 17c:	0e44                	addi	s1,sp,788
 17e:	480c                	lw	a1,16(s0)
 180:	0288                	addi	a0,sp,320
 182:	8954                	0x8954
 184:	6c018103          	lb	sp,1728(gp)
 188:	44c1                	li	s1,16
 18a:	44c8                	lw	a0,12(s1)
 18c:	44c9                	li	s1,18
 18e:	000e                	c.slli	zero,0x3
 190:	0024                	addi	s1,sp,8
 192:	0000                	unimp
 194:	0000                	unimp
 196:	0000                	unimp
 198:	037c                	addi	a5,sp,396
 19a:	6100                	flw	fs0,0(a0)
 19c:	007c                	addi	a5,sp,12
 19e:	0000                	unimp
 1a0:	0e44                	addi	s1,sp,788
 1a2:	5010                	lw	a2,32(s0)
 1a4:	0288                	addi	a0,sp,320
 1a6:	0389                	addi	t2,t2,2
 1a8:	0181                	addi	gp,gp,0
 1aa:	0a64                	addi	s1,sp,284
 1ac:	44c1                	li	s1,16
 1ae:	44c8                	lw	a0,12(s1)
 1b0:	44c9                	li	s1,18
 1b2:	000e                	c.slli	zero,0x3
 1b4:	0b44                	addi	s1,sp,404
 1b6:	0000                	unimp
 1b8:	001c                	0x1c
 1ba:	0000                	unimp
 1bc:	0000                	unimp
 1be:	0000                	unimp
 1c0:	03f8                	addi	a4,sp,460
 1c2:	6100                	flw	fs0,0(a0)
 1c4:	0044                	addi	s1,sp,4
 1c6:	0000                	unimp
 1c8:	0e44                	addi	s1,sp,788
 1ca:	500c                	lw	a1,32(s0)
 1cc:	0181                	addi	gp,gp,0
 1ce:	0288                	addi	a0,sp,320
 1d0:	c160                	sw	s0,68(a0)
 1d2:	c844                	sw	s1,20(s0)
 1d4:	0e48                	addi	a0,sp,788
 1d6:	0000                	unimp
 1d8:	0020                	addi	s0,sp,8
 1da:	0000                	unimp
 1dc:	0000                	unimp
 1de:	0000                	unimp
 1e0:	043c                	addi	a5,sp,520
 1e2:	6100                	flw	fs0,0(a0)
 1e4:	008c                	addi	a1,sp,64
 1e6:	0000                	unimp
 1e8:	0e44                	addi	s1,sp,788
 1ea:	5418                	lw	a4,40(s0)
 1ec:	0181                	addi	gp,gp,0
 1ee:	0288                	addi	a0,sp,320
 1f0:	0389                	addi	t2,t2,2
 1f2:	6402                	flw	fs0,0(sp)
 1f4:	44c8                	lw	a0,12(s1)
 1f6:	44c1                	li	s1,16
 1f8:	44c9                	li	s1,18
 1fa:	000e                	c.slli	zero,0x3
 1fc:	000c                	0xc
 1fe:	0000                	unimp
 200:	ffffffff          	0xffffffff
 204:	7c010003          	lb	zero,1984(sp)
 208:	0d01                	addi	s10,s10,0
 20a:	0002                	c.slli64	zero
 20c:	0024                	addi	s1,sp,8
 20e:	0000                	unimp
 210:	01fc                	addi	a5,sp,204
 212:	0000                	unimp
 214:	04c8                	addi	a0,sp,580
 216:	6100                	flw	fs0,0(a0)
 218:	00b4                	addi	a3,sp,72
 21a:	0000                	unimp
 21c:	0e44                	addi	s1,sp,788
 21e:	4428                	lw	a0,72(s0)
 220:	0389                	addi	t2,t2,2
 222:	8858                	0x8858
 224:	8102                	jr	sp
 226:	5c01                	li	s8,-32
 228:	c10a                	sw	sp,128(sp)
 22a:	c844                	sw	s1,20(s0)
 22c:	c944                	sw	s1,20(a0)
 22e:	0e44                	addi	s1,sp,788
 230:	4400                	lw	s0,8(s0)
 232:	          	0xb
