
E:/work/2022/al9000/sw/debugger/al_openocd/contrib/loaders/flash/emmc/dwcmshc/build/emmc_async_riscv_32.elf:     file format elf32-littleriscv


Disassembly of section .text:

61000000 <_start>:
61000000:	00000117          	auipc	sp,0x0
61000004:	15010113          	addi	sp,sp,336 # 61000150 <stack_end>
61000008:	074000ef          	jal	ra,6100007c <emmc_dwcmshc>
6100000c:	00100073          	ebreak

61000010 <emmc_wait_fifo>:
61000010:	00050793          	mv	a5,a0
61000014:	0007a703          	lw	a4,0(a5)
61000018:	0047a503          	lw	a0,4(a5)
6100001c:	fea70ce3          	beq	a4,a0,61000014 <emmc_wait_fifo+0x4>
61000020:	00008067          	ret

61000024 <emmc_write_block>:
61000024:	183a07b7          	lui	a5,0x183a0
61000028:	00b52423          	sw	a1,8(a0)
6100002c:	08278793          	addi	a5,a5,130 # 183a0082 <_start-0x48c5ff7e>
61000030:	00f52623          	sw	a5,12(a0)
61000034:	03052783          	lw	a5,48(a0)
61000038:	0107f713          	andi	a4,a5,16
6100003c:	fe070ce3          	beqz	a4,61000034 <emmc_write_block+0x10>
61000040:	0107d793          	srli	a5,a5,0x10
61000044:	fe0798e3          	bnez	a5,61000034 <emmc_write_block+0x10>
61000048:	20060793          	addi	a5,a2,512
6100004c:	00062703          	lw	a4,0(a2)
61000050:	00460613          	addi	a2,a2,4
61000054:	02e52023          	sw	a4,32(a0)
61000058:	fef61ae3          	bne	a2,a5,6100004c <emmc_write_block+0x28>
6100005c:	03052783          	lw	a5,48(a0)
61000060:	0027f713          	andi	a4,a5,2
61000064:	fe070ce3          	beqz	a4,6100005c <emmc_write_block+0x38>
61000068:	0107d713          	srli	a4,a5,0x10
6100006c:	fe0718e3          	bnez	a4,6100005c <emmc_write_block+0x38>
61000070:	0027e793          	ori	a5,a5,2
61000074:	02f52823          	sw	a5,48(a0)
61000078:	00008067          	ret

6100007c <emmc_dwcmshc>:
6100007c:	fe010113          	addi	sp,sp,-32
61000080:	00812c23          	sw	s0,24(sp)
61000084:	00112e23          	sw	ra,28(sp)
61000088:	00912a23          	sw	s1,20(sp)
6100008c:	00a12023          	sw	a0,0(sp)
61000090:	00058313          	mv	t1,a1
61000094:	00060293          	mv	t0,a2
61000098:	00070413          	mv	s0,a4
6100009c:	00860393          	addi	t2,a2,8
610000a0:	00604c63          	bgtz	t1,610000b8 <emmc_dwcmshc+0x3c>
610000a4:	01c12083          	lw	ra,28(sp)
610000a8:	01812403          	lw	s0,24(sp)
610000ac:	01412483          	lw	s1,20(sp)
610000b0:	02010113          	addi	sp,sp,32
610000b4:	00008067          	ret
610000b8:	00028513          	mv	a0,t0
610000bc:	00712823          	sw	t2,16(sp)
610000c0:	00d12623          	sw	a3,12(sp)
610000c4:	00612423          	sw	t1,8(sp)
610000c8:	00512223          	sw	t0,4(sp)
610000cc:	f45ff0ef          	jal	ra,61000010 <emmc_wait_fifo>
610000d0:	00050493          	mv	s1,a0
610000d4:	00050613          	mv	a2,a0
610000d8:	00012503          	lw	a0,0(sp)
610000dc:	00040593          	mv	a1,s0
610000e0:	20040413          	addi	s0,s0,512
610000e4:	f41ff0ef          	jal	ra,61000024 <emmc_write_block>
610000e8:	00c12683          	lw	a3,12(sp)
610000ec:	20048793          	addi	a5,s1,512
610000f0:	00412283          	lw	t0,4(sp)
610000f4:	00812303          	lw	t1,8(sp)
610000f8:	01012383          	lw	t2,16(sp)
610000fc:	00d79463          	bne	a5,a3,61000104 <emmc_dwcmshc+0x88>
61000100:	00038793          	mv	a5,t2
61000104:	00f2a223          	sw	a5,4(t0)
61000108:	fff30313          	addi	t1,t1,-1
6100010c:	f95ff06f          	j	610000a0 <emmc_dwcmshc+0x24>

Disassembly of section .data:

61000110 <stack>:
61000110:	5309                	li	t1,-30
61000112:	53090867          	jalr	a6,1328(s2)
61000116:	53090867          	jalr	a6,1328(s2)
6100011a:	53090867          	jalr	a6,1328(s2)
6100011e:	53090867          	jalr	a6,1328(s2)
61000122:	53090867          	jalr	a6,1328(s2)
61000126:	53090867          	jalr	a6,1328(s2)
6100012a:	53090867          	jalr	a6,1328(s2)
6100012e:	53090867          	jalr	a6,1328(s2)
61000132:	53090867          	jalr	a6,1328(s2)
61000136:	53090867          	jalr	a6,1328(s2)
6100013a:	53090867          	jalr	a6,1328(s2)
6100013e:	53090867          	jalr	a6,1328(s2)
61000142:	53090867          	jalr	a6,1328(s2)
61000146:	53090867          	jalr	a6,1328(s2)
6100014a:	53090867          	jalr	a6,1328(s2)
6100014e:	          	jalr	a6,zero # 0 <_start-0x61000000>

Disassembly of section .riscv.attributes:

00000000 <.riscv.attributes>:
   0:	1b41                	addi	s6,s6,-16
   2:	0000                	unimp
   4:	7200                	flw	fs0,32(a2)
   6:	7369                	lui	t1,0xffffa
   8:	01007663          	bgeu	zero,a6,14 <_start-0x60ffffec>
   c:	0011                	c.nop	4
   e:	0000                	unimp
  10:	0404                	addi	s1,sp,512
  12:	7205                	lui	tp,0xfffe1
  14:	3376                	fld	ft6,376(sp)
  16:	6532                	flw	fa0,12(sp)
  18:	7031                	c.lui	zero,0xfffec
  1a:	0039                	c.nop	14

Disassembly of section .comment:

00000000 <.comment>:
   0:	3a434347          	fmsub.d	ft6,ft6,ft4,ft7,rmm
   4:	2820                	fld	fs0,80(s0)
   6:	29554e47          	fmsub.s	ft8,fa0,fs5,ft5,rmm
   a:	3120                	fld	fs0,96(a0)
   c:	2e30                	fld	fa2,88(a2)
   e:	2e32                	fld	ft8,264(sp)
  10:	0030                	addi	a2,sp,8

Disassembly of section .debug_line:

00000000 <.debug_line>:
   0:	009f 0000 0003      	0x30000009f
   6:	007d                	c.nop	31
   8:	0000                	unimp
   a:	0101                	addi	sp,sp,0
   c:	000d0efb          	dkhmx8	t4,s10,zero
  10:	0101                	addi	sp,sp,0
  12:	0101                	addi	sp,sp,0
  14:	0000                	unimp
  16:	0100                	addi	s0,sp,128
  18:	0000                	unimp
  1a:	4501                	li	a0,0
  1c:	2f3a                	fld	ft10,392(sp)
  1e:	6b726f77          	0x6b726f77
  22:	3230322f          	0x3230322f
  26:	2f32                	fld	ft10,264(sp)
  28:	6c61                	lui	s8,0x18
  2a:	3039                	jal	fffff838 <stack_end+0x9efff6e8>
  2c:	3030                	fld	fa2,96(s0)
  2e:	2f77732f          	0x2f77732f
  32:	6564                	flw	fs1,76(a0)
  34:	7562                	flw	fa0,56(sp)
  36:	72656767          	0x72656767
  3a:	5f6c612f          	0x5f6c612f
  3e:	6e65706f          	j	57724 <_start-0x60fa88dc>
  42:	2f64636f          	jal	t1,46338 <_start-0x60fb9cc8>
  46:	746e6f63          	bltu	t3,t1,7a4 <_start-0x60fff85c>
  4a:	6972                	flw	fs2,28(sp)
  4c:	2f62                	fld	ft10,24(sp)
  4e:	6f6c                	flw	fa1,92(a4)
  50:	6461                	lui	s0,0x18
  52:	7265                	lui	tp,0xffff9
  54:	6c662f73          	csrrs	t5,0x6c6,a2
  58:	7361                	lui	t1,0xffff8
  5a:	2f68                	fld	fa0,216(a4)
  5c:	6d65                	lui	s10,0x19
  5e:	636d                	lui	t1,0x1b
  60:	6377642f          	0x6377642f
  64:	736d                	lui	t1,0xffffb
  66:	6368                	flw	fa0,68(a4)
  68:	6372732f          	0x6372732f
  6c:	6f6f622f          	0x6f6f622f
  70:	2f74                	fld	fa3,216(a4)
  72:	6972                	flw	fs2,28(sp)
  74:	00766373          	csrrsi	t1,0x7,12
  78:	7700                	flw	fs0,40(a4)
  7a:	6172                	flw	ft2,28(sp)
  7c:	7070                	flw	fa2,100(s0)
  7e:	7265                	lui	tp,0xffff9
  80:	532e                	lw	t1,232(sp)
  82:	0100                	addi	s0,sp,128
  84:	0000                	unimp
  86:	0000                	unimp
  88:	0205                	addi	tp,tp,1
  8a:	0000                	unimp
  8c:	6100                	flw	fs0,0(a0)
  8e:	03010d03          	lb	s10,48(sp)
  92:	0901                	addi	s2,s2,0
  94:	0008                	0x8
  96:	0301                	addi	t1,t1,0
  98:	0901                	addi	s2,s2,0
  9a:	0004                	0x4
  9c:	0901                	addi	s2,s2,0
  9e:	0004                	0x4
  a0:	0100                	addi	s0,sp,128
  a2:	1001                	c.nop	-32
  a4:	03000003          	lb	zero,48(zero) # 30 <_start-0x60ffffd0>
  a8:	3700                	fld	fs0,40(a4)
  aa:	0001                	nop
  ac:	0100                	addi	s0,sp,128
  ae:	fb01                	bnez	a4,ffffffbe <stack_end+0x9efffe6e>
  b0:	0d0e                	slli	s10,s10,0x3
  b2:	0100                	addi	s0,sp,128
  b4:	0101                	addi	sp,sp,0
  b6:	0001                	nop
  b8:	0000                	unimp
  ba:	0001                	nop
  bc:	0100                	addi	s0,sp,128
  be:	3a45                	jal	fffffa6e <stack_end+0x9efff91e>
  c0:	726f772f          	0x726f772f
  c4:	30322f6b          	0x30322f6b
  c8:	3232                	fld	ft4,296(sp)
  ca:	396c612f          	0x396c612f
  ce:	3030                	fld	fa2,96(s0)
  d0:	2f30                	fld	fa2,88(a4)
  d2:	642f7773          	csrrci	a4,0x642,30
  d6:	6265                	lui	tp,0x19
  d8:	6775                	lui	a4,0x1d
  da:	2f726567          	0x2f726567
  de:	6c61                	lui	s8,0x18
  e0:	6f5f 6570 6f6e      	0x6f6e65706f5f
  e6:	632f6463          	bltu	t5,s2,70e <_start-0x60fff8f2>
  ea:	72746e6f          	jal	t3,47010 <_start-0x60fb8ff0>
  ee:	6269                	lui	tp,0x1a
  f0:	616f6c2f          	0x616f6c2f
  f4:	6564                	flw	fs1,76(a0)
  f6:	7372                	flw	ft6,60(sp)
  f8:	616c662f          	0x616c662f
  fc:	652f6873          	csrrsi	a6,0x652,30
 100:	6d6d                	lui	s10,0x1b
 102:	77642f63          	0x77642f63
 106:	68736d63          	bltu	t1,t2,7a0 <_start-0x60fff860>
 10a:	72732f63          	0x72732f63
 10e:	3a650063          	beq	a0,t1,4ae <_start-0x60fffb52>
 112:	775c                	flw	fa5,44(a4)
 114:	5c6b726f          	jal	tp,b76da <_start-0x60f48926>
 118:	3032                	fld	ft0,296(sp)
 11a:	3232                	fld	ft4,296(sp)
 11c:	615c                	flw	fa5,4(a0)
 11e:	396c                	fld	fa1,240(a0)
 120:	3030                	fld	fa2,96(s0)
 122:	5c30                	lw	a2,120(s0)
 124:	735c7773          	csrrci	a4,0x735,24
 128:	612d636f          	jal	t1,d673a <_start-0x60f298c6>
 12c:	7570                	flw	fa2,108(a0)
 12e:	732d                	lui	t1,0xfffeb
 130:	6b64                	flw	fs1,84(a4)
 132:	745c                	flw	fa5,44(s0)
 134:	736c6f6f          	jal	t5,c686a <_start-0x60f39796>
 138:	775c                	flw	fa5,44(a4)
 13a:	6e69                	lui	t3,0x1a
 13c:	725c                	flw	fa5,36(a2)
 13e:	7369                	lui	t1,0xffffa
 140:	725c7663          	bgeu	s8,t0,86c <_start-0x60fff794>
 144:	7369                	lui	t1,0xffffa
 146:	6e2d7663          	bgeu	s10,sp,832 <_start-0x60fff7ce>
 14a:	6375                	lui	t1,0x1d
 14c:	656c                	flw	fa1,76(a0)
 14e:	2d69                	jal	7e8 <_start-0x60fff818>
 150:	6c65                	lui	s8,0x19
 152:	5c66                	lw	s8,120(sp)
 154:	6e69                	lui	t3,0x1a
 156:	64756c63          	bltu	a0,t2,7ae <_start-0x60fff852>
 15a:	5c65                	li	s8,-7
 15c:	616d                	addi	sp,sp,240
 15e:	6e696863          	bltu	s2,t1,84e <_start-0x60fff7b2>
 162:	0065                	c.nop	25
 164:	3a65                	jal	fffffb1c <stack_end+0x9efff9cc>
 166:	775c                	flw	fa5,44(a4)
 168:	5c6b726f          	jal	tp,b772e <_start-0x60f488d2>
 16c:	3032                	fld	ft0,296(sp)
 16e:	3232                	fld	ft4,296(sp)
 170:	615c                	flw	fa5,4(a0)
 172:	396c                	fld	fa1,240(a0)
 174:	3030                	fld	fa2,96(s0)
 176:	5c30                	lw	a2,120(s0)
 178:	735c7773          	csrrci	a4,0x735,24
 17c:	612d636f          	jal	t1,d678e <_start-0x60f29872>
 180:	7570                	flw	fa2,108(a0)
 182:	732d                	lui	t1,0xfffeb
 184:	6b64                	flw	fs1,84(a4)
 186:	745c                	flw	fa5,44(s0)
 188:	736c6f6f          	jal	t5,c68be <_start-0x60f39742>
 18c:	775c                	flw	fa5,44(a4)
 18e:	6e69                	lui	t3,0x1a
 190:	725c                	flw	fa5,36(a2)
 192:	7369                	lui	t1,0xffffa
 194:	725c7663          	bgeu	s8,t0,8c0 <_start-0x60fff740>
 198:	7369                	lui	t1,0xffffa
 19a:	6e2d7663          	bgeu	s10,sp,886 <_start-0x60fff77a>
 19e:	6375                	lui	t1,0x1d
 1a0:	656c                	flw	fa1,76(a0)
 1a2:	2d69                	jal	83c <_start-0x60fff7c4>
 1a4:	6c65                	lui	s8,0x19
 1a6:	5c66                	lw	s8,120(sp)
 1a8:	6e69                	lui	t3,0x1a
 1aa:	64756c63          	bltu	a0,t2,802 <_start-0x60fff7fe>
 1ae:	5c65                	li	s8,-7
 1b0:	00737973          	csrrci	s2,0x7,6
 1b4:	6400                	flw	fs0,8(s0)
 1b6:	736d6377          	0x736d6377
 1ba:	6368                	flw	fa0,68(a4)
 1bc:	632e                	flw	ft6,200(sp)
 1be:	0100                	addi	s0,sp,128
 1c0:	0000                	unimp
 1c2:	645f 6665 7561      	0x75616665645f
 1c8:	746c                	flw	fa1,108(s0)
 1ca:	745f 7079 7365      	0x73657079745f
 1d0:	682e                	flw	fa6,200(sp)
 1d2:	0200                	addi	s0,sp,256
 1d4:	0000                	unimp
 1d6:	735f 6474 6e69      	0x6e696474735f
 1dc:	2e74                	fld	fa3,216(a2)
 1de:	0068                	addi	a0,sp,12
 1e0:	00000003          	lb	zero,0(zero) # 0 <_start-0x61000000>
 1e4:	0105                	addi	sp,sp,1
 1e6:	0500                	addi	s0,sp,640
 1e8:	1002                	c.slli	zero,0x20
 1ea:	0000                	unimp
 1ec:	1561                	addi	a0,a0,-8
 1ee:	0505                	addi	a0,a0,1
 1f0:	04090103          	lb	sp,64(s2)
 1f4:	0100                	addi	s0,sp,128
 1f6:	00090103          	lb	sp,0(s2)
 1fa:	0100                	addi	s0,sp,128
 1fc:	0a05                	addi	s4,s4,1
 1fe:	00090003          	lb	zero,0(s2)
 202:	0100                	addi	s0,sp,128
 204:	0905                	addi	s2,s2,1
 206:	00090203          	lb	tp,0(s2)
 20a:	0100                	addi	s0,sp,128
 20c:	0c05                	addi	s8,s8,1
 20e:	0306                	slli	t1,t1,0x1
 210:	0900                	addi	s0,sp,144
 212:	0000                	unimp
 214:	0501                	addi	a0,a0,0
 216:	0609                	addi	a2,a2,2
 218:	04090103          	lb	sp,64(s2)
 21c:	0100                	addi	s0,sp,128
 21e:	0c05                	addi	s8,s8,1
 220:	0306                	slli	t1,t1,0x1
 222:	0900                	addi	s0,sp,144
 224:	0000                	unimp
 226:	0501                	addi	a0,a0,0
 228:	060a                	slli	a2,a2,0x2
 22a:	04097d03          	0x4097d03
 22e:	0100                	addi	s0,sp,128
 230:	0505                	addi	a0,a0,1
 232:	04090503          	lb	a0,64(s2)
 236:	0100                	addi	s0,sp,128
 238:	0105                	addi	sp,sp,1
 23a:	0306                	slli	t1,t1,0x1
 23c:	0901                	addi	s2,s2,0
 23e:	0000                	unimp
 240:	0601                	addi	a2,a2,0
 242:	04090303          	lb	t1,64(s2)
 246:	0100                	addi	s0,sp,128
 248:	0505                	addi	a0,a0,1
 24a:	00090103          	lb	sp,0(s2)
 24e:	0100                	addi	s0,sp,128
 250:	00090103          	lb	sp,0(s2)
 254:	0100                	addi	s0,sp,128
 256:	00090203          	lb	tp,0(s2)
 25a:	0100                	addi	s0,sp,128
 25c:	00090003          	lb	zero,0(s2)
 260:	0100                	addi	s0,sp,128
 262:	0306                	slli	t1,t1,0x1
 264:	0901                	addi	s2,s2,0
 266:	0000                	unimp
 268:	0301                	addi	t1,t1,0
 26a:	0004097f          	radd16	s2,s0,zero
 26e:	0601                	addi	a2,a2,0
 270:	04090003          	lb	zero,64(s2)
 274:	0100                	addi	s0,sp,128
 276:	00090103          	lb	sp,0(s2)
 27a:	0100                	addi	s0,sp,128
 27c:	00090003          	lb	zero,0(s2)
 280:	0100                	addi	s0,sp,128
 282:	0200                	addi	s0,sp,256
 284:	0104                	addi	s1,sp,128
 286:	08090003          	lb	zero,128(s2)
 28a:	0100                	addi	s0,sp,128
 28c:	0200                	addi	s0,sp,256
 28e:	0104                	addi	s1,sp,128
 290:	00090103          	lb	sp,0(s2)
 294:	0100                	addi	s0,sp,128
 296:	0905                	addi	s2,s2,1
 298:	0200                	addi	s0,sp,256
 29a:	0104                	addi	s1,sp,128
 29c:	00090203          	lb	tp,0(s2)
 2a0:	0100                	addi	s0,sp,128
 2a2:	1105                	addi	sp,sp,-31
 2a4:	0200                	addi	s0,sp,256
 2a6:	0104                	addi	s1,sp,128
 2a8:	0306                	slli	t1,t1,0x1
 2aa:	0900                	addi	s0,sp,144
 2ac:	0000                	unimp
 2ae:	0501                	addi	a0,a0,0
 2b0:	0009                	c.nop	2
 2b2:	0402                	c.slli64	s0
 2b4:	0601                	addi	a2,a2,0
 2b6:	04090103          	lb	sp,64(s2)
 2ba:	0100                	addi	s0,sp,128
 2bc:	0200                	addi	s0,sp,256
 2be:	0104                	addi	s1,sp,128
 2c0:	00090103          	lb	sp,0(s2)
 2c4:	0100                	addi	s0,sp,128
 2c6:	0b05                	addi	s6,s6,1
 2c8:	0200                	addi	s0,sp,256
 2ca:	0104                	addi	s1,sp,128
 2cc:	0306                	slli	t1,t1,0x1
 2ce:	0900                	addi	s0,sp,144
 2d0:	0000                	unimp
 2d2:	0501                	addi	a0,a0,0
 2d4:	04020023          	sb	zero,64(tp) # 1a040 <_start-0x60fe5fc0>
 2d8:	0301                	addi	t1,t1,0
 2da:	0900                	addi	s0,sp,144
 2dc:	0008                	0x8
 2de:	0501                	addi	a0,a0,0
 2e0:	0016                	c.slli	zero,0x5
 2e2:	0402                	c.slli64	s0
 2e4:	0301                	addi	t1,t1,0
 2e6:	0900                	addi	s0,sp,144
 2e8:	0004                	0x4
 2ea:	0501                	addi	a0,a0,0
 2ec:	0009                	c.nop	2
 2ee:	0402                	c.slli64	s0
 2f0:	04030603          	lb	a2,64(t1) # 1d040 <_start-0x60fe2fc0>
 2f4:	0809                	addi	a6,a6,2
 2f6:	0100                	addi	s0,sp,128
 2f8:	0200                	addi	s0,sp,256
 2fa:	0304                	addi	s1,sp,384
 2fc:	00090003          	lb	zero,0(s2)
 300:	0100                	addi	s0,sp,128
 302:	0505                	addi	a0,a0,1
 304:	0200                	addi	s0,sp,256
 306:	0304                	addi	s1,sp,384
 308:	0306                	slli	t1,t1,0x1
 30a:	0004097f          	radd16	s2,s0,zero
 30e:	0501                	addi	a0,a0,0
 310:	0009                	c.nop	2
 312:	0402                	c.slli64	s0
 314:	09010303          	lb	t1,144(sp)
 318:	0004                	0x4
 31a:	0001                	nop
 31c:	0402                	c.slli64	s0
 31e:	00030603          	lb	a2,0(t1)
 322:	0409                	addi	s0,s0,2
 324:	0100                	addi	s0,sp,128
 326:	2605                	jal	646 <_start-0x60fff9ba>
 328:	0200                	addi	s0,sp,256
 32a:	0304                	addi	s1,sp,384
 32c:	00097f03          	0x97f03
 330:	0100                	addi	s0,sp,128
 332:	0e05                	addi	t3,t3,1
 334:	0200                	addi	s0,sp,256
 336:	0304                	addi	s1,sp,384
 338:	00090003          	lb	zero,0(s2)
 33c:	0100                	addi	s0,sp,128
 33e:	0505                	addi	a0,a0,1
 340:	0200                	addi	s0,sp,256
 342:	0304                	addi	s1,sp,384
 344:	0306                	slli	t1,t1,0x1
 346:	0900                	addi	s0,sp,144
 348:	0000                	unimp
 34a:	0601                	addi	a2,a2,0
 34c:	04090203          	lb	tp,64(s2)
 350:	0100                	addi	s0,sp,128
 352:	0905                	addi	s2,s2,1
 354:	00090203          	lb	tp,0(s2)
 358:	0100                	addi	s0,sp,128
 35a:	1105                	addi	sp,sp,-31
 35c:	0306                	slli	t1,t1,0x1
 35e:	0900                	addi	s0,sp,144
 360:	0000                	unimp
 362:	0501                	addi	a0,a0,0
 364:	0609                	addi	a2,a2,2
 366:	04090103          	lb	sp,64(s2)
 36a:	0100                	addi	s0,sp,128
 36c:	00090103          	lb	sp,0(s2)
 370:	0100                	addi	s0,sp,128
 372:	0b05                	addi	s6,s6,1
 374:	0306                	slli	t1,t1,0x1
 376:	0900                	addi	s0,sp,144
 378:	0000                	unimp
 37a:	0501                	addi	a0,a0,0
 37c:	04020023          	sb	zero,64(tp) # 40 <_start-0x60ffffc0>
 380:	0301                	addi	t1,t1,0
 382:	0900                	addi	s0,sp,144
 384:	0008                	0x8
 386:	0501                	addi	a0,a0,0
 388:	0016                	c.slli	zero,0x5
 38a:	0402                	c.slli64	s0
 38c:	0301                	addi	t1,t1,0
 38e:	0900                	addi	s0,sp,144
 390:	0004                	0x4
 392:	0501                	addi	a0,a0,0
 394:	0605                	addi	a2,a2,1
 396:	04090303          	lb	t1,64(s2)
 39a:	0100                	addi	s0,sp,128
 39c:	00090003          	lb	zero,0(s2)
 3a0:	0100                	addi	s0,sp,128
 3a2:	08090003          	lb	zero,128(s2)
 3a6:	0100                	addi	s0,sp,128
 3a8:	0105                	addi	sp,sp,1
 3aa:	0306                	slli	t1,t1,0x1
 3ac:	0902                	c.slli64	s2
 3ae:	0000                	unimp
 3b0:	0901                	addi	s2,s2,0
 3b2:	0004                	0x4
 3b4:	0100                	addi	s0,sp,128
 3b6:	3101                	jal	ffffffb6 <stack_end+0x9efffe66>
 3b8:	0002                	c.slli64	zero
 3ba:	0300                	addi	s0,sp,384
 3bc:	4a00                	lw	s0,16(a2)
 3be:	0001                	nop
 3c0:	0100                	addi	s0,sp,128
 3c2:	fb01                	bnez	a4,2d2 <_start-0x60fffd2e>
 3c4:	0d0e                	slli	s10,s10,0x3
 3c6:	0100                	addi	s0,sp,128
 3c8:	0101                	addi	sp,sp,0
 3ca:	0001                	nop
 3cc:	0000                	unimp
 3ce:	0001                	nop
 3d0:	0100                	addi	s0,sp,128
 3d2:	3a45                	jal	fffffd82 <stack_end+0x9efffc32>
 3d4:	726f772f          	0x726f772f
 3d8:	30322f6b          	0x30322f6b
 3dc:	3232                	fld	ft4,296(sp)
 3de:	396c612f          	0x396c612f
 3e2:	3030                	fld	fa2,96(s0)
 3e4:	2f30                	fld	fa2,88(a4)
 3e6:	642f7773          	csrrci	a4,0x642,30
 3ea:	6265                	lui	tp,0x19
 3ec:	6775                	lui	a4,0x1d
 3ee:	2f726567          	0x2f726567
 3f2:	6c61                	lui	s8,0x18
 3f4:	6f5f 6570 6f6e      	0x6f6e65706f5f
 3fa:	632f6463          	bltu	t5,s2,a22 <_start-0x60fff5de>
 3fe:	72746e6f          	jal	t3,47324 <_start-0x60fb8cdc>
 402:	6269                	lui	tp,0x1a
 404:	616f6c2f          	0x616f6c2f
 408:	6564                	flw	fs1,76(a0)
 40a:	7372                	flw	ft6,60(sp)
 40c:	616c662f          	0x616c662f
 410:	652f6873          	csrrsi	a6,0x652,30
 414:	6d6d                	lui	s10,0x1b
 416:	77642f63          	0x77642f63
 41a:	68736d63          	bltu	t1,t2,ab4 <_start-0x60fff54c>
 41e:	72732f63          	0x72732f63
 422:	3a650063          	beq	a0,t1,7c2 <_start-0x60fff83e>
 426:	775c                	flw	fa5,44(a4)
 428:	5c6b726f          	jal	tp,b79ee <_start-0x60f48612>
 42c:	3032                	fld	ft0,296(sp)
 42e:	3232                	fld	ft4,296(sp)
 430:	615c                	flw	fa5,4(a0)
 432:	396c                	fld	fa1,240(a0)
 434:	3030                	fld	fa2,96(s0)
 436:	5c30                	lw	a2,120(s0)
 438:	735c7773          	csrrci	a4,0x735,24
 43c:	612d636f          	jal	t1,d6a4e <_start-0x60f295b2>
 440:	7570                	flw	fa2,108(a0)
 442:	732d                	lui	t1,0xfffeb
 444:	6b64                	flw	fs1,84(a4)
 446:	745c                	flw	fa5,44(s0)
 448:	736c6f6f          	jal	t5,c6b7e <_start-0x60f39482>
 44c:	775c                	flw	fa5,44(a4)
 44e:	6e69                	lui	t3,0x1a
 450:	725c                	flw	fa5,36(a2)
 452:	7369                	lui	t1,0xffffa
 454:	725c7663          	bgeu	s8,t0,b80 <_start-0x60fff480>
 458:	7369                	lui	t1,0xffffa
 45a:	6e2d7663          	bgeu	s10,sp,b46 <_start-0x60fff4ba>
 45e:	6375                	lui	t1,0x1d
 460:	656c                	flw	fa1,76(a0)
 462:	2d69                	jal	afc <_start-0x60fff504>
 464:	6c65                	lui	s8,0x19
 466:	5c66                	lw	s8,120(sp)
 468:	6e69                	lui	t3,0x1a
 46a:	64756c63          	bltu	a0,t2,ac2 <_start-0x60fff53e>
 46e:	5c65                	li	s8,-7
 470:	616d                	addi	sp,sp,240
 472:	6e696863          	bltu	s2,t1,b62 <_start-0x60fff49e>
 476:	0065                	c.nop	25
 478:	3a65                	jal	fffffe30 <stack_end+0x9efffce0>
 47a:	775c                	flw	fa5,44(a4)
 47c:	5c6b726f          	jal	tp,b7a42 <_start-0x60f485be>
 480:	3032                	fld	ft0,296(sp)
 482:	3232                	fld	ft4,296(sp)
 484:	615c                	flw	fa5,4(a0)
 486:	396c                	fld	fa1,240(a0)
 488:	3030                	fld	fa2,96(s0)
 48a:	5c30                	lw	a2,120(s0)
 48c:	735c7773          	csrrci	a4,0x735,24
 490:	612d636f          	jal	t1,d6aa2 <_start-0x60f2955e>
 494:	7570                	flw	fa2,108(a0)
 496:	732d                	lui	t1,0xfffeb
 498:	6b64                	flw	fs1,84(a4)
 49a:	745c                	flw	fa5,44(s0)
 49c:	736c6f6f          	jal	t5,c6bd2 <_start-0x60f3942e>
 4a0:	775c                	flw	fa5,44(a4)
 4a2:	6e69                	lui	t3,0x1a
 4a4:	725c                	flw	fa5,36(a2)
 4a6:	7369                	lui	t1,0xffffa
 4a8:	725c7663          	bgeu	s8,t0,bd4 <_start-0x60fff42c>
 4ac:	7369                	lui	t1,0xffffa
 4ae:	6e2d7663          	bgeu	s10,sp,b9a <_start-0x60fff466>
 4b2:	6375                	lui	t1,0x1d
 4b4:	656c                	flw	fa1,76(a0)
 4b6:	2d69                	jal	b50 <_start-0x60fff4b0>
 4b8:	6c65                	lui	s8,0x19
 4ba:	5c66                	lw	s8,120(sp)
 4bc:	6e69                	lui	t3,0x1a
 4be:	64756c63          	bltu	a0,t2,b16 <_start-0x60fff4ea>
 4c2:	5c65                	li	s8,-7
 4c4:	00737973          	csrrci	s2,0x7,6
 4c8:	6400                	flw	fs0,8(s0)
 4ca:	736d6377          	0x736d6377
 4ce:	6368                	flw	fa0,68(a4)
 4d0:	615f 7973 636e      	0x636e7973615f
 4d6:	632e                	flw	ft6,200(sp)
 4d8:	0100                	addi	s0,sp,128
 4da:	0000                	unimp
 4dc:	645f 6665 7561      	0x75616665645f
 4e2:	746c                	flw	fa1,108(s0)
 4e4:	745f 7079 7365      	0x73657079745f
 4ea:	682e                	flw	fa6,200(sp)
 4ec:	0200                	addi	s0,sp,256
 4ee:	0000                	unimp
 4f0:	735f 6474 6e69      	0x6e696474735f
 4f6:	2e74                	fld	fa3,216(a2)
 4f8:	0068                	addi	a0,sp,12
 4fa:	64000003          	lb	zero,1600(zero) # 640 <_start-0x60fff9c0>
 4fe:	736d6377          	0x736d6377
 502:	6368                	flw	fa0,68(a4)
 504:	682e                	flw	fa6,200(sp)
 506:	0100                	addi	s0,sp,128
 508:	0000                	unimp
 50a:	0500                	addi	s0,sp,640
 50c:	0001                	nop
 50e:	0205                	addi	tp,tp,1
 510:	007c                	addi	a5,sp,12
 512:	6100                	flw	fs0,0(a0)
 514:	0515                	addi	a0,a0,5
 516:	0305                	addi	t1,t1,1
 518:	0901                	addi	s2,s2,0
 51a:	0000                	unimp
 51c:	0301                	addi	t1,t1,0
 51e:	0901                	addi	s2,s2,0
 520:	0000                	unimp
 522:	0501                	addi	a0,a0,0
 524:	0601                	addi	a2,a2,0
 526:	00097e03          	0x97e03
 52a:	0100                	addi	s0,sp,128
 52c:	10090003          	lb	zero,256(s2)
 530:	0100                	addi	s0,sp,128
 532:	1005                	c.nop	-31
 534:	10090d03          	lb	s10,256(s2)
 538:	0100                	addi	s0,sp,128
 53a:	0a05                	addi	s4,s4,1
 53c:	0306                	slli	t1,t1,0x1
 53e:	0975                	addi	s2,s2,29
 540:	0004                	0x4
 542:	0501                	addi	a0,a0,0
 544:	0601                	addi	a2,a2,0
 546:	04091203          	lh	tp,64(s2)
 54a:	0100                	addi	s0,sp,128
 54c:	1a05                	addi	s4,s4,-31
 54e:	14097003          	0x14097003
 552:	0100                	addi	s0,sp,128
 554:	0905                	addi	s2,s2,1
 556:	0306                	slli	t1,t1,0x1
 558:	0900                	addi	s0,sp,144
 55a:	0010                	0x10
 55c:	0501                	addi	a0,a0,0
 55e:	061a                	slli	a2,a2,0x6
 560:	00090003          	lb	zero,0(s2)
 564:	0100                	addi	s0,sp,128
 566:	0905                	addi	s2,s2,1
 568:	0306                	slli	t1,t1,0x1
 56a:	000c0903          	lb	s2,0(s8) # 19000 <_start-0x60fe7000>
 56e:	0501                	addi	a0,a0,0
 570:	0610                	addi	a2,sp,768
 572:	0c090203          	lb	tp,192(s2)
 576:	0100                	addi	s0,sp,128
 578:	0905                	addi	s2,s2,1
 57a:	04097e03          	0x4097e03
 57e:	0100                	addi	s0,sp,128
 580:	0306                	slli	t1,t1,0x1
 582:	0902                	c.slli64	s2
 584:	0004                	0x4
 586:	0301                	addi	t1,t1,0
 588:	0901                	addi	s2,s2,0
 58a:	0000                	unimp
 58c:	0501                	addi	a0,a0,0
 58e:	0203060b          	0x203060b
 592:	0009                	c.nop	2
 594:	0100                	addi	s0,sp,128
 596:	0c05                	addi	s8,s8,1
 598:	04097e03          	0x4097e03
 59c:	0100                	addi	s0,sp,128
 59e:	0905                	addi	s2,s2,1
 5a0:	0306                	slli	t1,t1,0x1
 5a2:	0902                	c.slli64	s2
 5a4:	0004                	0x4
 5a6:	0501                	addi	a0,a0,0
 5a8:	0003060b          	0x3060b
 5ac:	0009                	c.nop	2
 5ae:	0100                	addi	s0,sp,128
 5b0:	0d05                	addi	s10,s10,1
 5b2:	0306                	slli	t1,t1,0x1
 5b4:	0901                	addi	s2,s2,0
 5b6:	0010                	0x10
 5b8:	0501                	addi	a0,a0,0
 5ba:	0610                	addi	a2,sp,768
 5bc:	00090003          	lb	zero,0(s2)
 5c0:	0100                	addi	s0,sp,128
 5c2:	0905                	addi	s2,s2,1
 5c4:	0306                	slli	t1,t1,0x1
 5c6:	0902                	c.slli64	s2
 5c8:	0004                	0x4
 5ca:	0501                	addi	a0,a0,0
 5cc:	0620                	addi	s0,sp,776
 5ce:	00090003          	lb	zero,0(s2)
 5d2:	0100                	addi	s0,sp,128
 5d4:	0905                	addi	s2,s2,1
 5d6:	0306                	slli	t1,t1,0x1
 5d8:	0902                	c.slli64	s2
 5da:	0004                	0x4
 5dc:	0501                	addi	a0,a0,0
 5de:	00030613          	mv	a2,t1
 5e2:	0009                	c.nop	2
 5e4:	0100                	addi	s0,sp,128
 5e6:	0809                	addi	a6,a6,2
 5e8:	0000                	unimp
 5ea:	0101                	addi	sp,sp,0

Disassembly of section .debug_info:

00000000 <.debug_info>:
   0:	0022                	c.slli	zero,0x8
   2:	0000                	unimp
   4:	0002                	c.slli64	zero
   6:	0000                	unimp
   8:	0000                	unimp
   a:	0104                	addi	s1,sp,128
   c:	0000                	unimp
   e:	0000                	unimp
  10:	0000                	unimp
  12:	6100                	flw	fs0,0(a0)
  14:	0010                	0x10
  16:	6100                	flw	fs0,0(a0)
  18:	0000                	unimp
  1a:	0000                	unimp
  1c:	00000067          	jr	zero # 0 <_start-0x61000000>
  20:	00b5                	addi	ra,ra,13
  22:	0000                	unimp
  24:	8001                	c.srli64	s0
  26:	016a                	slli	sp,sp,0x1a
  28:	0000                	unimp
  2a:	0004                	0x4
  2c:	0014                	0x14
  2e:	0000                	unimp
  30:	0104                	addi	s1,sp,128
  32:	01b8                	addi	a4,sp,200
  34:	0000                	unimp
  36:	2c0c                	fld	fa1,24(s0)
  38:	0001                	nop
  3a:	6700                	flw	fs0,8(a4)
  3c:	0000                	unimp
  3e:	1000                	addi	s0,sp,32
  40:	0000                	unimp
  42:	6c61                	lui	s8,0x18
  44:	0000                	unimp
  46:	a300                	fsd	fs0,0(a4)
  48:	0000                	unimp
  4a:	0200                	addi	s0,sp,256
  4c:	0601                	addi	a2,a2,0
  4e:	00e8                	addi	a0,sp,76
  50:	0000                	unimp
  52:	0000cd03          	lbu	s10,0(ra)
  56:	0200                	addi	s0,sp,256
  58:	0038182b          	0x38182b
  5c:	0000                	unimp
  5e:	0102                	c.slli64	sp
  60:	e608                	fsw	fa0,8(a2)
  62:	0000                	unimp
  64:	0200                	addi	s0,sp,256
  66:	0502                	c.slli64	a0
  68:	0000022b          	0x22b
  6c:	0202                	c.slli64	tp
  6e:	0000f407          	vle64.v	v8,(ra),v0.t
  72:	0200                	addi	s0,sp,256
  74:	0504                	addi	s1,sp,640
  76:	0000021b          	0x21b
  7a:	00012103          	lw	sp,0(sp)
  7e:	0200                	addi	s0,sp,256
  80:	0060194f          	fnmadd.s	fs2,ft0,ft6,ft0,rtz
  84:	0000                	unimp
  86:	0402                	c.slli64	s0
  88:	00019507          	flh	fa0,0(gp)
  8c:	0200                	addi	s0,sp,256
  8e:	0508                	addi	a0,sp,640
  90:	0216                	slli	tp,tp,0x5
  92:	0000                	unimp
  94:	0802                	c.slli64	a6
  96:	00019007          	flh	ft0,0(gp)
  9a:	0400                	addi	s0,sp,512
  9c:	0504                	addi	s1,sp,640
  9e:	6e69                	lui	t3,0x1a
  a0:	0074                	addi	a3,sp,12
  a2:	0402                	c.slli64	s0
  a4:	00019a07          	flh	fs4,0(gp)
  a8:	0300                	addi	s0,sp,384
  aa:	000000cf          	fnmadd.s	ft1,ft0,ft0,ft0,rne
  ae:	2c131803          	lh	a6,705(t1) # 1d2c1 <_start-0x60fe2d3f>
  b2:	0000                	unimp
  b4:	0300                	addi	s0,sp,384
  b6:	00000123          	sb	zero,2(zero) # 2 <_start-0x60fffffe>
  ba:	54143003          	0x54143003
  be:	0000                	unimp
  c0:	0500                	addi	s0,sp,640
  c2:	0000008f          	0x8f
  c6:	8f06                	mv	t5,ra
  c8:	0000                	unimp
  ca:	0700                	addi	s0,sp,896
  cc:	000001a7          	vse8.v	v3,(zero),v0.t
  d0:	0e01                	addi	t3,t3,0
  d2:	2406                	fld	fs0,64(sp)
  d4:	0000                	unimp
  d6:	5861                	li	a6,-8
  d8:	0000                	unimp
  da:	0100                	addi	s0,sp,128
  dc:	129c                	addi	a5,sp,352
  de:	0001                	nop
  e0:	0800                	addi	s0,sp,16
  e2:	000000c3          	fmadd.s	ft1,ft0,ft0,ft0,rne
  e6:	0e01                	addi	t3,t3,0
  e8:	122a                	slli	tp,tp,0x2a
  ea:	0001                	nop
  ec:	0100                	addi	s0,sp,128
  ee:	085a                	slli	a6,a6,0x16
  f0:	0224                	addi	s1,sp,264
  f2:	0000                	unimp
  f4:	0e01                	addi	t3,t3,0
  f6:	8f3e                	mv	t5,a5
  f8:	0000                	unimp
  fa:	0100                	addi	s0,sp,128
  fc:	0235095b          	0x235095b
 100:	0000                	unimp
 102:	0e01                	addi	t3,t3,0
 104:	1856                	slli	a6,a6,0x35
 106:	0001                	nop
 108:	0000                	unimp
 10a:	0000                	unimp
 10c:	0a00                	addi	s0,sp,272
 10e:	0069                	c.nop	26
 110:	1001                	c.nop	-32
 112:	8f0e                	mv	t5,gp
 114:	0000                	unimp
 116:	0b00                	addi	s0,sp,400
 118:	0188                	addi	a0,sp,192
 11a:	0000                	unimp
 11c:	1001                	c.nop	-32
 11e:	8f11                	sub	a4,a4,a2
 120:	0000                	unimp
 122:	2f00                	fld	fs0,24(a4)
 124:	0000                	unimp
 126:	0b00                	addi	s0,sp,400
 128:	00000107          	vle8.v	v2,(zero),v0.t
 12c:	1101                	addi	sp,sp,-32
 12e:	830d                	srli	a4,a4,0x3
 130:	0000                	unimp
 132:	4d00                	lw	s0,24(a0)
 134:	0000                	unimp
 136:	0000                	unimp
 138:	040c                	addi	a1,sp,512
 13a:	0000009b          	0x9b
 13e:	040c                	addi	a1,sp,512
 140:	00a0                	addi	s0,sp,72
 142:	0000                	unimp
 144:	d70d                	beqz	a4,6e <_start-0x60ffff92>
 146:	0000                	unimp
 148:	0100                	addi	s0,sp,128
 14a:	008f0b03          	lb	s6,8(t5)
 14e:	0000                	unimp
 150:	0010                	0x10
 152:	6100                	flw	fs0,0(a0)
 154:	0014                	0x14
 156:	0000                	unimp
 158:	9c01                	0x9c01
 15a:	00000167          	jalr	sp,zero # 0 <_start-0x61000000>
 15e:	1109                	addi	sp,sp,-30
 160:	0001                	nop
 162:	0100                	addi	s0,sp,128
 164:	01672403          	lw	s0,22(a4) # 1d016 <_start-0x60fe2fea>
 168:	0000                	unimp
 16a:	00000077          	0x77
 16e:	770e                	flw	fa4,224(sp)
 170:	0070                	addi	a2,sp,12
 172:	0501                	addi	a0,a0,0
 174:	8f0e                	mv	t5,gp
 176:	0000                	unimp
 178:	9500                	0x9500
 17a:	0000                	unimp
 17c:	0e00                	addi	s0,sp,784
 17e:	7072                	flw	ft0,60(sp)
 180:	0100                	addi	s0,sp,128
 182:	1605                	addi	a2,a2,-31
 184:	0000008f          	0x8f
 188:	00b4                	addi	a3,sp,72
 18a:	0000                	unimp
 18c:	0c00                	addi	s0,sp,528
 18e:	8f04                	0x8f04
 190:	0000                	unimp
 192:	0000                	unimp
 194:	0152                	slli	sp,sp,0x14
 196:	0000                	unimp
 198:	0004                	0x4
 19a:	00f1                	addi	ra,ra,28
 19c:	0000                	unimp
 19e:	0104                	addi	s1,sp,128
 1a0:	01b8                	addi	a4,sp,200
 1a2:	0000                	unimp
 1a4:	4a0c                	lw	a1,16(a2)
 1a6:	0002                	c.slli64	zero
 1a8:	6700                	flw	fs0,8(a4)
 1aa:	0000                	unimp
 1ac:	7c00                	flw	fs0,56(s0)
 1ae:	0000                	unimp
 1b0:	9461                	srai	s0,s0,0x38
 1b2:	0000                	unimp
 1b4:	b700                	fsd	fs0,40(a4)
 1b6:	02000003          	lb	zero,32(zero) # 20 <_start-0x60ffffe0>
 1ba:	0601                	addi	a2,a2,0
 1bc:	00e8                	addi	a0,sp,76
 1be:	0000                	unimp
 1c0:	0102                	c.slli64	sp
 1c2:	e608                	fsw	fa0,8(a2)
 1c4:	0000                	unimp
 1c6:	0200                	addi	s0,sp,256
 1c8:	0502                	c.slli64	a0
 1ca:	0000022b          	0x22b
 1ce:	0202                	c.slli64	tp
 1d0:	0000f407          	vle64.v	v8,(ra),v0.t
 1d4:	0200                	addi	s0,sp,256
 1d6:	0504                	addi	s1,sp,640
 1d8:	0000021b          	0x21b
 1dc:	00012103          	lw	sp,0(sp)
 1e0:	0200                	addi	s0,sp,256
 1e2:	0054194f          	fnmadd.s	fs2,fs0,ft5,ft0,rtz
 1e6:	0000                	unimp
 1e8:	0402                	c.slli64	s0
 1ea:	00019507          	flh	fa0,0(gp)
 1ee:	0200                	addi	s0,sp,256
 1f0:	0508                	addi	a0,sp,640
 1f2:	0216                	slli	tp,tp,0x5
 1f4:	0000                	unimp
 1f6:	0802                	c.slli64	a6
 1f8:	00019007          	flh	ft0,0(gp)
 1fc:	0400                	addi	s0,sp,512
 1fe:	0504                	addi	s1,sp,640
 200:	6e69                	lui	t3,0x1a
 202:	0074                	addi	a3,sp,12
 204:	0402                	c.slli64	s0
 206:	00019a07          	flh	fs4,0(gp)
 20a:	0300                	addi	s0,sp,384
 20c:	00000123          	sb	zero,2(zero) # 2 <_start-0x60fffffe>
 210:	48143003          	0x48143003
 214:	0000                	unimp
 216:	0500                	addi	s0,sp,640
 218:	00000077          	0x77
 21c:	ac06                	fsd	ft1,24(sp)
 21e:	0002                	c.slli64	zero
 220:	0100                	addi	s0,sp,128
 222:	007c0603          	lb	a2,7(s8) # 18007 <_start-0x60fe7ff9>
 226:	6100                	flw	fs0,0(a0)
 228:	0094                	addi	a3,sp,64
 22a:	0000                	unimp
 22c:	9c01                	0x9c01
 22e:	0131                	addi	sp,sp,12
 230:	0000                	unimp
 232:	0000c307          	flq	ft6,0(ra)
 236:	0100                	addi	s0,sp,128
 238:	01312603          	lw	a2,19(sp)
 23c:	0000                	unimp
 23e:	000000d3          	fadd.s	ft1,ft0,ft0,rne
 242:	0002b907          	fld	fs2,0(t0)
 246:	0100                	addi	s0,sp,128
 248:	00693503          	0x693503
 24c:	0000                	unimp
 24e:	010a                	slli	sp,sp,0x2
 250:	0000                	unimp
 252:	00011107          	flh	ft2,0(sp)
 256:	0100                	addi	s0,sp,128
 258:	01374a03          	lbu	s4,19(a4)
 25c:	0000                	unimp
 25e:	0000013f 00023c07 	0x23c070000013f
 266:	0100                	addi	s0,sp,128
 268:	01376503          	0x1376503
 26c:	0000                	unimp
 26e:	0160                	addi	s0,sp,140
 270:	0000                	unimp
 272:	00022407          	flw	fs0,0(tp) # 1a000 <_start-0x60fe6000>
 276:	0100                	addi	s0,sp,128
 278:	00777d03          	0x777d03
 27c:	0000                	unimp
 27e:	0181                	addi	gp,gp,0
 280:	0000                	unimp
 282:	7208                	flw	fa0,32(a2)
 284:	0070                	addi	a2,sp,12
 286:	0501                	addi	a0,a0,0
 288:	0001370f          	0x1370f
 28c:	ce00                	sw	s0,24(a2)
 28e:	0001                	nop
 290:	0900                	addi	s0,sp,144
 292:	00d0                	addi	a2,sp,68
 294:	6100                	flw	fs0,0(a0)
 296:	013d                	addi	sp,sp,15
 298:	0000                	unimp
 29a:	0112                	slli	sp,sp,0x4
 29c:	0000                	unimp
 29e:	010a                	slli	sp,sp,0x2
 2a0:	035a                	slli	t1,t1,0x16
 2a2:	6491                	lui	s1,0x4
 2a4:	0006                	c.slli	zero,0x1
 2a6:	0000e80b          	0xe80b
 2aa:	4961                	li	s2,24
 2ac:	0001                	nop
 2ae:	0a00                	addi	s0,sp,272
 2b0:	5a01                	li	s4,-32
 2b2:	06007203          	0x6007203
 2b6:	010a                	slli	sp,sp,0x2
 2b8:	8078035b          	0x8078035b
 2bc:	0a7c                	addi	a5,sp,284
 2be:	5c01                	li	s8,-32
 2c0:	7902                	flw	fs2,32(sp)
 2c2:	0000                	unimp
 2c4:	0c00                	addi	s0,sp,528
 2c6:	8304                	0x8304
 2c8:	0000                	unimp
 2ca:	0c00                	addi	s0,sp,528
 2cc:	7704                	flw	fs1,40(a4)
 2ce:	0000                	unimp
 2d0:	0d00                	addi	s0,sp,656
 2d2:	000000d7          	vadd.vv	v1,v0,v0,v0.t
 2d6:	000000d7          	vadd.vv	v1,v0,v0,v0.t
 2da:	2704                	fld	fs1,8(a4)
 2dc:	01a70d0b          	0x1a70d0b
 2e0:	0000                	unimp
 2e2:	000001a7          	vse8.v	v3,(zero),v0.t
 2e6:	2804                	fld	fs1,16(s0)
 2e8:	0006                	c.slli	zero,0x1

Disassembly of section .debug_abbrev:

00000000 <.debug_abbrev>:
   0:	1101                	addi	sp,sp,-32
   2:	1000                	addi	s0,sp,32
   4:	1106                	slli	sp,sp,0x21
   6:	1201                	addi	tp,tp,-32
   8:	0301                	addi	t1,t1,0
   a:	1b0e                	slli	s6,s6,0x23
   c:	250e                	fld	fa0,192(sp)
   e:	130e                	slli	t1,t1,0x23
  10:	0005                	c.nop	1
  12:	0000                	unimp
  14:	1101                	addi	sp,sp,-32
  16:	2501                	jal	616 <_start-0x60fff9ea>
  18:	130e                	slli	t1,t1,0x23
  1a:	1b0e030b          	0x1b0e030b
  1e:	110e                	slli	sp,sp,0x23
  20:	1201                	addi	tp,tp,-32
  22:	1006                	c.slli	zero,0x21
  24:	02000017          	auipc	zero,0x2000
  28:	0024                	addi	s1,sp,8
  2a:	0b3e0b0b          	0xb3e0b0b
  2e:	00000e03          	lb	t3,0(zero) # 0 <_start-0x61000000>
  32:	03001603          	lh	a2,48(zero) # 30 <_start-0x60ffffd0>
  36:	3a0e                	fld	fs4,224(sp)
  38:	390b3b0b          	0x390b3b0b
  3c:	0013490b          	0x13490b
  40:	0400                	addi	s0,sp,512
  42:	0024                	addi	s1,sp,8
  44:	0b3e0b0b          	0xb3e0b0b
  48:	00000803          	lb	a6,0(zero) # 0 <_start-0x61000000>
  4c:	3505                	jal	fffffe6c <stack_end+0x9efffd1c>
  4e:	4900                	lw	s0,16(a0)
  50:	06000013          	li	zero,96
  54:	0026                	c.slli	zero,0x9
  56:	1349                	addi	t1,t1,-14
  58:	0000                	unimp
  5a:	3f012e07          	flw	ft8,1008(sp)
  5e:	0319                	addi	t1,t1,6
  60:	3a0e                	fld	fs4,224(sp)
  62:	390b3b0b          	0x390b3b0b
  66:	1119270b          	0x1119270b
  6a:	1201                	addi	tp,tp,-32
  6c:	4006                	0x4006
  6e:	9718                	0x9718
  70:	1942                	slli	s2,s2,0x30
  72:	1301                	addi	t1,t1,-32
  74:	0000                	unimp
  76:	0508                	addi	a0,sp,640
  78:	0300                	addi	s0,sp,384
  7a:	3a0e                	fld	fs4,224(sp)
  7c:	390b3b0b          	0x390b3b0b
  80:	0213490b          	0x213490b
  84:	0018                	0x18
  86:	0900                	addi	s0,sp,144
  88:	0005                	c.nop	1
  8a:	0b3a0e03          	lb	t3,179(s4)
  8e:	0b390b3b          	0xb390b3b
  92:	1349                	addi	t1,t1,-14
  94:	1702                	slli	a4,a4,0x20
  96:	0000                	unimp
  98:	340a                	fld	fs0,160(sp)
  9a:	0300                	addi	s0,sp,384
  9c:	3a08                	fld	fa0,48(a2)
  9e:	390b3b0b          	0x390b3b0b
  a2:	0013490b          	0x13490b
  a6:	0b00                	addi	s0,sp,400
  a8:	0034                	addi	a3,sp,8
  aa:	0b3a0e03          	lb	t3,179(s4)
  ae:	0b390b3b          	0xb390b3b
  b2:	1349                	addi	t1,t1,-14
  b4:	1702                	slli	a4,a4,0x20
  b6:	0000                	unimp
  b8:	0f0c                	addi	a1,sp,912
  ba:	0b00                	addi	s0,sp,400
  bc:	0013490b          	0x13490b
  c0:	0d00                	addi	s0,sp,656
  c2:	012e                	slli	sp,sp,0xb
  c4:	0e03193f 0b3b0b3a 	0xb3b0b3a0e03193f
  cc:	0b39                	addi	s6,s6,14
  ce:	13491927          	fsh	fs4,306(s2)
  d2:	0111                	addi	sp,sp,4
  d4:	0612                	slli	a2,a2,0x4
  d6:	1840                	addi	s0,sp,52
  d8:	01194297          	auipc	t0,0x1194
  dc:	0e000013          	li	zero,224
  e0:	0034                	addi	a3,sp,8
  e2:	0b3a0803          	lb	a6,179(s4)
  e6:	0b390b3b          	0xb390b3b
  ea:	1349                	addi	t1,t1,-14
  ec:	1702                	slli	a4,a4,0x20
  ee:	0000                	unimp
  f0:	0100                	addi	s0,sp,128
  f2:	0111                	addi	sp,sp,4
  f4:	0e25                	addi	t3,t3,9
  f6:	0e030b13          	addi	s6,t1,224
  fa:	01110e1b          	0x1110e1b
  fe:	0612                	slli	a2,a2,0x4
 100:	1710                	addi	a2,sp,928
 102:	0000                	unimp
 104:	2402                	fld	fs0,0(sp)
 106:	0b00                	addi	s0,sp,400
 108:	030b3e0b          	0x30b3e0b
 10c:	000e                	c.slli	zero,0x3
 10e:	0300                	addi	s0,sp,384
 110:	0016                	c.slli	zero,0x5
 112:	0b3a0e03          	lb	t3,179(s4)
 116:	0b390b3b          	0xb390b3b
 11a:	1349                	addi	t1,t1,-14
 11c:	0000                	unimp
 11e:	2404                	fld	fs1,8(s0)
 120:	0b00                	addi	s0,sp,400
 122:	030b3e0b          	0x30b3e0b
 126:	0008                	0x8
 128:	0500                	addi	s0,sp,640
 12a:	0035                	c.nop	13
 12c:	1349                	addi	t1,t1,-14
 12e:	0000                	unimp
 130:	2e06                	fld	ft8,64(sp)
 132:	3f01                	jal	42 <_start-0x60ffffbe>
 134:	0319                	addi	t1,t1,6
 136:	3a0e                	fld	fs4,224(sp)
 138:	390b3b0b          	0x390b3b0b
 13c:	1119270b          	0x1119270b
 140:	1201                	addi	tp,tp,-32
 142:	4006                	0x4006
 144:	9718                	0x9718
 146:	1942                	slli	s2,s2,0x30
 148:	1301                	addi	t1,t1,-32
 14a:	0000                	unimp
 14c:	03000507          	vle8ff.v	v10,(zero)
 150:	3a0e                	fld	fs4,224(sp)
 152:	390b3b0b          	0x390b3b0b
 156:	0213490b          	0x213490b
 15a:	08000017          	auipc	zero,0x8000
 15e:	0034                	addi	a3,sp,8
 160:	0b3a0803          	lb	a6,179(s4)
 164:	0b390b3b          	0xb390b3b
 168:	1349                	addi	t1,t1,-14
 16a:	1702                	slli	a4,a4,0x20
 16c:	0000                	unimp
 16e:	8909                	andi	a0,a0,2
 170:	0182                	c.slli64	gp
 172:	1101                	addi	sp,sp,-32
 174:	3101                	jal	fffffd74 <stack_end+0x9efffc24>
 176:	00130113          	addi	sp,t1,1
 17a:	0a00                	addi	s0,sp,272
 17c:	828a                	mv	t0,sp
 17e:	0001                	nop
 180:	1802                	slli	a6,a6,0x20
 182:	4291                	li	t0,4
 184:	0018                	0x18
 186:	0b00                	addi	s0,sp,400
 188:	8289                	srli	a3,a3,0x2
 18a:	0101                	addi	sp,sp,0
 18c:	0111                	addi	sp,sp,4
 18e:	1331                	addi	t1,t1,-20
 190:	0000                	unimp
 192:	0f0c                	addi	a1,sp,912
 194:	0b00                	addi	s0,sp,400
 196:	0013490b          	0x13490b
 19a:	0d00                	addi	s0,sp,656
 19c:	002e                	c.slli	zero,0xb
 19e:	193c193f 0e030e6e 	0xe030e6e193c193f
 1a6:	0b3a                	slli	s6,s6,0xe
 1a8:	0b390b3b          	0xb390b3b
 1ac:	0000                	unimp
	...

Disassembly of section .debug_aranges:

00000000 <.debug_aranges>:
   0:	001c                	0x1c
   2:	0000                	unimp
   4:	0002                	c.slli64	zero
   6:	0000                	unimp
   8:	0000                	unimp
   a:	0004                	0x4
   c:	0000                	unimp
   e:	0000                	unimp
  10:	0000                	unimp
  12:	6100                	flw	fs0,0(a0)
  14:	0010                	0x10
	...
  1e:	0000                	unimp
  20:	001c                	0x1c
  22:	0000                	unimp
  24:	0002                	c.slli64	zero
  26:	0026                	c.slli	zero,0x9
  28:	0000                	unimp
  2a:	0004                	0x4
  2c:	0000                	unimp
  2e:	0000                	unimp
  30:	0010                	0x10
  32:	6100                	flw	fs0,0(a0)
  34:	006c                	addi	a1,sp,12
	...
  3e:	0000                	unimp
  40:	001c                	0x1c
  42:	0000                	unimp
  44:	0002                	c.slli64	zero
  46:	0194                	addi	a3,sp,192
  48:	0000                	unimp
  4a:	0004                	0x4
  4c:	0000                	unimp
  4e:	0000                	unimp
  50:	007c                	addi	a5,sp,12
  52:	6100                	flw	fs0,0(a0)
  54:	0094                	addi	a3,sp,64
	...

Disassembly of section .debug_str:

00000000 <.debug_str>:
   0:	3a45                	jal	fffff9b0 <stack_end+0x9efff860>
   2:	726f772f          	0x726f772f
   6:	30322f6b          	0x30322f6b
   a:	3232                	fld	ft4,296(sp)
   c:	396c612f          	0x396c612f
  10:	3030                	fld	fa2,96(s0)
  12:	2f30                	fld	fa2,88(a4)
  14:	642f7773          	csrrci	a4,0x642,30
  18:	6265                	lui	tp,0x19
  1a:	6775                	lui	a4,0x1d
  1c:	2f726567          	0x2f726567
  20:	6c61                	lui	s8,0x18
  22:	6f5f 6570 6f6e      	0x6f6e65706f5f
  28:	632f6463          	bltu	t5,s2,650 <_start-0x60fff9b0>
  2c:	72746e6f          	jal	t3,46f52 <_start-0x60fb90ae>
  30:	6269                	lui	tp,0x1a
  32:	616f6c2f          	0x616f6c2f
  36:	6564                	flw	fs1,76(a0)
  38:	7372                	flw	ft6,60(sp)
  3a:	616c662f          	0x616c662f
  3e:	652f6873          	csrrsi	a6,0x652,30
  42:	6d6d                	lui	s10,0x1b
  44:	77642f63          	0x77642f63
  48:	68736d63          	bltu	t1,t2,6e2 <_start-0x60fff91e>
  4c:	72732f63          	0x72732f63
  50:	6f622f63          	0x6f622f63
  54:	722f746f          	jal	s0,f7776 <_start-0x60f0888a>
  58:	7369                	lui	t1,0xffffa
  5a:	775c7663          	bgeu	s8,s5,7c6 <_start-0x60fff83a>
  5e:	6172                	flw	ft2,28(sp)
  60:	7070                	flw	fa2,100(s0)
  62:	7265                	lui	tp,0xffff9
  64:	532e                	lw	t1,232(sp)
  66:	4500                	lw	s0,8(a0)
  68:	5c3a                	lw	s8,172(sp)
  6a:	6b726f77          	0x6b726f77
  6e:	325c                	fld	fa5,160(a2)
  70:	3230                	fld	fa2,96(a2)
  72:	5c32                	lw	s8,44(sp)
  74:	6c61                	lui	s8,0x18
  76:	3039                	jal	fffff884 <stack_end+0x9efff734>
  78:	3030                	fld	fa2,96(s0)
  7a:	735c                	flw	fa5,36(a4)
  7c:	65645c77          	0x65645c77
  80:	7562                	flw	fa0,56(sp)
  82:	72656767          	0x72656767
  86:	615c                	flw	fa5,4(a0)
  88:	5f6c                	lw	a1,124(a4)
  8a:	6e65706f          	j	57770 <_start-0x60fa8890>
  8e:	5c64636f          	jal	t1,46654 <_start-0x60fb99ac>
  92:	746e6f63          	bltu	t3,t1,7f0 <_start-0x60fff810>
  96:	6972                	flw	fs2,28(sp)
  98:	5c62                	lw	s8,56(sp)
  9a:	6f6c                	flw	fa1,92(a4)
  9c:	6461                	lui	s0,0x18
  9e:	7265                	lui	tp,0xffff9
  a0:	6c665c73          	csrrwi	s8,0x6c6,12
  a4:	7361                	lui	t1,0xffff8
  a6:	5c68                	lw	a0,124(s0)
  a8:	6d65                	lui	s10,0x19
  aa:	636d                	lui	t1,0x1b
  ac:	645c                	flw	fa5,12(s0)
  ae:	736d6377          	0x736d6377
  b2:	6368                	flw	fa0,68(a4)
  b4:	4700                	lw	s0,8(a4)
  b6:	554e                	lw	a0,240(sp)
  b8:	4120                	lw	s0,64(a0)
  ba:	2e322053          	0x2e322053
  be:	312e3633          	0x312e3633
  c2:	6300                	flw	fs0,0(a4)
  c4:	7274                	flw	fa3,100(a2)
  c6:	5f6c                	lw	a1,124(a4)
  c8:	6162                	flw	ft2,24(sp)
  ca:	5f006573          	csrrsi	a0,0x5f0,0
  ce:	755f 6e69 3874      	0x38746e69755f
  d4:	745f 6500 6d6d      	0x6d6d6500745f
  da:	61775f63          	bge	a4,s7,6f8 <_start-0x60fff908>
  de:	7469                	lui	s0,0xffffa
  e0:	665f 6669 006f      	0x6f6669665f
  e6:	6e75                	lui	t3,0x1d
  e8:	6e676973          	csrrsi	s2,0x6e6,14
  ec:	6465                	lui	s0,0x19
  ee:	6320                	flw	fs0,64(a4)
  f0:	6168                	flw	fa0,68(a0)
  f2:	0072                	c.slli	zero,0x1c
  f4:	726f6873          	csrrsi	a6,0x726,30
  f8:	2074                	fld	fa3,192(s0)
  fa:	6e75                	lui	t3,0x1d
  fc:	6e676973          	csrrsi	s2,0x6e6,14
 100:	6465                	lui	s0,0x19
 102:	6920                	flw	fs0,80(a0)
 104:	746e                	flw	fs0,248(sp)
 106:	6400                	flw	fs0,8(s0)
 108:	5f656e6f          	jal	t3,566fe <_start-0x60fa9902>
 10c:	6c66                	flw	fs8,88(sp)
 10e:	6761                	lui	a4,0x18
 110:	7700                	flw	fs0,40(a4)
 112:	5f6b726f          	jal	tp,b7708 <_start-0x60f488f8>
 116:	7261                	lui	tp,0xffff8
 118:	6165                	addi	sp,sp,112
 11a:	735f 6174 7472      	0x74726174735f
 120:	5f00                	lw	s0,56(a4)
 122:	755f 6e69 3374      	0x33746e69755f
 128:	5f32                	lw	t5,44(sp)
 12a:	0074                	addi	a3,sp,12
 12c:	3a45                	jal	fffffadc <stack_end+0x9efff98c>
 12e:	726f772f          	0x726f772f
 132:	30322f6b          	0x30322f6b
 136:	3232                	fld	ft4,296(sp)
 138:	396c612f          	0x396c612f
 13c:	3030                	fld	fa2,96(s0)
 13e:	2f30                	fld	fa2,88(a4)
 140:	642f7773          	csrrci	a4,0x642,30
 144:	6265                	lui	tp,0x19
 146:	6775                	lui	a4,0x1d
 148:	2f726567          	0x2f726567
 14c:	6c61                	lui	s8,0x18
 14e:	6f5f 6570 6f6e      	0x6f6e65706f5f
 154:	632f6463          	bltu	t5,s2,77c <_start-0x60fff884>
 158:	72746e6f          	jal	t3,4707e <_start-0x60fb8f82>
 15c:	6269                	lui	tp,0x1a
 15e:	616f6c2f          	0x616f6c2f
 162:	6564                	flw	fs1,76(a0)
 164:	7372                	flw	ft6,60(sp)
 166:	616c662f          	0x616c662f
 16a:	652f6873          	csrrsi	a6,0x652,30
 16e:	6d6d                	lui	s10,0x1b
 170:	77642f63          	0x77642f63
 174:	68736d63          	bltu	t1,t2,80e <_start-0x60fff7f2>
 178:	72732f63          	0x72732f63
 17c:	77642f63          	0x77642f63
 180:	68736d63          	bltu	t1,t2,81a <_start-0x60fff7e6>
 184:	00632e63          	0x632e63
 188:	6e69                	lui	t3,0x1a
 18a:	5f74                	lw	a3,124(a4)
 18c:	6176                	flw	ft2,92(sp)
 18e:	006c                	addi	a1,sp,12
 190:	6f6c                	flw	fa1,92(a4)
 192:	676e                	flw	fa4,216(sp)
 194:	6c20                	flw	fs0,88(s0)
 196:	20676e6f          	jal	t3,7639c <_start-0x60f89c64>
 19a:	6e75                	lui	t3,0x1d
 19c:	6e676973          	csrrsi	s2,0x6e6,14
 1a0:	6465                	lui	s0,0x19
 1a2:	6920                	flw	fs0,80(a0)
 1a4:	746e                	flw	fs0,248(sp)
 1a6:	6500                	flw	fs0,8(a0)
 1a8:	6d6d                	lui	s10,0x1b
 1aa:	72775f63          	bge	a4,t2,8e8 <_start-0x60fff718>
 1ae:	7469                	lui	s0,0xffffa
 1b0:	5f65                	li	t5,-7
 1b2:	6c62                	flw	fs8,24(sp)
 1b4:	006b636f          	jal	t1,b61ba <_start-0x60f49e46>
 1b8:	20554e47          	fmsub.s	ft8,fa0,ft5,ft4,rmm
 1bc:	20373143          	fmadd.s	ft2,fa4,ft3,ft4,rup
 1c0:	3031                	jal	fffff9cc <stack_end+0x9efff87c>
 1c2:	322e                	fld	ft4,232(sp)
 1c4:	302e                	fld	ft0,232(sp)
 1c6:	2d20                	fld	fs0,88(a0)
 1c8:	616d                	addi	sp,sp,240
 1ca:	6372                	flw	ft6,28(sp)
 1cc:	3d68                	fld	fa0,248(a0)
 1ce:	7672                	flw	fa2,60(sp)
 1d0:	20653233          	0x20653233
 1d4:	6d2d                	lui	s10,0xb
 1d6:	6261                	lui	tp,0x18
 1d8:	3d69                	jal	72 <_start-0x60ffff8e>
 1da:	6c69                	lui	s8,0x1a
 1dc:	3370                	fld	fa2,224(a4)
 1de:	6532                	flw	fa0,12(sp)
 1e0:	2d20                	fld	fs0,88(a0)
 1e2:	746d                	lui	s0,0xffffb
 1e4:	6e75                	lui	t3,0x1d
 1e6:	3d65                	jal	9e <_start-0x60ffff62>
 1e8:	6f72                	flw	ft10,28(sp)
 1ea:	74656b63          	bltu	a0,t1,940 <_start-0x60fff6c0>
 1ee:	2d20                	fld	fs0,88(a0)
 1f0:	616d                	addi	sp,sp,240
 1f2:	6372                	flw	ft6,28(sp)
 1f4:	3d68                	fld	fa0,248(a0)
 1f6:	7672                	flw	fa2,60(sp)
 1f8:	20653233          	0x20653233
 1fc:	672d                	lui	a4,0xb
 1fe:	2d20                	fld	fs0,88(a0)
 200:	2d20734f          	fnmadd.h	ft6,ft0,fs2,ft5
 204:	6e66                	flw	ft8,88(sp)
 206:	75622d6f          	jal	s10,2295c <_start-0x60fdd6a4>
 20a:	6c69                	lui	s8,0x1a
 20c:	6974                	flw	fa3,84(a0)
 20e:	206e                	fld	ft0,216(sp)
 210:	662d                	lui	a2,0xb
 212:	4950                	lw	a2,20(a0)
 214:	6f6c0043          	fmadd.q	ft0,fs8,fs6,fa3,rne
 218:	676e                	flw	fa4,216(sp)
 21a:	6c20                	flw	fs0,88(s0)
 21c:	20676e6f          	jal	t3,76422 <_start-0x60f89bde>
 220:	6e69                	lui	t3,0x1a
 222:	0074                	addi	a3,sp,12
 224:	7366666f          	jal	a2,6695a <_start-0x60f996a6>
 228:	7465                	lui	s0,0xffff9
 22a:	7300                	flw	fs0,32(a4)
 22c:	6f68                	flw	fa0,92(a4)
 22e:	7472                	flw	fs0,60(sp)
 230:	6920                	flw	fs0,80(a0)
 232:	746e                	flw	fs0,248(sp)
 234:	6200                	flw	fs0,0(a2)
 236:	6675                	lui	a2,0x1d
 238:	6566                	flw	fa0,88(sp)
 23a:	0072                	c.slli	zero,0x1c
 23c:	6b726f77          	0x6b726f77
 240:	615f 6572 5f61      	0x5f616572615f
 246:	6e65                	lui	t3,0x19
 248:	0064                	addi	s1,sp,12
 24a:	3a45                	jal	fffffbfa <stack_end+0x9efffaaa>
 24c:	726f772f          	0x726f772f
 250:	30322f6b          	0x30322f6b
 254:	3232                	fld	ft4,296(sp)
 256:	396c612f          	0x396c612f
 25a:	3030                	fld	fa2,96(s0)
 25c:	2f30                	fld	fa2,88(a4)
 25e:	642f7773          	csrrci	a4,0x642,30
 262:	6265                	lui	tp,0x19
 264:	6775                	lui	a4,0x1d
 266:	2f726567          	0x2f726567
 26a:	6c61                	lui	s8,0x18
 26c:	6f5f 6570 6f6e      	0x6f6e65706f5f
 272:	632f6463          	bltu	t5,s2,89a <_start-0x60fff766>
 276:	72746e6f          	jal	t3,4719c <_start-0x60fb8e64>
 27a:	6269                	lui	tp,0x1a
 27c:	616f6c2f          	0x616f6c2f
 280:	6564                	flw	fs1,76(a0)
 282:	7372                	flw	ft6,60(sp)
 284:	616c662f          	0x616c662f
 288:	652f6873          	csrrsi	a6,0x652,30
 28c:	6d6d                	lui	s10,0x1b
 28e:	77642f63          	0x77642f63
 292:	68736d63          	bltu	t1,t2,92c <_start-0x60fff6d4>
 296:	72732f63          	0x72732f63
 29a:	77642f63          	0x77642f63
 29e:	68736d63          	bltu	t1,t2,938 <_start-0x60fff6c8>
 2a2:	73615f63          	bge	sp,s6,9e0 <_start-0x60fff620>
 2a6:	6e79                	lui	t3,0x1e
 2a8:	00632e63          	0x632e63
 2ac:	6d65                	lui	s10,0x19
 2ae:	636d                	lui	t1,0x1b
 2b0:	645f 6377 736d      	0x736d6377645f
 2b6:	6368                	flw	fa0,68(a4)
 2b8:	6200                	flw	fs0,0(a2)
 2ba:	6f6c                	flw	fa1,92(a4)
 2bc:	635f6b63          	bltu	t5,s5,8f2 <_start-0x60fff70e>
 2c0:	746e                	flw	fs0,248(sp)
	...

Disassembly of section .debug_loc:

00000000 <.debug_loc>:
   0:	0014                	0x14
   2:	0000                	unimp
   4:	003c                	addi	a5,sp,8
   6:	0000                	unimp
   8:	0001                	nop
   a:	3c5c                	fld	fa5,184(s0)
   c:	0000                	unimp
   e:	4c00                	lw	s0,24(s0)
  10:	0000                	unimp
  12:	0400                	addi	s0,sp,512
  14:	7f00                	flw	fs0,56(a4)
  16:	7c80                	flw	fs0,56(s1)
  18:	4c9f 0000 6c00      	0x6c0000004c9f
  1e:	0000                	unimp
  20:	0400                	addi	s0,sp,512
  22:	f300                	fsw	fs0,32(a4)
  24:	5c01                	li	s8,-32
  26:	009f 0000 0000      	0x9f
  2c:	0000                	unimp
  2e:	2800                	fld	fs0,16(s0)
  30:	0000                	unimp
  32:	3400                	fld	fs0,40(s0)
  34:	0000                	unimp
  36:	0100                	addi	s0,sp,128
  38:	5f00                	lw	s0,56(a4)
  3a:	0050                	addi	a2,sp,4
  3c:	0000                	unimp
  3e:	0064                	addi	s1,sp,12
  40:	0000                	unimp
  42:	0001                	nop
  44:	005f 0000 0000      	0x5f
  4a:	0000                	unimp
  4c:	2800                	fld	fs0,16(s0)
  4e:	0000                	unimp
  50:	3400                	fld	fs0,40(s0)
  52:	0000                	unimp
  54:	0700                	addi	s0,sp,896
  56:	7f00                	flw	fs0,56(a4)
  58:	3400                	fld	fs0,40(s0)
  5a:	3125                	jal	fffffc82 <stack_end+0x9efffb32>
  5c:	9f1a                	add	t5,t5,t1
  5e:	0050                	addi	a2,sp,4
  60:	0000                	unimp
  62:	0064                	addi	s1,sp,12
  64:	0000                	unimp
  66:	007f0007          	0x7f0007
  6a:	2531                	jal	676 <_start-0x60fff98a>
  6c:	1a31                	addi	s4,s4,-20
  6e:	009f 0000 0000      	0x9f
  74:	0000                	unimp
  76:	0000                	unimp
  78:	0000                	unimp
  7a:	0400                	addi	s0,sp,512
  7c:	0000                	unimp
  7e:	0100                	addi	s0,sp,128
  80:	5a00                	lw	s0,48(a2)
  82:	0004                	0x4
  84:	0000                	unimp
  86:	0014                	0x14
  88:	0000                	unimp
  8a:	0001                	nop
  8c:	005f 0000 0000      	0x5f
  92:	0000                	unimp
  94:	0400                	addi	s0,sp,512
  96:	0000                	unimp
  98:	0800                	addi	s0,sp,16
  9a:	0000                	unimp
  9c:	0200                	addi	s0,sp,256
  9e:	3000                	fld	fs0,32(s0)
  a0:	089f 0000 1400      	0x14000000089f
  a6:	0000                	unimp
  a8:	0100                	addi	s0,sp,128
  aa:	5e00                	lw	s0,56(a2)
	...
  b4:	0004                	0x4
  b6:	0000                	unimp
  b8:	000c                	0xc
  ba:	0000                	unimp
  bc:	0002                	c.slli64	zero
  be:	9f30                	0x9f30
  c0:	000c                	0xc
  c2:	0000                	unimp
  c4:	0014                	0x14
  c6:	0000                	unimp
  c8:	0001                	nop
  ca:	005a                	c.slli	zero,0x16
	...
  d4:	0000                	unimp
  d6:	2400                	fld	fs0,8(s0)
  d8:	0000                	unimp
  da:	0100                	addi	s0,sp,128
  dc:	5a00                	lw	s0,48(a2)
  de:	0024                	addi	s1,sp,8
  e0:	0000                	unimp
  e2:	0038                	addi	a4,sp,8
  e4:	0000                	unimp
  e6:	0002                	c.slli64	zero
  e8:	0072                	c.slli	zero,0x1c
  ea:	0038                	addi	a4,sp,8
  ec:	0000                	unimp
  ee:	003c                	addi	a5,sp,8
  f0:	0000                	unimp
  f2:	0002                	c.slli64	zero
  f4:	6072                	flw	ft0,28(sp)
  f6:	003c                	addi	a5,sp,8
  f8:	0000                	unimp
  fa:	0094                	addi	a3,sp,64
  fc:	0000                	unimp
  fe:	0002                	c.slli64	zero
 100:	0072                	c.slli	zero,0x1c
	...
 10e:	0024                	addi	s1,sp,8
 110:	0000                	unimp
 112:	0001                	nop
 114:	0000245b          	0x245b
 118:	5300                	lw	s0,32(a4)
 11a:	0000                	unimp
 11c:	0100                	addi	s0,sp,128
 11e:	5600                	lw	s0,40(a2)
 120:	00000053          	fadd.s	ft0,ft0,ft0,rne
 124:	0090                	addi	a2,sp,64
 126:	0000                	unimp
 128:	0002                	c.slli64	zero
 12a:	6891                	lui	a7,0x4
 12c:	0090                	addi	a2,sp,64
 12e:	0000                	unimp
 130:	0094                	addi	a3,sp,64
 132:	0000                	unimp
 134:	0001                	nop
 136:	0056                	c.slli	zero,0x15
	...
 140:	0000                	unimp
 142:	2400                	fld	fs0,8(s0)
 144:	0000                	unimp
 146:	0100                	addi	s0,sp,128
 148:	5c00                	lw	s0,56(s0)
 14a:	0024                	addi	s1,sp,8
 14c:	0000                	unimp
 14e:	0094                	addi	a3,sp,64
 150:	0000                	unimp
 152:	0004                	0x4
 154:	9f5c01f3          	0x9f5c01f3
	...
 164:	0024                	addi	s1,sp,8
 166:	0000                	unimp
 168:	0001                	nop
 16a:	245d                	jal	410 <_start-0x60fffbf0>
 16c:	0000                	unimp
 16e:	9400                	0x9400
 170:	0000                	unimp
 172:	0400                	addi	s0,sp,512
 174:	f300                	fsw	fs0,32(a4)
 176:	5d01                	li	s10,-32
 178:	009f 0000 0000      	0x9f
 17e:	0000                	unimp
 180:	0000                	unimp
 182:	0000                	unimp
 184:	2400                	fld	fs0,8(s0)
 186:	0000                	unimp
 188:	0100                	addi	s0,sp,128
 18a:	5e00                	lw	s0,56(a2)
 18c:	0024                	addi	s1,sp,8
 18e:	0000                	unimp
 190:	0030                	addi	a2,sp,8
 192:	0000                	unimp
 194:	0001                	nop
 196:	3c58                	fld	fa4,184(s0)
 198:	0000                	unimp
 19a:	6800                	flw	fs0,16(s0)
 19c:	0000                	unimp
 19e:	0100                	addi	s0,sp,128
 1a0:	5800                	lw	s0,48(s0)
 1a2:	0068                	addi	a0,sp,12
 1a4:	0000                	unimp
 1a6:	0000006b          	0x6b
 1aa:	0001                	nop
 1ac:	00006b5b          	0x6b5b
 1b0:	6c00                	flw	fs0,24(s0)
 1b2:	0000                	unimp
 1b4:	0400                	addi	s0,sp,512
 1b6:	7800                	flw	fs0,48(s0)
 1b8:	7c80                	flw	fs0,56(s1)
 1ba:	6c9f 0000 9400      	0x940000006c9f
 1c0:	0000                	unimp
 1c2:	0100                	addi	s0,sp,128
 1c4:	5800                	lw	s0,48(s0)
	...
 1ce:	0058                	addi	a4,sp,4
 1d0:	0000                	unimp
 1d2:	0074                	addi	a3,sp,12
 1d4:	0000                	unimp
 1d6:	0001                	nop
 1d8:	7459                	lui	s0,0xffff6
 1da:	0000                	unimp
 1dc:	9400                	0x9400
 1de:	0000                	unimp
 1e0:	0100                	addi	s0,sp,128
 1e2:	5f00                	lw	s0,56(a4)
	...

Disassembly of section .debug_frame:

00000000 <.debug_frame>:
   0:	000c                	0xc
   2:	0000                	unimp
   4:	ffffffff          	0xffffffff
   8:	7c010003          	lb	zero,1984(sp)
   c:	0d01                	addi	s10,s10,0
   e:	0002                	c.slli64	zero
  10:	000c                	0xc
  12:	0000                	unimp
  14:	0000                	unimp
  16:	0000                	unimp
  18:	0010                	0x10
  1a:	6100                	flw	fs0,0(a0)
  1c:	0014                	0x14
  1e:	0000                	unimp
  20:	000c                	0xc
  22:	0000                	unimp
  24:	0000                	unimp
  26:	0000                	unimp
  28:	0024                	addi	s1,sp,8
  2a:	6100                	flw	fs0,0(a0)
  2c:	0058                	addi	a4,sp,4
  2e:	0000                	unimp
  30:	000c                	0xc
  32:	0000                	unimp
  34:	ffffffff          	0xffffffff
  38:	7c010003          	lb	zero,1984(sp)
  3c:	0d01                	addi	s10,s10,0
  3e:	0002                	c.slli64	zero
  40:	0024                	addi	s1,sp,8
  42:	0000                	unimp
  44:	0030                	addi	a2,sp,8
  46:	0000                	unimp
  48:	007c                	addi	a5,sp,12
  4a:	6100                	flw	fs0,0(a0)
  4c:	0094                	addi	a3,sp,64
  4e:	0000                	unimp
  50:	0e44                	addi	s1,sp,788
  52:	4c20                	lw	s0,88(s0)
  54:	0288                	addi	a0,sp,320
  56:	0181                	addi	gp,gp,0
  58:	0389                	addi	t2,t2,2
  5a:	0a5c                	addi	a5,sp,276
  5c:	44c1                	li	s1,16
  5e:	44c8                	lw	a0,12(s1)
  60:	44c9                	li	s1,18
  62:	000e                	c.slli	zero,0x3
  64:	0b44                	addi	s1,sp,404
	...
