
E:/work/2022/al9000/sw/debugger/al_openocd/contrib/loaders/flash/emmc/dwcmshc/build/emmc_crc_riscv_64.elf:     file format elf64-littleriscv


Disassembly of section .text:

0000000061000000 <_start>:
    61000000:	00001117          	auipc	sp,0x1
    61000004:	86010113          	addi	sp,sp,-1952 # 61000860 <out_buf>
    61000008:	144000ef          	jal	ra,6100014c <emmc_dwcmshc>
    6100000c:	00100073          	ebreak

0000000061000010 <emmc_wait_fifo>:
    61000010:	00050713          	mv	a4,a0
    61000014:	00072683          	lw	a3,0(a4)
    61000018:	00472783          	lw	a5,4(a4)
    6100001c:	0006869b          	sext.w	a3,a3
    61000020:	0007851b          	sext.w	a0,a5
    61000024:	fea688e3          	beq	a3,a0,61000014 <emmc_wait_fifo+0x4>
    61000028:	00008067          	ret

000000006100002c <emmc_poll_int>:
    6100002c:	00100693          	li	a3,1
    61000030:	00b696bb          	sllw	a3,a3,a1
    61000034:	03052703          	lw	a4,48(a0)
    61000038:	0007071b          	sext.w	a4,a4
    6100003c:	00e6f7b3          	and	a5,a3,a4
    61000040:	00070613          	mv	a2,a4
    61000044:	fe0788e3          	beqz	a5,61000034 <emmc_poll_int+0x8>
    61000048:	0107571b          	srliw	a4,a4,0x10
    6100004c:	fe0714e3          	bnez	a4,61000034 <emmc_poll_int+0x8>
    61000050:	00100793          	li	a5,1
    61000054:	00b797bb          	sllw	a5,a5,a1
    61000058:	00c7e7b3          	or	a5,a5,a2
    6100005c:	0007879b          	sext.w	a5,a5
    61000060:	02f52823          	sw	a5,48(a0)
    61000064:	00008067          	ret

0000000061000068 <emmc_write_block>:
    61000068:	183a07b7          	lui	a5,0x183a0
    6100006c:	00b52423          	sw	a1,8(a0)
    61000070:	08278793          	addi	a5,a5,130 # 183a0082 <_start-0x48c5ff7e>
    61000074:	00f52623          	sw	a5,12(a0)
    61000078:	03052783          	lw	a5,48(a0)
    6100007c:	0007871b          	sext.w	a4,a5
    61000080:	0107f793          	andi	a5,a5,16
    61000084:	fe078ae3          	beqz	a5,61000078 <emmc_write_block+0x10>
    61000088:	0107579b          	srliw	a5,a4,0x10
    6100008c:	fe0796e3          	bnez	a5,61000078 <emmc_write_block+0x10>
    61000090:	20060793          	addi	a5,a2,512
    61000094:	00062703          	lw	a4,0(a2)
    61000098:	00460613          	addi	a2,a2,4
    6100009c:	02e52023          	sw	a4,32(a0)
    610000a0:	fec79ae3          	bne	a5,a2,61000094 <emmc_write_block+0x2c>
    610000a4:	03052783          	lw	a5,48(a0)
    610000a8:	0007879b          	sext.w	a5,a5
    610000ac:	0027f693          	andi	a3,a5,2
    610000b0:	00078713          	mv	a4,a5
    610000b4:	fe0688e3          	beqz	a3,610000a4 <emmc_write_block+0x3c>
    610000b8:	0107d79b          	srliw	a5,a5,0x10
    610000bc:	fe0794e3          	bnez	a5,610000a4 <emmc_write_block+0x3c>
    610000c0:	00276793          	ori	a5,a4,2
    610000c4:	0007879b          	sext.w	a5,a5
    610000c8:	02f52823          	sw	a5,48(a0)
    610000cc:	00008067          	ret

00000000610000d0 <emmc_read_block>:
    610000d0:	fe010113          	addi	sp,sp,-32
    610000d4:	00813823          	sd	s0,16(sp)
    610000d8:	00913423          	sd	s1,8(sp)
    610000dc:	01213023          	sd	s2,0(sp)
    610000e0:	00113c23          	sd	ra,24(sp)
    610000e4:	113a07b7          	lui	a5,0x113a0
    610000e8:	09278793          	addi	a5,a5,146 # 113a0092 <_start-0x4fc5ff6e>
    610000ec:	00c52423          	sw	a2,8(a0)
    610000f0:	00f52623          	sw	a5,12(a0)
    610000f4:	00058913          	mv	s2,a1
    610000f8:	00500593          	li	a1,5
    610000fc:	00050413          	mv	s0,a0
    61000100:	00068493          	mv	s1,a3
    61000104:	f29ff0ef          	jal	ra,6100002c <emmc_poll_int>
    61000108:	00000793          	li	a5,0
    6100010c:	0007871b          	sext.w	a4,a5
    61000110:	02976263          	bltu	a4,s1,61000134 <emmc_read_block+0x64>
    61000114:	00040513          	mv	a0,s0
    61000118:	01013403          	ld	s0,16(sp)
    6100011c:	01813083          	ld	ra,24(sp)
    61000120:	00813483          	ld	s1,8(sp)
    61000124:	00013903          	ld	s2,0(sp)
    61000128:	00100593          	li	a1,1
    6100012c:	02010113          	addi	sp,sp,32
    61000130:	efdff06f          	j	6100002c <emmc_poll_int>
    61000134:	02042683          	lw	a3,32(s0)
    61000138:	00279713          	slli	a4,a5,0x2
    6100013c:	00e90733          	add	a4,s2,a4
    61000140:	00d72023          	sw	a3,0(a4)
    61000144:	00178793          	addi	a5,a5,1
    61000148:	fc5ff06f          	j	6100010c <emmc_read_block+0x3c>

000000006100014c <emmc_dwcmshc>:
    6100014c:	fa010113          	addi	sp,sp,-96
    61000150:	04813823          	sd	s0,80(sp)
    61000154:	04913423          	sd	s1,72(sp)
    61000158:	03313c23          	sd	s3,56(sp)
    6100015c:	03413823          	sd	s4,48(sp)
    61000160:	03513423          	sd	s5,40(sp)
    61000164:	03613023          	sd	s6,32(sp)
    61000168:	01713c23          	sd	s7,24(sp)
    6100016c:	01813823          	sd	s8,16(sp)
    61000170:	01913423          	sd	s9,8(sp)
    61000174:	01a13023          	sd	s10,0(sp)
    61000178:	04113c23          	sd	ra,88(sp)
    6100017c:	05213023          	sd	s2,64(sp)
    61000180:	00050a93          	mv	s5,a0
    61000184:	00058993          	mv	s3,a1
    61000188:	00060493          	mv	s1,a2
    6100018c:	00068a13          	mv	s4,a3
    61000190:	4025db13          	srai	s6,a1,0x2
    61000194:	fff00413          	li	s0,-1
    61000198:	00058b93          	mv	s7,a1
    6100019c:	00000c17          	auipc	s8,0x0
    610001a0:	6c4c0c13          	addi	s8,s8,1732 # 61000860 <out_buf>
    610001a4:	fff00c93          	li	s9,-1
    610001a8:	00000d17          	auipc	s10,0x0
    610001ac:	0b8d0d13          	addi	s10,s10,184 # 61000260 <crc32_table>
    610001b0:	04904063          	bgtz	s1,610001f0 <emmc_dwcmshc+0xa4>
    610001b4:	05813083          	ld	ra,88(sp)
    610001b8:	00040513          	mv	a0,s0
    610001bc:	05013403          	ld	s0,80(sp)
    610001c0:	04813483          	ld	s1,72(sp)
    610001c4:	04013903          	ld	s2,64(sp)
    610001c8:	03813983          	ld	s3,56(sp)
    610001cc:	03013a03          	ld	s4,48(sp)
    610001d0:	02813a83          	ld	s5,40(sp)
    610001d4:	02013b03          	ld	s6,32(sp)
    610001d8:	01813b83          	ld	s7,24(sp)
    610001dc:	01013c03          	ld	s8,16(sp)
    610001e0:	00813c83          	ld	s9,8(sp)
    610001e4:	00013d03          	ld	s10,0(sp)
    610001e8:	06010113          	addi	sp,sp,96
    610001ec:	00008067          	ret
    610001f0:	0004891b          	sext.w	s2,s1
    610001f4:	0099d463          	bge	s3,s1,610001fc <emmc_dwcmshc+0xb0>
    610001f8:	000b891b          	sext.w	s2,s7
    610001fc:	000a0613          	mv	a2,s4
    61000200:	000b0693          	mv	a3,s6
    61000204:	000c0593          	mv	a1,s8
    61000208:	000a8513          	mv	a0,s5
    6100020c:	ec5ff0ef          	jal	ra,610000d0 <emmc_read_block>
    61000210:	00000617          	auipc	a2,0x0
    61000214:	65060613          	addi	a2,a2,1616 # 61000860 <out_buf>
    61000218:	00090713          	mv	a4,s2
    6100021c:	fff7071b          	addiw	a4,a4,-1
    61000220:	01971863          	bne	a4,s9,61000230 <emmc_dwcmshc+0xe4>
    61000224:	412484bb          	subw	s1,s1,s2
    61000228:	01490a3b          	addw	s4,s2,s4
    6100022c:	f85ff06f          	j	610001b0 <emmc_dwcmshc+0x64>
    61000230:	0084169b          	slliw	a3,s0,0x8
    61000234:	0184579b          	srliw	a5,s0,0x18
    61000238:	00064403          	lbu	s0,0(a2)
    6100023c:	00160613          	addi	a2,a2,1
    61000240:	0087c7b3          	xor	a5,a5,s0
    61000244:	02079793          	slli	a5,a5,0x20
    61000248:	01e7d793          	srli	a5,a5,0x1e
    6100024c:	00fd07b3          	add	a5,s10,a5
    61000250:	0007a403          	lw	s0,0(a5)
    61000254:	00d44433          	xor	s0,s0,a3
    61000258:	0004041b          	sext.w	s0,s0
    6100025c:	fc1ff06f          	j	6100021c <emmc_dwcmshc+0xd0>

Disassembly of section .rodata:

0000000061000260 <crc32_table>:
    61000260:	0000                	unimp
    61000262:	0000                	unimp
    61000264:	04c11db7          	lui	s11,0x4c11
    61000268:	3b6e                	fld	fs6,248(sp)
    6100026a:	0982                	c.slli64	s3
    6100026c:	26d9                	addiw	a3,a3,22
    6100026e:	76dc0d43          	fmadd.q	fs10,fs8,fa3,fa4,rne
    61000272:	1304                	addi	s1,sp,416
    61000274:	17c56b6b          	0x17c56b6b
    61000278:	4db2                	lw	s11,12(sp)
    6100027a:	1a86                	slli	s5,s5,0x21
    6100027c:	5005                	c.li	zero,-31
    6100027e:	edb81e47          	fmsub.h	ft8,fa6,fs11,ft9,rtz
    61000282:	2608                	fld	fa0,8(a2)
    61000284:	22c9f00f          	0x22c9f00f
    61000288:	d6d6                	sw	s5,108(sp)
    6100028a:	2f8a                	fld	ft11,128(sp)
    6100028c:	cb61                	beqz	a4,6100035c <crc32_table+0xfc>
    6100028e:	9b642b4b          	fnmsub.d	fs6,fs0,fs6,fs3,rdn
    61000292:	350c                	fld	fa1,40(a0)
    61000294:	31cd86d3          	0x31cd86d3
    61000298:	a00a                	fsd	ft2,0(sp)
    6100029a:	3c8e                	fld	fs9,224(sp)
    6100029c:	bdbd                	j	6100011a <emmc_read_block+0x4a>
    6100029e:	db70384f          	fnmadd.d	fa6,ft0,fs7,fs11,rup
    610002a2:	4c11                	li	s8,4
    610002a4:	48d0c6c7          	fmsub.s	fa3,ft1,fa3,fs1,rmm
    610002a8:	e01e                	sd	t2,0(sp)
    610002aa:	fda94593          	xori	a1,s2,-38
    610002ae:	4152                	lw	sp,20(sp)
    610002b0:	adac                	fsd	fa1,88(a1)
    610002b2:	5f15                	li	t5,-27
    610002b4:	5bd4b01b          	0x5bd4b01b
    610002b8:	96c2                	add	a3,a3,a6
    610002ba:	8b755697          	auipc	a3,0x8b755
    610002be:	5256                	lw	tp,116(sp)
    610002c0:	36c8                	fld	fa0,168(a3)
    610002c2:	6a19                	lui	s4,0x6
    610002c4:	6ed82b7f          	0x6ed82b7f
    610002c8:	0da6                	slli	s11,s11,0x9
    610002ca:	1011639b          	0x1011639b
    610002ce:	675a                	ld	a4,400(sp)
    610002d0:	4014                	lw	a3,0(s0)
    610002d2:	791d                	lui	s2,0xfffe7
    610002d4:	7ddc5da3          	0x7ddc5da3
    610002d8:	7b7a                	ld	s6,440(sp)
    610002da:	709f 66cd 745e      	0x745e66cd709f
    610002e0:	b6e0                	fsd	fs0,232(a3)
    610002e2:	ab579823          	sh	s5,-1360(a5)
    610002e6:	9ce2                	add	s9,s9,s8
    610002e8:	8d8e                	mv	s11,gp
    610002ea:	91a1                	srli	a1,a1,0x28
    610002ec:	9039                	srli	s0,s0,0x2e
    610002ee:	9560                	0x9560
    610002f0:	c03c                	sw	a5,64(s0)
    610002f2:	dd8b8b27          	0xdd8b8b27
    610002f6:	8fe6                	mv	t6,s9
    610002f8:	fb52                	sd	s4,432(sp)
    610002fa:	82a5                	srli	a3,a3,0x9
    610002fc:	e6e5                	bnez	a3,610003e4 <crc32_table+0x184>
    610002fe:	8664                	0x8664
    61000300:	5b58                	lw	a4,52(a4)
    61000302:	46efbe2b          	0x46efbe2b
    61000306:	baea                	fsd	fs10,368(sp)
    61000308:	6036                	0x6036
    6100030a:	b7a9                	j	61000254 <emmc_dwcmshc+0x108>
    6100030c:	7d81                	lui	s11,0xfffe0
    6100030e:	b368                	fsd	fa0,224(a4)
    61000310:	2d84                	fld	fs1,24(a1)
    61000312:	3033ad2f          	0x3033ad2f
    61000316:	a9ee                	fsd	fs11,208(sp)
    61000318:	16ea                	slli	a3,a3,0x3a
    6100031a:	a4ad                	j	61000584 <crc32_table+0x324>
    6100031c:	0b5d                	addi	s6,s6,23
    6100031e:	a06c                	fsd	fa1,192(s0)
    61000320:	6d90                	ld	a2,24(a1)
    61000322:	d432                	sw	a2,40(sp)
    61000324:	d0f37027          	0xd0f37027
    61000328:	56fe                	lw	a3,252(sp)
    6100032a:	ddb0                	sw	a2,120(a1)
    6100032c:	4b49                	li	s6,18
    6100032e:	d971                	beqz	a0,61000302 <crc32_table+0xa2>
    61000330:	1b4c                	addi	a1,sp,436
    61000332:	c736                	sw	a3,140(sp)
    61000334:	c3f706fb          	0xc3f706fb
    61000338:	2022                	fld	ft0,8(sp)
    6100033a:	ceb4                	sw	a3,88(a3)
    6100033c:	3d95                	addiw	s11,s11,-27
    6100033e:	ca75                	beqz	a2,61000432 <crc32_table+0x1d2>
    61000340:	8028                	0x8028
    61000342:	f23a                	sd	a4,288(sp)
    61000344:	9d9f f6fb bb46      	0xbb46f6fb9d9f
    6100034a:	fbb8                	sd	a4,112(a5)
    6100034c:	a6f1                	j	61000718 <stack+0xb8>
    6100034e:	ff79                	bnez	a4,6100032c <crc32_table+0xcc>
    61000350:	f6f4                	sd	a3,232(a3)
    61000352:	e13e                	sd	a5,128(sp)
    61000354:	e5ffeb43          	fmadd.h	fs6,ft11,ft11,ft8,unknown
    61000358:	cd9a                	sw	t1,216(sp)
    6100035a:	e8bc                	sd	a5,80(s1)
    6100035c:	d02d                	beqz	s0,610002be <crc32_table+0x5e>
    6100035e:	ec7d                	bnez	s0,6100045c <crc32_table+0x1fc>
    61000360:	34867077          	0x34867077
    61000364:	6dc0                	ld	s0,152(a1)
    61000366:	4b193047          	fmsub.d	ft0,fs2,fa7,fs1,rup
    6100036a:	3d04                	fld	fs1,56(a0)
    6100036c:	56ae                	lw	a3,232(sp)
    6100036e:	39c5                	addiw	s3,s3,-15
    61000370:	278206ab          	0x278206ab
    61000374:	1b1c                	addi	a5,sp,432
    61000376:	3dc52343          	fmadd.h	ft6,fa0,ft8,ft7,rdn
    6100037a:	2e00                	fld	fs0,24(a2)
    6100037c:	2072                	fld	ft0,280(sp)
    6100037e:	2ac1                	addiw	s5,s5,16
    61000380:	128e9dcf          	fnmadd.d	fs11,ft9,fs0,ft2,rtz
    61000384:	8078                	0x8078
    61000386:	a6a1164f          	fnmadd.q	fa2,ft2,fa0,fs4,rtz
    6100038a:	1b0c                	addi	a1,sp,432
    6100038c:	bb16                	fsd	ft5,432(sp)
    6100038e:	1fcd                	addi	t6,t6,-13
    61000390:	018aeb13          	ori	s6,s5,24
    61000394:	f6a4                	sd	s1,104(a3)
    61000396:	d07d054b          	fnmsub.s	fa0,fs10,ft7,fs10,rne
    6100039a:	0808                	addi	a0,sp,16
    6100039c:	cdca                	sw	s2,216(sp)
    6100039e:	0cc9                	addi	s9,s9,18
    610003a0:	7897ab07          	flw	fs6,1929(a5)
    610003a4:	b6b0                	fsd	fa2,104(a3)
    610003a6:	7c56                	ld	s8,368(sp)
    610003a8:	9069                	srli	s0,s0,0x3a
    610003aa:	7115                	addi	sp,sp,-224
    610003ac:	8dde                	mv	s11,s7
    610003ae:	75d4                	ld	a3,168(a1)
    610003b0:	6b93dddb          	0x6b93dddb
    610003b4:	c06c                	sw	a1,68(s0)
    610003b6:	6f52                	ld	t5,272(sp)
    610003b8:	e6b5                	bnez	a3,61000424 <crc32_table+0x1c4>
    610003ba:	6211                	lui	tp,0x4
    610003bc:	fb02                	sd	zero,432(sp)
    610003be:	66d0                	ld	a2,136(a3)
    610003c0:	5e9f46bf 5a5e5b08 	0x5a5e5b085e9f46bf
    610003c8:	7dd1                	lui	s11,0xffff4
    610003ca:	571d                	li	a4,-25
    610003cc:	6066                	0x6066
    610003ce:	53dc                	lw	a5,36(a5)
    610003d0:	4d9b3063          	0x4d9b3063
    610003d4:	2dd4                	fld	fa3,152(a1)
    610003d6:	495a                	lw	s2,148(sp)
    610003d8:	0b0d                	addi	s6,s6,3
    610003da:	4419                	li	s0,6
    610003dc:	16ba                	slli	a3,a3,0x2e
    610003de:	40d8                	lw	a4,4(s1)
    610003e0:	aca5c697          	auipc	a3,0xaca5c
    610003e4:	db20                	sw	s0,112(a4)
    610003e6:	a864                	fsd	fs1,208(s0)
    610003e8:	fdf9                	bnez	a1,610003c6 <crc32_table+0x166>
    610003ea:	e04ea527          	fsw	ft4,-502(t4)
    610003ee:	a1e6                	fsd	fs9,192(sp)
    610003f0:	bfa1b04b          	fnmsub.q	ft0,ft3,fs10,fs7,rup
    610003f4:	adfc                	fsd	fa5,216(a1)
    610003f6:	bb60                	fsd	fs0,240(a4)
    610003f8:	8b25                	andi	a4,a4,9
    610003fa:	9692b623          	sd	s1,-1684(t0)
    610003fe:	b2e2                	fsd	fs8,352(sp)
    61000400:	8aad2b2f          	0x8aad2b2f
    61000404:	3698                	fld	fa4,40(a3)
    61000406:	8e6c                	0x8e6c
    61000408:	1041                	c.nop	-16
    6100040a:	0df6832f          	0xdf6832f
    6100040e:	87ee                	mv	a5,s11
    61000410:	99a95df3          	csrrwi	s11,0x99a,18
    61000414:	4044                	lw	s1,4(s0)
    61000416:	9d68                	0x9d68
    61000418:	669d                	lui	a3,0x7
    6100041a:	7b2a902b          	0x7b2a902b
    6100041e:	94ea                	add	s1,s1,s10
    61000420:	e0b41de7          	0xe0b41de7
    61000424:	0050                	addi	a2,sp,4
    61000426:	e475                	bnez	s0,61000512 <crc32_table+0x2b2>
    61000428:	2689                	addiw	a3,a3,2
    6100042a:	e936                	sd	a3,144(sp)
    6100042c:	3b3e                	fld	fs6,488(sp)
    6100042e:	6b3bedf7          	0x6b3bedf7
    61000432:	f3b0                	sd	a2,96(a5)
    61000434:	768c                	ld	a1,40(a3)
    61000436:	f771                	bnez	a4,61000402 <crc32_table+0x1a2>
    61000438:	5055                	c.li	zero,-11
    6100043a:	fa32                	sd	a2,304(sp)
    6100043c:	4de2                	lw	s11,24(sp)
    6100043e:	f05ffef3          	csrrci	t4,0xf05,31
    61000442:	c6bc                	sw	a5,72(a3)
    61000444:	ede8                	sd	a0,216(a1)
    61000446:	c27d                	beqz	a2,6100052c <crc32_table+0x2cc>
    61000448:	cb31                	beqz	a4,6100049c <crc32_table+0x23c>
    6100044a:	cf3e                	sw	a5,156(sp)
    6100044c:	d686                	sw	ra,108(sp)
    6100044e:	8683cbff          	0x8683cbff
    61000452:	d5b8                	sw	a4,104(a1)
    61000454:	9b34                	0x9b34
    61000456:	d179                	beqz	a0,6100041c <crc32_table+0x1bc>
    61000458:	bded                	j	61000352 <crc32_table+0xf2>
    6100045a:	dc3a                	sw	a4,56(sp)
    6100045c:	a05a                	fsd	fs6,0(sp)
    6100045e:	e0eed8fb          	0xe0eed8fb
    61000462:	690c                	ld	a1,16(a0)
    61000464:	fd59                	bnez	a0,61000402 <crc32_table+0x1a2>
    61000466:	6dcd                	lui	s11,0x13
    61000468:	db80                	sw	s0,48(a5)
    6100046a:	608e                	ld	ra,192(sp)
    6100046c:	644fc637          	lui	a2,0x644fc
    61000470:	9632                	add	a2,a2,a2
    61000472:	7a08                	ld	a0,48(a2)
    61000474:	8b85                	andi	a5,a5,1
    61000476:	7ec9                	lui	t4,0xffff2
    61000478:	ad5c                	fsd	fa5,152(a0)
    6100047a:	738a                	ld	t2,160(sp)
    6100047c:	774bb0eb          	0x774bb0eb
    61000480:	0d56                	slli	s10,s10,0x15
    61000482:	4f04                	lw	s1,24(a4)
    61000484:	10e1                	addi	ra,ra,-8
    61000486:	4bc5                	li	s7,17
    61000488:	3638                	fld	fa4,104(a2)
    6100048a:	4686                	lw	a3,64(sp)
    6100048c:	42472b8f          	0x42472b8f
    61000490:	7b8a                	ld	s7,160(sp)
    61000492:	5c00                	lw	s0,56(s0)
    61000494:	663d                	lui	a2,0xf
    61000496:	58c1                	li	a7,-16
    61000498:	40e4                	lw	s1,68(s1)
    6100049a:	5582                	lw	a1,32(sp)
    6100049c:	51435d53          	0x51435d53
    610004a0:	3b9e                	fld	fs7,480(sp)
    610004a2:	251d                	addiw	a0,a0,7
    610004a4:	2629                	addiw	a2,a2,10
    610004a6:	21dc                	fld	fa5,128(a1)
    610004a8:	00f0                	addi	a2,sp,76
    610004aa:	2c9f 1d47 285e      	0x285e1d472c9f
    610004b0:	4d42                	lw	s10,16(sp)
    610004b2:	3619                	addiw	a2,a2,-26
    610004b4:	50f5                	li	ra,-3
    610004b6:	32d8                	fld	fa4,160(a3)
    610004b8:	762c                	ld	a1,104(a2)
    610004ba:	6b9b3f9b          	0x6b9b3f9b
    610004be:	3b5a                	fld	fs6,432(sp)
    610004c0:	d626                	sw	s1,44(sp)
    610004c2:	0315                	addi	t1,t1,5
    610004c4:	cb91                	beqz	a5,610004d8 <crc32_table+0x278>
    610004c6:	07d4                	addi	a3,sp,964
    610004c8:	ed48                	sd	a0,152(a0)
    610004ca:	f0ff0a97          	auipc	s5,0xf0ff0
    610004ce:	0e56                	slli	t3,t3,0x15
    610004d0:	a0fa                	fsd	ft10,64(sp)
    610004d2:	1011                	c.nop	-28
    610004d4:	bd4d                	j	61000386 <crc32_table+0x126>
    610004d6:	14d0                	addi	a2,sp,612
    610004d8:	9b94                	0x9b94
    610004da:	86231993          	0x86231993
    610004de:	1d52                	slli	s10,s10,0x34
    610004e0:	560e                	lw	a2,224(sp)
    610004e2:	4bb9f12f          	0x4bb9f12f
    610004e6:	f5ee                	sd	s11,232(sp)
    610004e8:	6d60                	ld	s0,216(a0)
    610004ea:	f8ad                	bnez	s1,6100045c <crc32_table+0x1fc>
    610004ec:	fc6c70d7          	vsetivli	ra,24,e8,mf4,ta,ma
    610004f0:	20d2                	fld	ft1,272(sp)
    610004f2:	3d65e22b          	0x3d65e22b
    610004f6:	e6ea                	sd	s10,328(sp)
    610004f8:	1bbc                	addi	a5,sp,504
    610004fa:	eba9                	bnez	a5,6100054c <crc32_table+0x2ec>
    610004fc:	ef68060b          	0xef68060b
    61000500:	bbb6                	fsd	fa3,496(sp)
    61000502:	a601d727          	vsuxseg6ei16.v	v14,(gp),v0
    61000506:	d3e6                	sw	s9,228(sp)
    61000508:	80d8                	0x80d8
    6100050a:	dea5                	beqz	a3,61000482 <crc32_table+0x222>
    6100050c:	da649d6f          	jal	s10,60f49ab2 <_start-0xb654e>
    61000510:	cd6a                	sw	s10,152(sp)
    61000512:	d0ddc423          	0xd0ddc423
    61000516:	c0e2                	sw	s8,64(sp)
    61000518:	f604                	sd	s1,40(a2)
    6100051a:	cda1                	beqz	a1,61000572 <crc32_table+0x312>
    6100051c:	c960ebb3          	0xc960ebb3
    61000520:	8d7e                	mv	s10,t6
    61000522:	bd3e                	fsd	fa5,184(sp)
    61000524:	90c9                	srli	s1,s1,0x32
    61000526:	b610b9ff          	0xb610b9ff
    6100052a:	b4bc                	fsd	fa5,104(s1)
    6100052c:	b07daba7          	fsw	ft7,-1257(s11) # 12b17 <_start-0x60fed4e9>
    61000530:	fba2                	sd	s0,496(sp)
    61000532:	ae3a                	fsd	fa4,280(sp)
    61000534:	e615                	bnez	a2,61000560 <crc32_table+0x300>
    61000536:	c0ccaafb          	0xc0ccaafb
    6100053a:	a7b8                	fsd	fa4,72(a5)
    6100053c:	a379dd7b          	0xa379dd7b
    61000540:	60c6                	ld	ra,80(sp)
    61000542:	9b36                	add	s6,s6,a3
    61000544:	7d71                	lui	s10,0xffffc
    61000546:	5ba89ff7          	0x5ba89ff7
    6100054a:	92b4                	0x92b4
    6100054c:	461f 9675 161a      	0x161a9675461f
    61000552:	8832                	mv	a6,a2
    61000554:	0bad                	addi	s7,s7,11
    61000556:	2d748cf3          	0x2d748cf3
    6100055a:	81b0                	0x81b0
    6100055c:	857130c3          	fmadd.h	ft1,ft2,fs7,fa6,rup
    61000560:	9099                	srli	s1,s1,0x26
    61000562:	5d8a                	lw	s11,160(sp)
    61000564:	8d2e                	mv	s10,a1
    61000566:	abf7594b          	fnmsub.d	fs2,fa4,ft11,fs5,unknown
    6100056a:	5408                	lw	a0,40(s0)
    6100056c:	b640                	fsd	fs0,168(a2)
    6100056e:	50c9                	li	ra,-14
    61000570:	e645                	bnez	a2,61000618 <crc32_table+0x3b8>
    61000572:	4e8e                	lw	t4,192(sp)
    61000574:	fbf2                	sd	t3,496(sp)
    61000576:	dd2b4a4f          	fnmadd.h	fs4,fs6,fs2,fs11,rmm
    6100057a:	470c                	lw	a1,8(a4)
    6100057c:	c09c                	sw	a5,0(s1)
    6100057e:	43cd                	li	t2,19
    61000580:	7d21                	lui	s10,0xfffe8
    61000582:	7b82                	ld	s7,32(sp)
    61000584:	6096                	ld	ra,320(sp)
    61000586:	464f7f43          	fmadd.q	ft10,ft10,ft4,fs0
    6100058a:	7200                	ld	s0,32(a2)
    6100058c:	5bf8                	lw	a4,116(a5)
    6100058e:	76c1                	lui	a3,0xffff0
    61000590:	0bfd                	addi	s7,s7,31
    61000592:	6886                	ld	a7,64(sp)
    61000594:	164a                	slli	a2,a2,0x32
    61000596:	30936c47          	fmsub.s	fs8,ft6,fs1,ft6,unknown
    6100059a:	6104                	ld	s1,0(a0)
    6100059c:	2d24                	fld	fs1,88(a0)
    6100059e:	65c5                	lui	a1,0x11
    610005a0:	4be9                	li	s7,26
    610005a2:	565e119b          	0x565e119b
    610005a6:	155a                	slli	a0,a0,0x36
    610005a8:	18197087          	0x18197087
    610005ac:	6d30                	ld	a2,88(a0)
    610005ae:	1cd8                	addi	a4,sp,628
    610005b0:	3d35                	addiw	s10,s10,-19
    610005b2:	029f 2082 065e      	0x65e2082029f
    610005b8:	0b1d065b          	0xb1d065b
    610005bc:	1bec                	addi	a1,sp,508
    610005be:	0fdc                	addi	a5,sp,980
    610005c0:	a651                	j	61000944 <out_buf+0xe4>
    610005c2:	bbe63793          	sltiu	a5,a2,-1090
    610005c6:	3352                	fld	ft6,304(sp)
    610005c8:	3e119d3f 3ad08088 	0x3ad080883e119d3f
    610005d0:	d08d                	beqz	s1,610004f2 <crc32_table+0x292>
    610005d2:	cd3a2497          	auipc	s1,0xcd3a2
    610005d6:	2056                	fld	ft0,336(sp)
    610005d8:	2d15ebe3          	bltu	a1,a7,610010ae <out_buf+0x84e>
    610005dc:	f654                	sd	a3,168(a2)
    610005de:	29d4                	fld	fa3,144(a1)
    610005e0:	2679                	addiw	a2,a2,30
    610005e2:	c5a9                	beqz	a1,6100062c <crc32_table+0x3cc>
    610005e4:	3bce                	fld	fs7,240(sp)
    610005e6:	c168                	sw	a0,68(a0)
    610005e8:	cc2b1d17          	auipc	s10,0xcc2b1
    610005ec:	00a0                	addi	s0,sp,72
    610005ee:	c8ea                	sw	s10,80(sp)
    610005f0:	50a5                	li	ra,-23
    610005f2:	d6ad                	beqz	a3,6100055c <crc32_table+0x2fc>
    610005f4:	4d12                	lw	s10,4(sp)
    610005f6:	d26c                	sw	a1,100(a2)
    610005f8:	df2f6bcb          	fnmsub.q	fs7,ft10,fs2,fs11,unknown
    610005fc:	767c                	ld	a5,232(a2)
    610005fe:	dbee                	sw	s11,244(sp)
    61000600:	cbc1                	beqz	a5,61000690 <stack+0x30>
    61000602:	e3a1                	bnez	a5,61000642 <crc32_table+0x3e2>
    61000604:	d676                	sw	t4,44(sp)
    61000606:	e760                	sd	s0,200(a4)
    61000608:	ea23f0af          	0xea23f0af
    6100060c:	ed18                	sd	a4,24(a0)
    6100060e:	eee2                	sd	s8,344(sp)
    61000610:	bd1d                	j	61000446 <crc32_table+0x1e6>
    61000612:	f0a5                	bnez	s1,61000572 <crc32_table+0x312>
    61000614:	a0aa                	fsd	fa0,64(sp)
    61000616:	f464                	sd	s1,232(s0)
    61000618:	f9278673          	0xf9278673
    6100061c:	9bc4                	0x9bc4
    6100061e:	fde6                	sd	s9,248(sp)
    61000620:	fd09                	bnez	a0,6100053a <crc32_table+0x2da>
    61000622:	89b8                	0x89b8
    61000624:	e0be                	sd	a5,64(sp)
    61000626:	8d79                	and	a0,a0,a4
    61000628:	803ac667          	0x803ac667
    6100062c:	dbd0                	sw	a2,52(a5)
    6100062e:	8bd584fb          	0x8bd584fb
    61000632:	9abc                	0x9abc
    61000634:	9662                	add	a2,a2,s8
    61000636:	9e7d                	0x9e7d
    61000638:	933eb0bb          	0x933eb0bb
    6100063c:	ad0c                	fsd	fa1,24(a0)
    6100063e:	10b197ff          	ukaddw	a5,gp,a1
    61000642:	afb0                	fsd	fa2,88(a5)
    61000644:	0d06                	slli	s10,s10,0x1
    61000646:	ab71                	j	61000be2 <out_buf+0x382>
    61000648:	2bdf a632 3668      	0x3668a6322bdf
    6100064e:	666da2f3          	csrrs	t0,0x666,s11
    61000652:	bcb4                	fsd	fa3,120(s1)
    61000654:	7bda                	ld	s7,432(sp)
    61000656:	b875                	j	60ffff12 <_start-0xee>
    61000658:	b5365d03          	lhu	s10,-1197(a2) # eb53 <_start-0x60ff14ad>
    6100065c:	40b4                	lw	a3,64(s1)
    6100065e:	          	0xb1f7

Disassembly of section .data:

0000000061000660 <stack>:
    61000660:	5309                	li	t1,-30
    61000662:	00000867          	jalr	a6,zero # 0 <_start-0x61000000>
    61000666:	0000                	unimp
    61000668:	5309                	li	t1,-30
    6100066a:	00000867          	jalr	a6,zero # 0 <_start-0x61000000>
    6100066e:	0000                	unimp
    61000670:	5309                	li	t1,-30
    61000672:	00000867          	jalr	a6,zero # 0 <_start-0x61000000>
    61000676:	0000                	unimp
    61000678:	5309                	li	t1,-30
    6100067a:	00000867          	jalr	a6,zero # 0 <_start-0x61000000>
    6100067e:	0000                	unimp
    61000680:	5309                	li	t1,-30
    61000682:	00000867          	jalr	a6,zero # 0 <_start-0x61000000>
    61000686:	0000                	unimp
    61000688:	5309                	li	t1,-30
    6100068a:	00000867          	jalr	a6,zero # 0 <_start-0x61000000>
    6100068e:	0000                	unimp
    61000690:	5309                	li	t1,-30
    61000692:	00000867          	jalr	a6,zero # 0 <_start-0x61000000>
    61000696:	0000                	unimp
    61000698:	5309                	li	t1,-30
    6100069a:	00000867          	jalr	a6,zero # 0 <_start-0x61000000>
    6100069e:	0000                	unimp
    610006a0:	5309                	li	t1,-30
    610006a2:	00000867          	jalr	a6,zero # 0 <_start-0x61000000>
    610006a6:	0000                	unimp
    610006a8:	5309                	li	t1,-30
    610006aa:	00000867          	jalr	a6,zero # 0 <_start-0x61000000>
    610006ae:	0000                	unimp
    610006b0:	5309                	li	t1,-30
    610006b2:	00000867          	jalr	a6,zero # 0 <_start-0x61000000>
    610006b6:	0000                	unimp
    610006b8:	5309                	li	t1,-30
    610006ba:	00000867          	jalr	a6,zero # 0 <_start-0x61000000>
    610006be:	0000                	unimp
    610006c0:	5309                	li	t1,-30
    610006c2:	00000867          	jalr	a6,zero # 0 <_start-0x61000000>
    610006c6:	0000                	unimp
    610006c8:	5309                	li	t1,-30
    610006ca:	00000867          	jalr	a6,zero # 0 <_start-0x61000000>
    610006ce:	0000                	unimp
    610006d0:	5309                	li	t1,-30
    610006d2:	00000867          	jalr	a6,zero # 0 <_start-0x61000000>
    610006d6:	0000                	unimp
    610006d8:	5309                	li	t1,-30
    610006da:	00000867          	jalr	a6,zero # 0 <_start-0x61000000>
    610006de:	0000                	unimp
    610006e0:	5309                	li	t1,-30
    610006e2:	00000867          	jalr	a6,zero # 0 <_start-0x61000000>
    610006e6:	0000                	unimp
    610006e8:	5309                	li	t1,-30
    610006ea:	00000867          	jalr	a6,zero # 0 <_start-0x61000000>
    610006ee:	0000                	unimp
    610006f0:	5309                	li	t1,-30
    610006f2:	00000867          	jalr	a6,zero # 0 <_start-0x61000000>
    610006f6:	0000                	unimp
    610006f8:	5309                	li	t1,-30
    610006fa:	00000867          	jalr	a6,zero # 0 <_start-0x61000000>
    610006fe:	0000                	unimp
    61000700:	5309                	li	t1,-30
    61000702:	00000867          	jalr	a6,zero # 0 <_start-0x61000000>
    61000706:	0000                	unimp
    61000708:	5309                	li	t1,-30
    6100070a:	00000867          	jalr	a6,zero # 0 <_start-0x61000000>
    6100070e:	0000                	unimp
    61000710:	5309                	li	t1,-30
    61000712:	00000867          	jalr	a6,zero # 0 <_start-0x61000000>
    61000716:	0000                	unimp
    61000718:	5309                	li	t1,-30
    6100071a:	00000867          	jalr	a6,zero # 0 <_start-0x61000000>
    6100071e:	0000                	unimp
    61000720:	5309                	li	t1,-30
    61000722:	00000867          	jalr	a6,zero # 0 <_start-0x61000000>
    61000726:	0000                	unimp
    61000728:	5309                	li	t1,-30
    6100072a:	00000867          	jalr	a6,zero # 0 <_start-0x61000000>
    6100072e:	0000                	unimp
    61000730:	5309                	li	t1,-30
    61000732:	00000867          	jalr	a6,zero # 0 <_start-0x61000000>
    61000736:	0000                	unimp
    61000738:	5309                	li	t1,-30
    6100073a:	00000867          	jalr	a6,zero # 0 <_start-0x61000000>
    6100073e:	0000                	unimp
    61000740:	5309                	li	t1,-30
    61000742:	00000867          	jalr	a6,zero # 0 <_start-0x61000000>
    61000746:	0000                	unimp
    61000748:	5309                	li	t1,-30
    6100074a:	00000867          	jalr	a6,zero # 0 <_start-0x61000000>
    6100074e:	0000                	unimp
    61000750:	5309                	li	t1,-30
    61000752:	00000867          	jalr	a6,zero # 0 <_start-0x61000000>
    61000756:	0000                	unimp
    61000758:	5309                	li	t1,-30
    6100075a:	00000867          	jalr	a6,zero # 0 <_start-0x61000000>
    6100075e:	0000                	unimp
    61000760:	5309                	li	t1,-30
    61000762:	00000867          	jalr	a6,zero # 0 <_start-0x61000000>
    61000766:	0000                	unimp
    61000768:	5309                	li	t1,-30
    6100076a:	00000867          	jalr	a6,zero # 0 <_start-0x61000000>
    6100076e:	0000                	unimp
    61000770:	5309                	li	t1,-30
    61000772:	00000867          	jalr	a6,zero # 0 <_start-0x61000000>
    61000776:	0000                	unimp
    61000778:	5309                	li	t1,-30
    6100077a:	00000867          	jalr	a6,zero # 0 <_start-0x61000000>
    6100077e:	0000                	unimp
    61000780:	5309                	li	t1,-30
    61000782:	00000867          	jalr	a6,zero # 0 <_start-0x61000000>
    61000786:	0000                	unimp
    61000788:	5309                	li	t1,-30
    6100078a:	00000867          	jalr	a6,zero # 0 <_start-0x61000000>
    6100078e:	0000                	unimp
    61000790:	5309                	li	t1,-30
    61000792:	00000867          	jalr	a6,zero # 0 <_start-0x61000000>
    61000796:	0000                	unimp
    61000798:	5309                	li	t1,-30
    6100079a:	00000867          	jalr	a6,zero # 0 <_start-0x61000000>
    6100079e:	0000                	unimp
    610007a0:	5309                	li	t1,-30
    610007a2:	00000867          	jalr	a6,zero # 0 <_start-0x61000000>
    610007a6:	0000                	unimp
    610007a8:	5309                	li	t1,-30
    610007aa:	00000867          	jalr	a6,zero # 0 <_start-0x61000000>
    610007ae:	0000                	unimp
    610007b0:	5309                	li	t1,-30
    610007b2:	00000867          	jalr	a6,zero # 0 <_start-0x61000000>
    610007b6:	0000                	unimp
    610007b8:	5309                	li	t1,-30
    610007ba:	00000867          	jalr	a6,zero # 0 <_start-0x61000000>
    610007be:	0000                	unimp
    610007c0:	5309                	li	t1,-30
    610007c2:	00000867          	jalr	a6,zero # 0 <_start-0x61000000>
    610007c6:	0000                	unimp
    610007c8:	5309                	li	t1,-30
    610007ca:	00000867          	jalr	a6,zero # 0 <_start-0x61000000>
    610007ce:	0000                	unimp
    610007d0:	5309                	li	t1,-30
    610007d2:	00000867          	jalr	a6,zero # 0 <_start-0x61000000>
    610007d6:	0000                	unimp
    610007d8:	5309                	li	t1,-30
    610007da:	00000867          	jalr	a6,zero # 0 <_start-0x61000000>
    610007de:	0000                	unimp
    610007e0:	5309                	li	t1,-30
    610007e2:	00000867          	jalr	a6,zero # 0 <_start-0x61000000>
    610007e6:	0000                	unimp
    610007e8:	5309                	li	t1,-30
    610007ea:	00000867          	jalr	a6,zero # 0 <_start-0x61000000>
    610007ee:	0000                	unimp
    610007f0:	5309                	li	t1,-30
    610007f2:	00000867          	jalr	a6,zero # 0 <_start-0x61000000>
    610007f6:	0000                	unimp
    610007f8:	5309                	li	t1,-30
    610007fa:	00000867          	jalr	a6,zero # 0 <_start-0x61000000>
    610007fe:	0000                	unimp
    61000800:	5309                	li	t1,-30
    61000802:	00000867          	jalr	a6,zero # 0 <_start-0x61000000>
    61000806:	0000                	unimp
    61000808:	5309                	li	t1,-30
    6100080a:	00000867          	jalr	a6,zero # 0 <_start-0x61000000>
    6100080e:	0000                	unimp
    61000810:	5309                	li	t1,-30
    61000812:	00000867          	jalr	a6,zero # 0 <_start-0x61000000>
    61000816:	0000                	unimp
    61000818:	5309                	li	t1,-30
    6100081a:	00000867          	jalr	a6,zero # 0 <_start-0x61000000>
    6100081e:	0000                	unimp
    61000820:	5309                	li	t1,-30
    61000822:	00000867          	jalr	a6,zero # 0 <_start-0x61000000>
    61000826:	0000                	unimp
    61000828:	5309                	li	t1,-30
    6100082a:	00000867          	jalr	a6,zero # 0 <_start-0x61000000>
    6100082e:	0000                	unimp
    61000830:	5309                	li	t1,-30
    61000832:	00000867          	jalr	a6,zero # 0 <_start-0x61000000>
    61000836:	0000                	unimp
    61000838:	5309                	li	t1,-30
    6100083a:	00000867          	jalr	a6,zero # 0 <_start-0x61000000>
    6100083e:	0000                	unimp
    61000840:	5309                	li	t1,-30
    61000842:	00000867          	jalr	a6,zero # 0 <_start-0x61000000>
    61000846:	0000                	unimp
    61000848:	5309                	li	t1,-30
    6100084a:	00000867          	jalr	a6,zero # 0 <_start-0x61000000>
    6100084e:	0000                	unimp
    61000850:	5309                	li	t1,-30
    61000852:	00000867          	jalr	a6,zero # 0 <_start-0x61000000>
    61000856:	0000                	unimp
    61000858:	5309                	li	t1,-30
    6100085a:	00000867          	jalr	a6,zero # 0 <_start-0x61000000>
	...

Disassembly of section .bss:

0000000061000860 <out_buf>:
	...

Disassembly of section .riscv.attributes:

0000000000000000 <.riscv.attributes>:
   0:	1b41                	addi	s6,s6,-16
   2:	0000                	unimp
   4:	7200                	ld	s0,32(a2)
   6:	7369                	lui	t1,0xffffa
   8:	01007663          	bgeu	zero,a6,14 <_start-0x60ffffec>
   c:	0011                	c.nop	4
   e:	0000                	unimp
  10:	1004                	addi	s1,sp,32
  12:	7205                	lui	tp,0xfffe1
  14:	3676                	fld	fa2,376(sp)
  16:	6934                	ld	a3,80(a0)
  18:	7032                	0x7032
  1a:	0030                	addi	a2,sp,8

Disassembly of section .comment:

0000000000000000 <.comment>:
   0:	3a434347          	fmsub.d	ft6,ft6,ft4,ft7,rmm
   4:	2820                	fld	fs0,80(s0)
   6:	29554e47          	fmsub.s	ft8,fa0,fs5,ft5,rmm
   a:	3120                	fld	fs0,96(a0)
   c:	2e30                	fld	fa2,88(a2)
   e:	2e32                	fld	ft8,264(sp)
  10:	0030                	addi	a2,sp,8

Disassembly of section .debug_line:

0000000000000000 <.debug_line>:
   0:	000000a3          	sb	zero,1(zero) # 1 <_start-0x60ffffff>
   4:	007d0003          	lb	zero,7(s10) # 2d2b15ef <_start-0x33d4ea11>
   8:	0000                	unimp
   a:	0101                	addi	sp,sp,0
   c:	000d0efb          	dkhmx8	t4,s10,zero
  10:	0101                	addi	sp,sp,0
  12:	0101                	addi	sp,sp,0
  14:	0000                	unimp
  16:	0100                	addi	s0,sp,128
  18:	0000                	unimp
  1a:	4501                	li	a0,0
  1c:	2f3a                	fld	ft10,392(sp)
  1e:	6b726f77          	0x6b726f77
  22:	3230322f          	0x3230322f
  26:	2f32                	fld	ft10,264(sp)
  28:	6c61                	lui	s8,0x18
  2a:	3039                	0x3039
  2c:	3030                	fld	fa2,96(s0)
  2e:	2f77732f          	0x2f77732f
  32:	6564                	ld	s1,200(a0)
  34:	7562                	ld	a0,56(sp)
  36:	72656767          	0x72656767
  3a:	5f6c612f          	0x5f6c612f
  3e:	6e65706f          	j	57724 <_start-0x60fa88dc>
  42:	2f64636f          	jal	t1,46338 <_start-0x60fb9cc8>
  46:	746e6f63          	bltu	t3,t1,7a4 <_start-0x60fff85c>
  4a:	6972                	ld	s2,280(sp)
  4c:	2f62                	fld	ft10,24(sp)
  4e:	6f6c                	ld	a1,216(a4)
  50:	6461                	lui	s0,0x18
  52:	7265                	lui	tp,0xffff9
  54:	6c662f73          	csrrs	t5,0x6c6,a2
  58:	7361                	lui	t1,0xffff8
  5a:	2f68                	fld	fa0,216(a4)
  5c:	6d65                	lui	s10,0x19
  5e:	636d                	lui	t1,0x1b
  60:	6377642f          	0x6377642f
  64:	736d                	lui	t1,0xffffb
  66:	6368                	ld	a0,192(a4)
  68:	6372732f          	0x6372732f
  6c:	6f6f622f          	0x6f6f622f
  70:	2f74                	fld	fa3,216(a4)
  72:	6972                	ld	s2,280(sp)
  74:	00766373          	csrrsi	t1,0x7,12
  78:	7700                	ld	s0,40(a4)
  7a:	6172                	ld	sp,280(sp)
  7c:	7070                	ld	a2,224(s0)
  7e:	7265                	lui	tp,0xffff9
  80:	532e                	lw	t1,232(sp)
  82:	0100                	addi	s0,sp,128
  84:	0000                	unimp
  86:	0000                	unimp
  88:	0209                	addi	tp,tp,2
  8a:	0000                	unimp
  8c:	6100                	ld	s0,0(a0)
  8e:	0000                	unimp
  90:	0000                	unimp
  92:	03010d03          	lb	s10,48(sp)
  96:	0901                	addi	s2,s2,0
  98:	0008                	0x8
  9a:	0301                	addi	t1,t1,0
  9c:	0901                	addi	s2,s2,0
  9e:	0004                	0x4
  a0:	0901                	addi	s2,s2,0
  a2:	0004                	0x4
  a4:	0100                	addi	s0,sp,128
  a6:	7101                	addi	sp,sp,-512
  a8:	0004                	0x4
  aa:	0300                	addi	s0,sp,384
  ac:	3700                	fld	fs0,40(a4)
  ae:	0001                	nop
  b0:	0100                	addi	s0,sp,128
  b2:	fb01                	bnez	a4,ffffffffffffffc2 <out_buf+0xffffffff9efff762>
  b4:	0d0e                	slli	s10,s10,0x3
  b6:	0100                	addi	s0,sp,128
  b8:	0101                	addi	sp,sp,0
  ba:	0001                	nop
  bc:	0000                	unimp
  be:	0001                	nop
  c0:	0100                	addi	s0,sp,128
  c2:	3a45                	addiw	s4,s4,-15
  c4:	726f772f          	0x726f772f
  c8:	30322f6b          	0x30322f6b
  cc:	3232                	fld	ft4,296(sp)
  ce:	396c612f          	0x396c612f
  d2:	3030                	fld	fa2,96(s0)
  d4:	2f30                	fld	fa2,88(a4)
  d6:	642f7773          	csrrci	a4,0x642,30
  da:	6265                	lui	tp,0x19
  dc:	6775                	lui	a4,0x1d
  de:	2f726567          	0x2f726567
  e2:	6c61                	lui	s8,0x18
  e4:	6f5f 6570 6f6e      	0x6f6e65706f5f
  ea:	632f6463          	bltu	t5,s2,712 <_start-0x60fff8ee>
  ee:	72746e6f          	jal	t3,47014 <_start-0x60fb8fec>
  f2:	6269                	lui	tp,0x1a
  f4:	616f6c2f          	0x616f6c2f
  f8:	6564                	ld	s1,200(a0)
  fa:	7372                	ld	t1,312(sp)
  fc:	616c662f          	0x616c662f
 100:	652f6873          	csrrsi	a6,0x652,30
 104:	6d6d                	lui	s10,0x1b
 106:	77642f63          	0x77642f63
 10a:	68736d63          	bltu	t1,t2,7a4 <_start-0x60fff85c>
 10e:	72732f63          	0x72732f63
 112:	3a650063          	beq	a0,t1,4b2 <_start-0x60fffb4e>
 116:	775c                	ld	a5,168(a4)
 118:	5c6b726f          	jal	tp,b76de <_start-0x60f48922>
 11c:	3032                	fld	ft0,296(sp)
 11e:	3232                	fld	ft4,296(sp)
 120:	615c                	ld	a5,128(a0)
 122:	396c                	fld	fa1,240(a0)
 124:	3030                	fld	fa2,96(s0)
 126:	5c30                	lw	a2,120(s0)
 128:	735c7773          	csrrci	a4,0x735,24
 12c:	612d636f          	jal	t1,d673e <_start-0x60f298c2>
 130:	7570                	ld	a2,232(a0)
 132:	732d                	lui	t1,0xfffeb
 134:	6b64                	ld	s1,208(a4)
 136:	745c                	ld	a5,168(s0)
 138:	736c6f6f          	jal	t5,c686e <_start-0x60f39792>
 13c:	775c                	ld	a5,168(a4)
 13e:	6e69                	lui	t3,0x1a
 140:	725c                	ld	a5,160(a2)
 142:	7369                	lui	t1,0xffffa
 144:	725c7663          	bgeu	s8,t0,870 <_start-0x60fff790>
 148:	7369                	lui	t1,0xffffa
 14a:	6e2d7663          	bgeu	s10,sp,836 <_start-0x60fff7ca>
 14e:	6375                	lui	t1,0x1d
 150:	656c                	ld	a1,200(a0)
 152:	2d69                	addiw	s10,s10,26
 154:	6c65                	lui	s8,0x19
 156:	5c66                	lw	s8,120(sp)
 158:	6e69                	lui	t3,0x1a
 15a:	64756c63          	bltu	a0,t2,7b2 <_start-0x60fff84e>
 15e:	5c65                	li	s8,-7
 160:	616d                	addi	sp,sp,240
 162:	6e696863          	bltu	s2,t1,852 <_start-0x60fff7ae>
 166:	0065                	c.nop	25
 168:	3a65                	addiw	s4,s4,-7
 16a:	775c                	ld	a5,168(a4)
 16c:	5c6b726f          	jal	tp,b7732 <_start-0x60f488ce>
 170:	3032                	fld	ft0,296(sp)
 172:	3232                	fld	ft4,296(sp)
 174:	615c                	ld	a5,128(a0)
 176:	396c                	fld	fa1,240(a0)
 178:	3030                	fld	fa2,96(s0)
 17a:	5c30                	lw	a2,120(s0)
 17c:	735c7773          	csrrci	a4,0x735,24
 180:	612d636f          	jal	t1,d6792 <_start-0x60f2986e>
 184:	7570                	ld	a2,232(a0)
 186:	732d                	lui	t1,0xfffeb
 188:	6b64                	ld	s1,208(a4)
 18a:	745c                	ld	a5,168(s0)
 18c:	736c6f6f          	jal	t5,c68c2 <_start-0x60f3973e>
 190:	775c                	ld	a5,168(a4)
 192:	6e69                	lui	t3,0x1a
 194:	725c                	ld	a5,160(a2)
 196:	7369                	lui	t1,0xffffa
 198:	725c7663          	bgeu	s8,t0,8c4 <_start-0x60fff73c>
 19c:	7369                	lui	t1,0xffffa
 19e:	6e2d7663          	bgeu	s10,sp,88a <_start-0x60fff776>
 1a2:	6375                	lui	t1,0x1d
 1a4:	656c                	ld	a1,200(a0)
 1a6:	2d69                	addiw	s10,s10,26
 1a8:	6c65                	lui	s8,0x19
 1aa:	5c66                	lw	s8,120(sp)
 1ac:	6e69                	lui	t3,0x1a
 1ae:	64756c63          	bltu	a0,t2,806 <_start-0x60fff7fa>
 1b2:	5c65                	li	s8,-7
 1b4:	00737973          	csrrci	s2,0x7,6
 1b8:	6400                	ld	s0,8(s0)
 1ba:	736d6377          	0x736d6377
 1be:	6368                	ld	a0,192(a4)
 1c0:	632e                	ld	t1,200(sp)
 1c2:	0100                	addi	s0,sp,128
 1c4:	0000                	unimp
 1c6:	645f 6665 7561      	0x75616665645f
 1cc:	746c                	ld	a1,232(s0)
 1ce:	745f 7079 7365      	0x73657079745f
 1d4:	682e                	ld	a6,200(sp)
 1d6:	0200                	addi	s0,sp,256
 1d8:	0000                	unimp
 1da:	735f 6474 6e69      	0x6e696474735f
 1e0:	2e74                	fld	fa3,216(a2)
 1e2:	0068                	addi	a0,sp,12
 1e4:	00000003          	lb	zero,0(zero) # 0 <_start-0x61000000>
 1e8:	0105                	addi	sp,sp,1
 1ea:	0900                	addi	s0,sp,144
 1ec:	1002                	c.slli	zero,0x20
 1ee:	0000                	unimp
 1f0:	0061                	c.nop	24
 1f2:	0000                	unimp
 1f4:	1500                	addi	s0,sp,672
 1f6:	0505                	addi	a0,a0,1
 1f8:	04090103          	lb	sp,64(s2) # fffffffffffe7040 <out_buf+0xffffffff9efe67e0>
 1fc:	0100                	addi	s0,sp,128
 1fe:	00090103          	lb	sp,0(s2)
 202:	0100                	addi	s0,sp,128
 204:	0a05                	addi	s4,s4,1
 206:	00090003          	lb	zero,0(s2)
 20a:	0100                	addi	s0,sp,128
 20c:	0905                	addi	s2,s2,1
 20e:	00090203          	lb	tp,0(s2)
 212:	0100                	addi	s0,sp,128
 214:	0c05                	addi	s8,s8,1
 216:	0306                	slli	t1,t1,0x1
 218:	0900                	addi	s0,sp,144
 21a:	0000                	unimp
 21c:	0301                	addi	t1,t1,0
 21e:	0901                	addi	s2,s2,0
 220:	0004                	0x4
 222:	0301                	addi	t1,t1,0
 224:	0004097f          	radd16	s2,s0,zero
 228:	0501                	addi	a0,a0,0
 22a:	0609                	addi	a2,a2,2
 22c:	04090103          	lb	sp,64(s2)
 230:	0100                	addi	s0,sp,128
 232:	0c05                	addi	s8,s8,1
 234:	0306                	slli	t1,t1,0x1
 236:	0900                	addi	s0,sp,144
 238:	0000                	unimp
 23a:	0501                	addi	a0,a0,0
 23c:	060a                	slli	a2,a2,0x2
 23e:	04097d03          	0x4097d03
 242:	0100                	addi	s0,sp,128
 244:	0505                	addi	a0,a0,1
 246:	04090503          	lb	a0,64(s2)
 24a:	0100                	addi	s0,sp,128
 24c:	0105                	addi	sp,sp,1
 24e:	0306                	slli	t1,t1,0x1
 250:	0901                	addi	s2,s2,0
 252:	0000                	unimp
 254:	0601                	addi	a2,a2,0
 256:	04090303          	lb	t1,64(s2)
 25a:	0100                	addi	s0,sp,128
 25c:	0505                	addi	a0,a0,1
 25e:	00090103          	lb	sp,0(s2)
 262:	0100                	addi	s0,sp,128
 264:	00090103          	lb	sp,0(s2)
 268:	0100                	addi	s0,sp,128
 26a:	08090103          	lb	sp,128(s2)
 26e:	0100                	addi	s0,sp,128
 270:	0905                	addi	s2,s2,1
 272:	00090203          	lb	tp,0(s2)
 276:	0100                	addi	s0,sp,128
 278:	1105                	addi	sp,sp,-31
 27a:	0306                	slli	t1,t1,0x1
 27c:	0900                	addi	s0,sp,144
 27e:	0000                	unimp
 280:	0501                	addi	a0,a0,0
 282:	0609                	addi	a2,a2,2
 284:	08090103          	lb	sp,128(s2)
 288:	0100                	addi	s0,sp,128
 28a:	00090103          	lb	sp,0(s2)
 28e:	0100                	addi	s0,sp,128
 290:	0b05                	addi	s6,s6,1
 292:	0306                	slli	t1,t1,0x1
 294:	0900                	addi	s0,sp,144
 296:	0000                	unimp
 298:	0501                	addi	a0,a0,0
 29a:	0016                	c.slli	zero,0x5
 29c:	0402                	c.slli64	s0
 29e:	0301                	addi	t1,t1,0
 2a0:	0900                	addi	s0,sp,144
 2a2:	000c                	0xc
 2a4:	0501                	addi	a0,a0,0
 2a6:	0605                	addi	a2,a2,1
 2a8:	08090303          	lb	t1,128(s2)
 2ac:	0100                	addi	s0,sp,128
 2ae:	1c05                	addi	s8,s8,-31
 2b0:	0306                	slli	t1,t1,0x1
 2b2:	0900                	addi	s0,sp,144
 2b4:	0000                	unimp
 2b6:	0501                	addi	a0,a0,0
 2b8:	0900030f          	0x900030f
 2bc:	0008                	0x8
 2be:	0501                	addi	a0,a0,0
 2c0:	0605                	addi	a2,a2,1
 2c2:	08090103          	lb	sp,128(s2)
 2c6:	0100                	addi	s0,sp,128
 2c8:	00090003          	lb	zero,0(s2)
 2cc:	0100                	addi	s0,sp,128
 2ce:	04090003          	lb	zero,64(s2)
 2d2:	0100                	addi	s0,sp,128
 2d4:	0105                	addi	sp,sp,1
 2d6:	0306                	slli	t1,t1,0x1
 2d8:	0902                	c.slli64	s2
 2da:	0000                	unimp
 2dc:	0601                	addi	a2,a2,0
 2de:	04090303          	lb	t1,64(s2)
 2e2:	0100                	addi	s0,sp,128
 2e4:	0505                	addi	a0,a0,1
 2e6:	00090103          	lb	sp,0(s2)
 2ea:	0100                	addi	s0,sp,128
 2ec:	00090103          	lb	sp,0(s2)
 2f0:	0100                	addi	s0,sp,128
 2f2:	00090203          	lb	tp,0(s2)
 2f6:	0100                	addi	s0,sp,128
 2f8:	00090003          	lb	zero,0(s2)
 2fc:	0100                	addi	s0,sp,128
 2fe:	0306                	slli	t1,t1,0x1
 300:	0901                	addi	s2,s2,0
 302:	0000                	unimp
 304:	0301                	addi	t1,t1,0
 306:	0004097f          	radd16	s2,s0,zero
 30a:	0601                	addi	a2,a2,0
 30c:	04090003          	lb	zero,64(s2)
 310:	0100                	addi	s0,sp,128
 312:	00090103          	lb	sp,0(s2)
 316:	0100                	addi	s0,sp,128
 318:	00090003          	lb	zero,0(s2)
 31c:	0100                	addi	s0,sp,128
 31e:	0200                	addi	s0,sp,256
 320:	0104                	addi	s1,sp,128
 322:	08090003          	lb	zero,128(s2)
 326:	0100                	addi	s0,sp,128
 328:	0200                	addi	s0,sp,256
 32a:	0104                	addi	s1,sp,128
 32c:	00090103          	lb	sp,0(s2)
 330:	0100                	addi	s0,sp,128
 332:	0905                	addi	s2,s2,1
 334:	0200                	addi	s0,sp,256
 336:	0104                	addi	s1,sp,128
 338:	00090203          	lb	tp,0(s2)
 33c:	0100                	addi	s0,sp,128
 33e:	1105                	addi	sp,sp,-31
 340:	0200                	addi	s0,sp,256
 342:	0104                	addi	s1,sp,128
 344:	0306                	slli	t1,t1,0x1
 346:	0900                	addi	s0,sp,144
 348:	0000                	unimp
 34a:	0501                	addi	a0,a0,0
 34c:	0009                	c.nop	2
 34e:	0402                	c.slli64	s0
 350:	0601                	addi	a2,a2,0
 352:	08090103          	lb	sp,128(s2)
 356:	0100                	addi	s0,sp,128
 358:	0200                	addi	s0,sp,256
 35a:	0104                	addi	s1,sp,128
 35c:	00090103          	lb	sp,0(s2)
 360:	0100                	addi	s0,sp,128
 362:	0b05                	addi	s6,s6,1
 364:	0200                	addi	s0,sp,256
 366:	0104                	addi	s1,sp,128
 368:	0306                	slli	t1,t1,0x1
 36a:	0900                	addi	s0,sp,144
 36c:	0000                	unimp
 36e:	0501                	addi	a0,a0,0
 370:	0016                	c.slli	zero,0x5
 372:	0402                	c.slli64	s0
 374:	0301                	addi	t1,t1,0
 376:	0900                	addi	s0,sp,144
 378:	0008                	0x8
 37a:	0501                	addi	a0,a0,0
 37c:	0009                	c.nop	2
 37e:	0402                	c.slli64	s0
 380:	04030603          	lb	a2,64(t1) # 1d040 <_start-0x60fe2fc0>
 384:	0c09                	addi	s8,s8,2
 386:	0100                	addi	s0,sp,128
 388:	0200                	addi	s0,sp,256
 38a:	0304                	addi	s1,sp,384
 38c:	00090003          	lb	zero,0(s2)
 390:	0100                	addi	s0,sp,128
 392:	0505                	addi	a0,a0,1
 394:	0200                	addi	s0,sp,256
 396:	0304                	addi	s1,sp,384
 398:	0306                	slli	t1,t1,0x1
 39a:	0004097f          	radd16	s2,s0,zero
 39e:	0501                	addi	a0,a0,0
 3a0:	0009                	c.nop	2
 3a2:	0402                	c.slli64	s0
 3a4:	09010303          	lb	t1,144(sp)
 3a8:	0004                	0x4
 3aa:	0001                	nop
 3ac:	0402                	c.slli64	s0
 3ae:	00030603          	lb	a2,0(t1)
 3b2:	0409                	addi	s0,s0,2
 3b4:	0100                	addi	s0,sp,128
 3b6:	2605                	addiw	a2,a2,1
 3b8:	0200                	addi	s0,sp,256
 3ba:	0304                	addi	s1,sp,384
 3bc:	00097f03          	0x97f03
 3c0:	0100                	addi	s0,sp,128
 3c2:	0e05                	addi	t3,t3,1
 3c4:	0200                	addi	s0,sp,256
 3c6:	0304                	addi	s1,sp,384
 3c8:	00090003          	lb	zero,0(s2)
 3cc:	0100                	addi	s0,sp,128
 3ce:	0505                	addi	a0,a0,1
 3d0:	0200                	addi	s0,sp,256
 3d2:	0304                	addi	s1,sp,384
 3d4:	0306                	slli	t1,t1,0x1
 3d6:	0900                	addi	s0,sp,144
 3d8:	0000                	unimp
 3da:	0601                	addi	a2,a2,0
 3dc:	04090203          	lb	tp,64(s2)
 3e0:	0100                	addi	s0,sp,128
 3e2:	0905                	addi	s2,s2,1
 3e4:	00090203          	lb	tp,0(s2)
 3e8:	0100                	addi	s0,sp,128
 3ea:	1105                	addi	sp,sp,-31
 3ec:	0306                	slli	t1,t1,0x1
 3ee:	0900                	addi	s0,sp,144
 3f0:	0000                	unimp
 3f2:	0501                	addi	a0,a0,0
 3f4:	0609                	addi	a2,a2,2
 3f6:	08090103          	lb	sp,128(s2)
 3fa:	0100                	addi	s0,sp,128
 3fc:	00090103          	lb	sp,0(s2)
 400:	0100                	addi	s0,sp,128
 402:	0b05                	addi	s6,s6,1
 404:	0306                	slli	t1,t1,0x1
 406:	0900                	addi	s0,sp,144
 408:	0000                	unimp
 40a:	0501                	addi	a0,a0,0
 40c:	0016                	c.slli	zero,0x5
 40e:	0402                	c.slli64	s0
 410:	0301                	addi	t1,t1,0
 412:	0900                	addi	s0,sp,144
 414:	000c                	0xc
 416:	0501                	addi	a0,a0,0
 418:	0605                	addi	a2,a2,1
 41a:	08090303          	lb	t1,128(s2)
 41e:	0100                	addi	s0,sp,128
 420:	00090003          	lb	zero,0(s2)
 424:	0100                	addi	s0,sp,128
 426:	0c090003          	lb	zero,192(s2)
 42a:	0100                	addi	s0,sp,128
 42c:	0105                	addi	sp,sp,1
 42e:	0306                	slli	t1,t1,0x1
 430:	0902                	c.slli64	s2
 432:	0000                	unimp
 434:	0601                	addi	a2,a2,0
 436:	04090303          	lb	t1,64(s2)
 43a:	0100                	addi	s0,sp,128
 43c:	0505                	addi	a0,a0,1
 43e:	00090103          	lb	sp,0(s2)
 442:	0100                	addi	s0,sp,128
 444:	00090203          	lb	tp,0(s2)
 448:	0100                	addi	s0,sp,128
 44a:	00090003          	lb	zero,0(s2)
 44e:	0100                	addi	s0,sp,128
 450:	0105                	addi	sp,sp,1
 452:	0306                	slli	t1,t1,0x1
 454:	097d                	addi	s2,s2,31
 456:	0000                	unimp
 458:	0501                	addi	a0,a0,0
 45a:	0305                	addi	t1,t1,1
 45c:	0904                	addi	s1,sp,144
 45e:	0014                	0x14
 460:	0301                	addi	t1,t1,0
 462:	0008097f          	radd16	s2,a6,zero
 466:	0601                	addi	a2,a2,0
 468:	04090003          	lb	zero,64(s2)
 46c:	0100                	addi	s0,sp,128
 46e:	00090103          	lb	sp,0(s2)
 472:	0100                	addi	s0,sp,128
 474:	00090003          	lb	zero,0(s2)
 478:	0100                	addi	s0,sp,128
 47a:	04090003          	lb	zero,64(s2)
 47e:	0100                	addi	s0,sp,128
 480:	00090103          	lb	sp,0(s2)
 484:	0100                	addi	s0,sp,128
 486:	0105                	addi	sp,sp,1
 488:	0306                	slli	t1,t1,0x1
 48a:	0000097b          	dkhmx8	s2,zero,zero
 48e:	0501                	addi	a0,a0,0
 490:	0305                	addi	t1,t1,1
 492:	0905                	addi	s2,s2,1
 494:	0004                	0x4
 496:	0501                	addi	a0,a0,0
 498:	0301                	addi	t1,t1,0
 49a:	0004097b          	dkhmx8	s2,s0,zero
 49e:	0501                	addi	a0,a0,0
 4a0:	0305                	addi	t1,t1,1
 4a2:	0905                	addi	s2,s2,1
 4a4:	0008                	0x8
 4a6:	0601                	addi	a2,a2,0
 4a8:	04090203          	lb	tp,64(s2)
 4ac:	0100                	addi	s0,sp,128
 4ae:	0e05                	addi	t3,t3,1
 4b0:	0200                	addi	s0,sp,256
 4b2:	0104                	addi	s1,sp,128
 4b4:	04090003          	lb	zero,64(s2)
 4b8:	0100                	addi	s0,sp,128
 4ba:	0505                	addi	a0,a0,1
 4bc:	0200                	addi	s0,sp,256
 4be:	0104                	addi	s1,sp,128
 4c0:	0306                	slli	t1,t1,0x1
 4c2:	0900                	addi	s0,sp,144
 4c4:	0000                	unimp
 4c6:	0601                	addi	a2,a2,0
 4c8:	08090203          	lb	tp,128(s2)
 4cc:	0100                	addi	s0,sp,128
 4ce:	0105                	addi	sp,sp,1
 4d0:	0306                	slli	t1,t1,0x1
 4d2:	0901                	addi	s2,s2,0
 4d4:	0004                	0x4
 4d6:	0501                	addi	a0,a0,0
 4d8:	0305                	addi	t1,t1,1
 4da:	0010097f          	radd16	s2,zero,ra
 4de:	0501                	addi	a0,a0,0
 4e0:	0301                	addi	t1,t1,0
 4e2:	0901                	addi	s2,s2,0
 4e4:	0004                	0x4
 4e6:	0501                	addi	a0,a0,0
 4e8:	0305                	addi	t1,t1,1
 4ea:	0004097f          	radd16	s2,s0,zero
 4ee:	0501                	addi	a0,a0,0
 4f0:	0009                	c.nop	2
 4f2:	0402                	c.slli64	s0
 4f4:	7f030603          	lb	a2,2032(t1)
 4f8:	0409                	addi	s0,s0,2
 4fa:	0100                	addi	s0,sp,128
 4fc:	1705                	addi	a4,a4,-31
 4fe:	0200                	addi	s0,sp,256
 500:	0304                	addi	s1,sp,384
 502:	0306                	slli	t1,t1,0x1
 504:	0900                	addi	s0,sp,144
 506:	0000                	unimp
 508:	0501                	addi	a0,a0,0
 50a:	001c                	0x1c
 50c:	0402                	c.slli64	s0
 50e:	7f030603          	lb	a2,2032(t1)
 512:	1009                	c.nop	-30
 514:	0100                	addi	s0,sp,128
 516:	0809                	addi	a6,a6,2
 518:	0000                	unimp
 51a:	0101                	addi	sp,sp,0
 51c:	0000027b          	dkhmx8	tp,zero,zero
 520:	01480003          	lb	zero,20(a6)
 524:	0000                	unimp
 526:	0101                	addi	sp,sp,0
 528:	000d0efb          	dkhmx8	t4,s10,zero
 52c:	0101                	addi	sp,sp,0
 52e:	0101                	addi	sp,sp,0
 530:	0000                	unimp
 532:	0100                	addi	s0,sp,128
 534:	0000                	unimp
 536:	4501                	li	a0,0
 538:	2f3a                	fld	ft10,392(sp)
 53a:	6b726f77          	0x6b726f77
 53e:	3230322f          	0x3230322f
 542:	2f32                	fld	ft10,264(sp)
 544:	6c61                	lui	s8,0x18
 546:	3039                	0x3039
 548:	3030                	fld	fa2,96(s0)
 54a:	2f77732f          	0x2f77732f
 54e:	6564                	ld	s1,200(a0)
 550:	7562                	ld	a0,56(sp)
 552:	72656767          	0x72656767
 556:	5f6c612f          	0x5f6c612f
 55a:	6e65706f          	j	57c40 <_start-0x60fa83c0>
 55e:	2f64636f          	jal	t1,46854 <_start-0x60fb97ac>
 562:	746e6f63          	bltu	t3,t1,cc0 <_start-0x60fff340>
 566:	6972                	ld	s2,280(sp)
 568:	2f62                	fld	ft10,24(sp)
 56a:	6f6c                	ld	a1,216(a4)
 56c:	6461                	lui	s0,0x18
 56e:	7265                	lui	tp,0xffff9
 570:	6c662f73          	csrrs	t5,0x6c6,a2
 574:	7361                	lui	t1,0xffff8
 576:	2f68                	fld	fa0,216(a4)
 578:	6d65                	lui	s10,0x19
 57a:	636d                	lui	t1,0x1b
 57c:	6377642f          	0x6377642f
 580:	736d                	lui	t1,0xffffb
 582:	6368                	ld	a0,192(a4)
 584:	6372732f          	0x6372732f
 588:	6500                	ld	s0,8(a0)
 58a:	5c3a                	lw	s8,172(sp)
 58c:	6b726f77          	0x6b726f77
 590:	325c                	fld	fa5,160(a2)
 592:	3230                	fld	fa2,96(a2)
 594:	5c32                	lw	s8,44(sp)
 596:	6c61                	lui	s8,0x18
 598:	3039                	0x3039
 59a:	3030                	fld	fa2,96(s0)
 59c:	735c                	ld	a5,160(a4)
 59e:	6f735c77          	0x6f735c77
 5a2:	70612d63          	0x70612d63
 5a6:	2d75                	addiw	s10,s10,29
 5a8:	5c6b6473          	csrrsi	s0,0x5c6,22
 5ac:	6f74                	ld	a3,216(a4)
 5ae:	5c736c6f          	jal	s8,37374 <_start-0x60fc8c8c>
 5b2:	5c6e6977          	0x5c6e6977
 5b6:	6972                	ld	s2,280(sp)
 5b8:	5c766373          	csrrsi	t1,0x5c7,12
 5bc:	6972                	ld	s2,280(sp)
 5be:	2d766373          	csrrsi	t1,0x2d7,12
 5c2:	756e                	ld	a0,248(sp)
 5c4:	69656c63          	bltu	a0,s6,c5c <_start-0x60fff3a4>
 5c8:	652d                	lui	a0,0xb
 5ca:	666c                	ld	a1,200(a2)
 5cc:	695c                	ld	a5,144(a0)
 5ce:	636e                	ld	t1,216(sp)
 5d0:	756c                	ld	a1,232(a0)
 5d2:	6564                	ld	s1,200(a0)
 5d4:	6d5c                	ld	a5,152(a0)
 5d6:	6361                	lui	t1,0x18
 5d8:	6968                	ld	a0,208(a0)
 5da:	656e                	ld	a0,216(sp)
 5dc:	6500                	ld	s0,8(a0)
 5de:	5c3a                	lw	s8,172(sp)
 5e0:	6b726f77          	0x6b726f77
 5e4:	325c                	fld	fa5,160(a2)
 5e6:	3230                	fld	fa2,96(a2)
 5e8:	5c32                	lw	s8,44(sp)
 5ea:	6c61                	lui	s8,0x18
 5ec:	3039                	0x3039
 5ee:	3030                	fld	fa2,96(s0)
 5f0:	735c                	ld	a5,160(a4)
 5f2:	6f735c77          	0x6f735c77
 5f6:	70612d63          	0x70612d63
 5fa:	2d75                	addiw	s10,s10,29
 5fc:	5c6b6473          	csrrsi	s0,0x5c6,22
 600:	6f74                	ld	a3,216(a4)
 602:	5c736c6f          	jal	s8,373c8 <_start-0x60fc8c38>
 606:	5c6e6977          	0x5c6e6977
 60a:	6972                	ld	s2,280(sp)
 60c:	5c766373          	csrrsi	t1,0x5c7,12
 610:	6972                	ld	s2,280(sp)
 612:	2d766373          	csrrsi	t1,0x2d7,12
 616:	756e                	ld	a0,248(sp)
 618:	69656c63          	bltu	a0,s6,cb0 <_start-0x60fff350>
 61c:	652d                	lui	a0,0xb
 61e:	666c                	ld	a1,200(a2)
 620:	695c                	ld	a5,144(a0)
 622:	636e                	ld	t1,216(sp)
 624:	756c                	ld	a1,232(a0)
 626:	6564                	ld	s1,200(a0)
 628:	735c                	ld	a5,160(a4)
 62a:	7379                	lui	t1,0xffffe
 62c:	0000                	unimp
 62e:	7764                	ld	s1,232(a4)
 630:	68736d63          	bltu	t1,t2,cca <_start-0x60fff336>
 634:	72635f63          	bge	t1,t1,d72 <_start-0x60fff28e>
 638:	00632e63          	0x632e63
 63c:	0001                	nop
 63e:	5f00                	lw	s0,56(a4)
 640:	6564                	ld	s1,200(a0)
 642:	6166                	ld	sp,88(sp)
 644:	6c75                	lui	s8,0x1d
 646:	5f74                	lw	a3,124(a4)
 648:	7974                	ld	a3,240(a0)
 64a:	6570                	ld	a2,200(a0)
 64c:	00682e73          	csrrs	t3,0x6,a6
 650:	0002                	c.slli64	zero
 652:	5f00                	lw	s0,56(a4)
 654:	69647473          	csrrci	s0,0x696,8
 658:	746e                	ld	s0,248(sp)
 65a:	682e                	ld	a6,200(sp)
 65c:	0300                	addi	s0,sp,384
 65e:	0000                	unimp
 660:	7764                	ld	s1,232(a4)
 662:	68736d63          	bltu	t1,t2,cfc <_start-0x60fff304>
 666:	00682e63          	0x682e63
 66a:	0001                	nop
 66c:	0000                	unimp
 66e:	0105                	addi	sp,sp,1
 670:	0900                	addi	s0,sp,144
 672:	4c02                	lw	s8,0(sp)
 674:	0001                	nop
 676:	0061                	c.nop	24
 678:	0000                	unimp
 67a:	0300                	addi	s0,sp,384
 67c:	050100c7          	fmsub.h	ft1,ft2,fa6,ft0,rne
 680:	0305                	addi	t1,t1,1
 682:	0901                	addi	s2,s2,0
 684:	0000                	unimp
 686:	0301                	addi	t1,t1,0
 688:	0901                	addi	s2,s2,0
 68a:	0000                	unimp
 68c:	0301                	addi	t1,t1,0
 68e:	0901                	addi	s2,s2,0
 690:	0000                	unimp
 692:	0301                	addi	t1,t1,0
 694:	0901                	addi	s2,s2,0
 696:	0000                	unimp
 698:	0501                	addi	a0,a0,0
 69a:	0601                	addi	a2,a2,0
 69c:	00097c03          	0x97c03
 6a0:	0100                	addi	s0,sp,128
 6a2:	34090003          	lb	zero,832(s2)
 6a6:	0100                	addi	s0,sp,128
 6a8:	0905                	addi	s2,s2,1
 6aa:	10090d03          	lb	s10,256(s2)
 6ae:	0100                	addi	s0,sp,128
 6b0:	0e05                	addi	t3,t3,1
 6b2:	04097403          	0x4097403
 6b6:	0100                	addi	s0,sp,128
 6b8:	0905                	addi	s2,s2,1
 6ba:	08090c03          	lb	s8,128(s2)
 6be:	0100                	addi	s0,sp,128
 6c0:	0e05                	addi	t3,t3,1
 6c2:	08090103          	lb	sp,128(s2)
 6c6:	0100                	addi	s0,sp,128
 6c8:	2b05                	addiw	s6,s6,1
 6ca:	04090203          	lb	tp,64(s2)
 6ce:	0100                	addi	s0,sp,128
 6d0:	0a05                	addi	s4,s4,1
 6d2:	0306                	slli	t1,t1,0x1
 6d4:	0974                	addi	a3,sp,156
 6d6:	0008                	0x8
 6d8:	0501                	addi	a0,a0,0
 6da:	0305                	addi	t1,t1,1
 6dc:	00040913          	mv	s2,s0
 6e0:	0501                	addi	a0,a0,0
 6e2:	0601                	addi	a2,a2,0
 6e4:	00090203          	lb	tp,0(s2)
 6e8:	0100                	addi	s0,sp,128
 6ea:	0905                	addi	s2,s2,1
 6ec:	0306                	slli	t1,t1,0x1
 6ee:	096d                	addi	s2,s2,27
 6f0:	003c                	addi	a5,sp,8
 6f2:	0301                	addi	t1,t1,0
 6f4:	0904                	addi	s1,sp,144
 6f6:	000c                	0xc
 6f8:	0301                	addi	t1,t1,0
 6fa:	0901                	addi	s2,s2,0
 6fc:	0000                	unimp
 6fe:	0301                	addi	t1,t1,0
 700:	0902                	c.slli64	s2
 702:	0000                	unimp
 704:	0301                	addi	t1,t1,0
 706:	0901                	addi	s2,s2,0
 708:	0014                	0x14
 70a:	0501                	addi	a0,a0,0
 70c:	7c030613          	addi	a2,t1,1984 # ffffffffffffe7c0 <out_buf+0xffffffff9effdf60>
 710:	0809                	addi	a6,a6,2
 712:	0100                	addi	s0,sp,128
 714:	0e05                	addi	t3,t3,1
 716:	0306                	slli	t1,t1,0x1
 718:	0904                	addi	s1,sp,144
 71a:	0004                	0x4
 71c:	0501                	addi	a0,a0,0
 71e:	0619                	addi	a2,a2,6
 720:	00090003          	lb	zero,0(s2)
 724:	0100                	addi	s0,sp,128
 726:	0e05                	addi	t3,t3,1
 728:	04090003          	lb	zero,64(s2)
 72c:	0100                	addi	s0,sp,128
 72e:	0905                	addi	s2,s2,1
 730:	0306                	slli	t1,t1,0x1
 732:	0906                	slli	s2,s2,0x1
 734:	0004                	0x4
 736:	0501                	addi	a0,a0,0
 738:	0003060f          	0x3060f
 73c:	0009                	c.nop	2
 73e:	0100                	addi	s0,sp,128
 740:	0905                	addi	s2,s2,1
 742:	0306                	slli	t1,t1,0x1
 744:	0901                	addi	s2,s2,0
 746:	0004                	0x4
 748:	0501                	addi	a0,a0,0
 74a:	0610                	addi	a2,sp,768
 74c:	00090003          	lb	zero,0(s2)
 750:	0100                	addi	s0,sp,128
 752:	0d05                	addi	s10,s10,1
 754:	0306                	slli	t1,t1,0x1
 756:	0008097b          	dkhmx8	s2,a6,zero
 75a:	0501                	addi	a0,a0,0
 75c:	0618                	addi	a4,sp,768
 75e:	00090003          	lb	zero,0(s2)
 762:	0100                	addi	s0,sp,128
 764:	3205                	addiw	tp,tp,-31
 766:	04090003          	lb	zero,64(s2)
 76a:	0100                	addi	s0,sp,128
 76c:	4205                	li	tp,1
 76e:	04090003          	lb	zero,64(s2)
 772:	0100                	addi	s0,sp,128
 774:	3905                	addiw	s2,s2,-31
 776:	08090003          	lb	zero,128(s2)
 77a:	0100                	addi	s0,sp,128
 77c:	2b05                	addiw	s6,s6,1
 77e:	04090003          	lb	zero,64(s2)
 782:	0100                	addi	s0,sp,128
 784:	1105                	addi	sp,sp,-31
 786:	10090003          	lb	zero,256(s2)
 78a:	0100                	addi	s0,sp,128
 78c:	0d05                	addi	s10,s10,1
 78e:	0306                	slli	t1,t1,0x1
 790:	0901                	addi	s2,s2,0
 792:	0008                	0x8
 794:	0901                	addi	s2,s2,0
 796:	0004                	0x4
 798:	0100                	addi	s0,sp,128
 79a:	01              	Address 0x000000000000079a is out of bounds.


Disassembly of section .debug_info:

0000000000000000 <.debug_info>:
   0:	002a                	c.slli	zero,0xa
   2:	0000                	unimp
   4:	0002                	c.slli64	zero
   6:	0000                	unimp
   8:	0000                	unimp
   a:	0108                	addi	a0,sp,128
   c:	0000                	unimp
   e:	0000                	unimp
  10:	0000                	unimp
  12:	6100                	ld	s0,0(a0)
  14:	0000                	unimp
  16:	0000                	unimp
  18:	0010                	0x10
  1a:	6100                	ld	s0,0(a0)
	...
  24:	00000067          	jr	zero # 0 <_start-0x61000000>
  28:	00b5                	addi	ra,ra,13
  2a:	0000                	unimp
  2c:	8001                	c.srli64	s0
  2e:	00000287          	vle8.v	v5,(zero),v0.t
  32:	0004                	0x4
  34:	0014                	0x14
  36:	0000                	unimp
  38:	0108                	addi	a0,sp,128
  3a:	01da                	slli	gp,gp,0x16
  3c:	0000                	unimp
  3e:	5c0c                	lw	a1,56(s0)
  40:	0001                	nop
  42:	6700                	ld	s0,8(a4)
  44:	0000                	unimp
  46:	1000                	addi	s0,sp,32
  48:	0000                	unimp
  4a:	0061                	c.nop	24
  4c:	0000                	unimp
  4e:	3c00                	fld	fs0,56(s0)
  50:	0001                	nop
  52:	0000                	unimp
  54:	0000                	unimp
  56:	a700                	fsd	fs0,8(a4)
  58:	0000                	unimp
  5a:	0200                	addi	s0,sp,256
  5c:	0601                	addi	a2,a2,0
  5e:	00f8                	addi	a4,sp,76
  60:	0000                	unimp
  62:	0000cd03          	lbu	s10,0(ra)
  66:	0200                	addi	s0,sp,256
  68:	0040182b          	0x40182b
  6c:	0000                	unimp
  6e:	0102                	c.slli64	sp
  70:	f608                	sd	a0,40(a2)
  72:	0000                	unimp
  74:	0200                	addi	s0,sp,256
  76:	0502                	c.slli64	a0
  78:	0236                	slli	tp,tp,0xd
  7a:	0000                	unimp
  7c:	0202                	c.slli64	tp
  7e:	00011607          	flh	fa2,0(sp)
  82:	0400                	addi	s0,sp,512
  84:	0504                	addi	s1,sp,640
  86:	6e69                	lui	t3,0x1a
  88:	0074                	addi	a3,sp,12
  8a:	00015103          	lhu	sp,0(sp)
  8e:	0200                	addi	s0,sp,256
  90:	0068194f          	fnmadd.s	fs2,fa6,ft6,ft0,rtz
  94:	0000                	unimp
  96:	0402                	c.slli64	s0
  98:	00010907          	vle8.v	v18,(sp),v0.t
  9c:	0200                	addi	s0,sp,256
  9e:	0508                	addi	a0,sp,640
  a0:	00000247          	fmsub.s	ft4,ft0,ft0,ft0,rne
  a4:	0802                	c.slli64	a6
  a6:	00010407          	vle8.v	v8,(sp),v0.t
  aa:	0300                	addi	s0,sp,384
  ac:	000000cf          	fnmadd.s	ft1,ft0,ft0,ft0,rne
  b0:	34131803          	lh	a6,833(t1)
  b4:	0000                	unimp
  b6:	0300                	addi	s0,sp,384
  b8:	00000153          	fadd.s	ft2,ft0,ft0,rne
  bc:	5c143003          	ld	zero,1473(s0) # 185c1 <_start-0x60fe7a3f>
  c0:	0000                	unimp
  c2:	0500                	addi	s0,sp,640
  c4:	0089                	addi	ra,ra,2
  c6:	0000                	unimp
  c8:	8906                	mv	s2,ra
  ca:	0000                	unimp
  cc:	0700                	addi	s0,sp,896
  ce:	000000d7          	vadd.vv	v1,v0,v0,v0.t
  d2:	3901                	addiw	s2,s2,-32
  d4:	d006                	sw	ra,32(sp)
  d6:	0000                	unimp
  d8:	0061                	c.nop	24
  da:	0000                	unimp
  dc:	7c00                	ld	s0,56(s0)
  de:	0000                	unimp
  e0:	0000                	unimp
  e2:	0000                	unimp
  e4:	0100                	addi	s0,sp,128
  e6:	439c                	lw	a5,0(a5)
  e8:	0001                	nop
  ea:	0800                	addi	s0,sp,16
  ec:	000000c3          	fmadd.s	ft1,ft0,ft0,ft0,rne
  f0:	3901                	addiw	s2,s2,-32
  f2:	4329                	li	t1,10
  f4:	0001                	nop
  f6:	0000                	unimp
  f8:	0000                	unimp
  fa:	0800                	addi	s0,sp,16
  fc:	0240                	addi	s0,sp,260
  fe:	0000                	unimp
 100:	3901                	addiw	s2,s2,-32
 102:	493e                	lw	s2,204(sp)
 104:	0001                	nop
 106:	7200                	ld	s0,32(a2)
 108:	0000                	unimp
 10a:	0800                	addi	s0,sp,16
 10c:	025f 0000 3901      	0x39010000025f
 112:	0000894f          	fnmadd.s	fs2,ft1,ft0,ft0,rne
 116:	d100                	sw	s0,32(a0)
 118:	0000                	unimp
 11a:	0800                	addi	s0,sp,16
 11c:	01d1                	addi	gp,gp,20
 11e:	0000                	unimp
 120:	3901                	addiw	s2,s2,-32
 122:	8960                	0x8960
 124:	0000                	unimp
 126:	0a00                	addi	s0,sp,272
 128:	0001                	nop
 12a:	0900                	addi	s0,sp,144
 12c:	0069                	c.nop	26
 12e:	3b01                	addiw	s6,s6,-32
 130:	890e                	mv	s2,gp
 132:	0000                	unimp
 134:	4300                	lw	s0,0(a4)
 136:	0001                	nop
 138:	0a00                	addi	s0,sp,272
 13a:	0108                	addi	a0,sp,128
 13c:	6100                	ld	s0,0(a0)
 13e:	0000                	unimp
 140:	0000                	unimp
 142:	01ce                	slli	gp,gp,0x13
 144:	0000                	unimp
 146:	0128                	addi	a0,sp,136
 148:	0000                	unimp
 14a:	025a010b          	0x25a010b
 14e:	0078                	addi	a4,sp,12
 150:	015b010b          	0x15b010b
 154:	0035                	c.nop	13
 156:	340c                	fld	fa1,40(s0)
 158:	0001                	nop
 15a:	0061                	c.nop	24
 15c:	0000                	unimp
 15e:	ce00                	sw	s0,24(a2)
 160:	0001                	nop
 162:	0b00                	addi	s0,sp,400
 164:	5a01                	li	s4,-32
 166:	5a01f303          	0x5a01f303
 16a:	015b010b          	0x15b010b
 16e:	0031                	c.nop	12
 170:	0d00                	addi	s0,sp,656
 172:	9508                	0x9508
 174:	0000                	unimp
 176:	0d00                	addi	s0,sp,656
 178:	8908                	0x8908
 17a:	0000                	unimp
 17c:	0700                	addi	s0,sp,896
 17e:	01c0                	addi	s0,sp,196
 180:	0000                	unimp
 182:	1e01                	addi	t3,t3,-32
 184:	6806                	ld	a6,64(sp)
 186:	0000                	unimp
 188:	0061                	c.nop	24
 18a:	0000                	unimp
 18c:	6800                	ld	s0,16(s0)
 18e:	0000                	unimp
 190:	0000                	unimp
 192:	0000                	unimp
 194:	0100                	addi	s0,sp,128
 196:	c89c                	sw	a5,16(s1)
 198:	0001                	nop
 19a:	0e00                	addi	s0,sp,784
 19c:	000000c3          	fmadd.s	ft1,ft0,ft0,ft0,rne
 1a0:	1e01                	addi	t3,t3,-32
 1a2:	432a                	lw	t1,136(sp)
 1a4:	0001                	nop
 1a6:	0100                	addi	s0,sp,128
 1a8:	0e5a                	slli	t3,t3,0x16
 1aa:	025f 0000 1e01      	0x1e010000025f
 1b0:	893e                	mv	s2,a5
 1b2:	0000                	unimp
 1b4:	0100                	addi	s0,sp,128
 1b6:	0240085b          	0x240085b
 1ba:	0000                	unimp
 1bc:	1e01                	addi	t3,t3,-32
 1be:	c856                	sw	s5,16(sp)
 1c0:	0001                	nop
 1c2:	a200                	fsd	fs0,0(a2)
 1c4:	0001                	nop
 1c6:	0900                	addi	s0,sp,144
 1c8:	0069                	c.nop	26
 1ca:	2001                	0x2001
 1cc:	890e                	mv	s2,gp
 1ce:	0000                	unimp
 1d0:	f100                	sd	s0,32(a0)
 1d2:	0001                	nop
 1d4:	0f00                	addi	s0,sp,912
 1d6:	01b8                	addi	a4,sp,200
 1d8:	0000                	unimp
 1da:	2001                	0x2001
 1dc:	8911                	andi	a0,a0,4
 1de:	0000                	unimp
 1e0:	3b00                	fld	fs0,48(a4)
 1e2:	0002                	c.slli64	zero
 1e4:	0f00                	addi	s0,sp,912
 1e6:	0129                	addi	sp,sp,10
 1e8:	0000                	unimp
 1ea:	2101                	sext.w	sp,sp
 1ec:	7d0d                	lui	s10,0xfffe3
 1ee:	0000                	unimp
 1f0:	8400                	0x8400
 1f2:	0002                	c.slli64	zero
 1f4:	0000                	unimp
 1f6:	080d                	addi	a6,a6,3
 1f8:	009a                	slli	ra,ra,0x6
 1fa:	0000                	unimp
 1fc:	3310                	fld	fa2,32(a4)
 1fe:	0001                	nop
 200:	0100                	addi	s0,sp,128
 202:	050e                	slli	a0,a0,0x3
 204:	0055                	c.nop	21
 206:	0000                	unimp
 208:	002c                	addi	a1,sp,8
 20a:	6100                	ld	s0,0(a0)
 20c:	0000                	unimp
 20e:	0000                	unimp
 210:	003c                	addi	a5,sp,8
 212:	0000                	unimp
 214:	0000                	unimp
 216:	0000                	unimp
 218:	9c01                	subw	s0,s0,s0
 21a:	023d                	addi	tp,tp,15
 21c:	0000                	unimp
 21e:	c308                	sw	a0,0(a4)
 220:	0000                	unimp
 222:	0100                	addi	s0,sp,128
 224:	260e                	fld	fa2,192(sp)
 226:	00000143          	fmadd.s	ft2,ft0,ft0,ft0,rne
 22a:	02df 0000 5a0e      	0x5a0e000002df
 230:	0002                	c.slli64	zero
 232:	0100                	addi	s0,sp,128
 234:	390e                	fld	fs2,224(sp)
 236:	007d                	c.nop	31
 238:	0000                	unimp
 23a:	5b01                	li	s6,-32
 23c:	0001b80f          	0x1b80f
 240:	0100                	addi	s0,sp,128
 242:	0e10                	addi	a2,sp,784
 244:	0089                	addi	ra,ra,2
 246:	0000                	unimp
 248:	0318                	addi	a4,sp,384
 24a:	0000                	unimp
 24c:	5011                	c.li	zero,-28
 24e:	0002                	c.slli64	zero
 250:	0100                	addi	s0,sp,128
 252:	1710                	addi	a2,sp,928
 254:	0089                	addi	ra,ra,2
 256:	0000                	unimp
 258:	5f01                	li	t5,-32
 25a:	0001290f          	0x1290f
 25e:	0100                	addi	s0,sp,128
 260:	0d11                	addi	s10,s10,4
 262:	007d                	c.nop	31
 264:	0000                	unimp
 266:	034e                	slli	t1,t1,0x13
 268:	0000                	unimp
 26a:	1200                	addi	s0,sp,288
 26c:	000000e7          	jalr	zero # 0 <_start-0x61000000>
 270:	0301                	addi	t1,t1,0
 272:	0000890b          	0x890b
 276:	1000                	addi	s0,sp,32
 278:	0000                	unimp
 27a:	0061                	c.nop	24
 27c:	0000                	unimp
 27e:	1c00                	addi	s0,sp,560
 280:	0000                	unimp
 282:	0000                	unimp
 284:	0000                	unimp
 286:	0100                	addi	s0,sp,128
 288:	089c                	addi	a5,sp,80
 28a:	0141                	addi	sp,sp,16
 28c:	0000                	unimp
 28e:	0301                	addi	t1,t1,0
 290:	4924                	lw	s1,80(a0)
 292:	0001                	nop
 294:	a600                	fsd	fs0,8(a2)
 296:	09000003          	lb	zero,144(zero) # 90 <_start-0x60ffff70>
 29a:	01007077          	0x1007077
 29e:	0e05                	addi	t3,t3,1
 2a0:	0089                	addi	ra,ra,2
 2a2:	0000                	unimp
 2a4:	03dc                	addi	a5,sp,452
 2a6:	0000                	unimp
 2a8:	7209                	lui	tp,0xfffe2
 2aa:	0070                	addi	a2,sp,12
 2ac:	0501                	addi	a0,a0,0
 2ae:	8916                	mv	s2,t0
 2b0:	0000                	unimp
 2b2:	1300                	addi	s0,sp,416
 2b4:	0004                	0x4
 2b6:	0000                	unimp
 2b8:	df00                	sw	s0,56(a4)
 2ba:	0001                	nop
 2bc:	0400                	addi	s0,sp,512
 2be:	3600                	fld	fs0,40(a2)
 2c0:	0001                	nop
 2c2:	0800                	addi	s0,sp,16
 2c4:	da01                	beqz	a2,1d4 <_start-0x60fffe2c>
 2c6:	0001                	nop
 2c8:	0c00                	addi	s0,sp,528
 2ca:	0000028f          	0x28f
 2ce:	00000067          	jr	zero # 0 <_start-0x61000000>
 2d2:	014c                	addi	a1,sp,132
 2d4:	6100                	ld	s0,0(a0)
 2d6:	0000                	unimp
 2d8:	0000                	unimp
 2da:	0114                	addi	a3,sp,128
 2dc:	0000                	unimp
 2de:	0000                	unimp
 2e0:	0000                	unimp
 2e2:	051c                	addi	a5,sp,640
 2e4:	0000                	unimp
 2e6:	0102                	c.slli64	sp
 2e8:	f806                	sd	ra,48(sp)
 2ea:	0000                	unimp
 2ec:	0300                	addi	s0,sp,384
 2ee:	00cd                	addi	ra,ra,19
 2f0:	0000                	unimp
 2f2:	2b02                	fld	fs6,0(sp)
 2f4:	4018                	lw	a4,0(s0)
 2f6:	0000                	unimp
 2f8:	0200                	addi	s0,sp,256
 2fa:	0801                	addi	a6,a6,0
 2fc:	00f6                	slli	ra,ra,0x1d
 2fe:	0000                	unimp
 300:	0202                	c.slli64	tp
 302:	3605                	addiw	a2,a2,-31
 304:	0002                	c.slli64	zero
 306:	0200                	addi	s0,sp,256
 308:	0702                	c.slli64	a4
 30a:	0116                	slli	sp,sp,0x5
 30c:	0000                	unimp
 30e:	00026603          	lwu	a2,0(tp) # fffffffffffe2000 <out_buf+0xffffffff9efe17a0>
 312:	0200                	addi	s0,sp,256
 314:	184d                	addi	a6,a6,-13
 316:	0061                	c.nop	24
 318:	0000                	unimp
 31a:	0404                	addi	s1,sp,512
 31c:	6905                	lui	s2,0x1
 31e:	746e                	ld	s0,248(sp)
 320:	0300                	addi	s0,sp,384
 322:	0151                	addi	sp,sp,20
 324:	0000                	unimp
 326:	4f02                	lw	t5,0(sp)
 328:	7419                	lui	s0,0xfffe6
 32a:	0000                	unimp
 32c:	0200                	addi	s0,sp,256
 32e:	0704                	addi	s1,sp,896
 330:	0109                	addi	sp,sp,2
 332:	0000                	unimp
 334:	7405                	lui	s0,0xfffe1
 336:	0000                	unimp
 338:	0200                	addi	s0,sp,256
 33a:	0508                	addi	a0,sp,640
 33c:	00000247          	fmsub.s	ft4,ft0,ft0,ft0,rne
 340:	0802                	c.slli64	a6
 342:	00010407          	vle8.v	v8,(sp),v0.t
 346:	0300                	addi	s0,sp,384
 348:	000000cf          	fnmadd.s	ft1,ft0,ft0,ft0,rne
 34c:	34131803          	lh	a6,833(t1)
 350:	0000                	unimp
 352:	0300                	addi	s0,sp,384
 354:	0268                	addi	a0,sp,268
 356:	0000                	unimp
 358:	55132c03          	lw	s8,1361(t1)
 35c:	0000                	unimp
 35e:	0300                	addi	s0,sp,384
 360:	00000153          	fadd.s	ft2,ft0,ft0,rne
 364:	68143003          	ld	zero,1665(s0) # fffffffffffe1681 <out_buf+0xffffffff9efe0e21>
 368:	0000                	unimp
 36a:	0600                	addi	s0,sp,768
 36c:	00a6                	slli	ra,ra,0x9
 36e:	0000                	unimp
 370:	00007b07          	vle64.v	v22,(zero),v0.t
 374:	c700                	sw	s0,8(a4)
 376:	0000                	unimp
 378:	0800                	addi	s0,sp,16
 37a:	00000087          	vle8.v	v1,(zero),v0.t
 37e:	b70500ff          	0xb70500ff
 382:	0000                	unimp
 384:	0900                	addi	s0,sp,144
 386:	000002ef          	jal	t0,386 <_start-0x60fffc7a>
 38a:	0301                	addi	t1,t1,0
 38c:	0000c71b          	0xc71b
 390:	0900                	addi	s0,sp,144
 392:	00026003          	lwu	zero,0(tp) # 0 <_start-0x61000000>
 396:	0061                	c.nop	24
 398:	0000                	unimp
 39a:	0700                	addi	s0,sp,896
 39c:	008e                	slli	ra,ra,0x3
 39e:	0000                	unimp
 3a0:	000000f3          	0xf3
 3a4:	870a                	mv	a4,sp
 3a6:	0000                	unimp
 3a8:	ff00                	sd	s0,56(a4)
 3aa:	0001                	nop
 3ac:	fb09                	bnez	a4,2be <_start-0x60fffd42>
 3ae:	0002                	c.slli64	zero
 3b0:	0100                	addi	s0,sp,128
 3b2:	1046                	c.slli	zero,0x31
 3b4:	00e2                	slli	ra,ra,0x18
 3b6:	0000                	unimp
 3b8:	0309                	addi	t1,t1,2
 3ba:	0860                	addi	s0,sp,28
 3bc:	6100                	ld	s0,0(a0)
 3be:	0000                	unimp
 3c0:	0000                	unimp
 3c2:	0003030b          	0x3030b
 3c6:	0100                	addi	s0,sp,128
 3c8:	00610547          	fmsub.s	fa0,ft2,ft6,ft0,rne
 3cc:	0000                	unimp
 3ce:	014c                	addi	a1,sp,132
 3d0:	6100                	ld	s0,0(a0)
 3d2:	0000                	unimp
 3d4:	0000                	unimp
 3d6:	0114                	addi	a3,sp,128
 3d8:	0000                	unimp
 3da:	0000                	unimp
 3dc:	0000                	unimp
 3de:	9c01                	subw	s0,s0,s0
 3e0:	01d0                	addi	a2,sp,196
 3e2:	0000                	unimp
 3e4:	c30c                	sw	a1,0(a4)
 3e6:	0000                	unimp
 3e8:	0100                	addi	s0,sp,128
 3ea:	01d02547          	fmsub.s	fa0,ft0,ft9,ft0,rdn
 3ee:	0000                	unimp
 3f0:	044a                	slli	s0,s0,0x12
 3f2:	0000                	unimp
 3f4:	7a0c                	ld	a1,48(a2)
 3f6:	0002                	c.slli64	zero
 3f8:	0100                	addi	s0,sp,128
 3fa:	009a3847          	fmsub.s	fa6,fs4,fs1,ft0,rup
 3fe:	0000                	unimp
 400:	04a9                	addi	s1,s1,10
 402:	0000                	unimp
 404:	890c                	0x890c
 406:	0002                	c.slli64	zero
 408:	0100                	addi	s0,sp,128
 40a:	00614847          	fmsub.s	fa6,ft2,ft6,ft0,rmm
 40e:	0000                	unimp
 410:	0508                	addi	a0,sp,640
 412:	0000                	unimp
 414:	5f0c                	lw	a1,56(a4)
 416:	0002                	c.slli64	zero
 418:	0100                	addi	s0,sp,128
 41a:	00615347          	fmsub.s	ft6,ft2,ft6,ft0,unknown
 41e:	0000                	unimp
 420:	0564                	addi	s1,sp,652
 422:	0000                	unimp
 424:	630d                	lui	t1,0x3
 426:	6372                	ld	t1,280(sp)
 428:	0100                	addi	s0,sp,128
 42a:	0e49                	addi	t3,t3,18
 42c:	00a6                	slli	ra,ra,0x9
 42e:	0000                	unimp
 430:	05c0                	addi	s0,sp,708
 432:	0000                	unimp
 434:	700e                	0x700e
 436:	0002                	c.slli64	zero
 438:	0100                	addi	s0,sp,128
 43a:	094a                	slli	s2,s2,0x12
 43c:	0061                	c.nop	24
 43e:	0000                	unimp
 440:	061e                	slli	a2,a2,0x7
 442:	0000                	unimp
 444:	850e                	mv	a0,gp
 446:	0002                	c.slli64	zero
 448:	0100                	addi	s0,sp,128
 44a:	184a                	slli	a6,a6,0x32
 44c:	0061                	c.nop	24
 44e:	0000                	unimp
 450:	0642                	slli	a2,a2,0x10
 452:	0000                	unimp
 454:	690d                	lui	s2,0x3
 456:	0100                	addi	s0,sp,128
 458:	0061094b          	fnmsub.s	fs2,ft2,ft6,ft0,rne
 45c:	0000                	unimp
 45e:	0679                	addi	a2,a2,30
 460:	0000                	unimp
 462:	0002100f          	0x2100f
 466:	0061                	c.nop	24
 468:	0000                	unimp
 46a:	d600                	sw	s0,40(a2)
 46c:	0001                	nop
 46e:	1000                	addi	s0,sp,32
 470:	5a01                	li	s4,-32
 472:	8502                	jr	a0
 474:	1000                	addi	s0,sp,32
 476:	5b01                	li	s6,-32
 478:	8802                	jr	a6
 47a:	1000                	addi	s0,sp,32
 47c:	5c01                	li	s8,-32
 47e:	8402                	jr	s0
 480:	1000                	addi	s0,sp,32
 482:	5d01                	li	s10,-32
 484:	8602                	jr	a2
 486:	0000                	unimp
 488:	1100                	addi	s0,sp,160
 48a:	b208                	fsd	fa0,32(a2)
 48c:	0000                	unimp
 48e:	1200                	addi	s0,sp,288
 490:	000000d7          	vadd.vv	v1,v0,v0,v0.t
 494:	000000d7          	vadd.vv	v1,v0,v0,v0.t
 498:	3004                	fld	fs1,32(s0)
 49a:	0006                	c.slli	zero,0x1

Disassembly of section .debug_abbrev:

0000000000000000 <.debug_abbrev>:
   0:	1101                	addi	sp,sp,-32
   2:	1000                	addi	s0,sp,32
   4:	1106                	slli	sp,sp,0x21
   6:	1201                	addi	tp,tp,-32
   8:	0301                	addi	t1,t1,0
   a:	1b0e                	slli	s6,s6,0x23
   c:	250e                	fld	fa0,192(sp)
   e:	130e                	slli	t1,t1,0x23
  10:	0005                	c.nop	1
  12:	0000                	unimp
  14:	1101                	addi	sp,sp,-32
  16:	2501                	sext.w	a0,a0
  18:	130e                	slli	t1,t1,0x23
  1a:	1b0e030b          	0x1b0e030b
  1e:	110e                	slli	sp,sp,0x23
  20:	1201                	addi	tp,tp,-32
  22:	00171007          	flh	ft0,1(a4) # 1d001 <_start-0x60fe2fff>
  26:	0200                	addi	s0,sp,256
  28:	0024                	addi	s1,sp,8
  2a:	0b3e0b0b          	0xb3e0b0b
  2e:	00000e03          	lb	t3,0(zero) # 0 <_start-0x61000000>
  32:	03001603          	lh	a2,48(zero) # 30 <_start-0x60ffffd0>
  36:	3a0e                	fld	fs4,224(sp)
  38:	390b3b0b          	0x390b3b0b
  3c:	0013490b          	0x13490b
  40:	0400                	addi	s0,sp,512
  42:	0024                	addi	s1,sp,8
  44:	0b3e0b0b          	0xb3e0b0b
  48:	00000803          	lb	a6,0(zero) # 0 <_start-0x61000000>
  4c:	3505                	addiw	a0,a0,-31
  4e:	4900                	lw	s0,16(a0)
  50:	06000013          	li	zero,96
  54:	0026                	c.slli	zero,0x9
  56:	1349                	addi	t1,t1,-14
  58:	0000                	unimp
  5a:	3f012e07          	flw	ft8,1008(sp)
  5e:	0319                	addi	t1,t1,6
  60:	3a0e                	fld	fs4,224(sp)
  62:	390b3b0b          	0x390b3b0b
  66:	1119270b          	0x1119270b
  6a:	1201                	addi	tp,tp,-32
  6c:	97184007          	flq	ft0,-1679(a6)
  70:	1942                	slli	s2,s2,0x30
  72:	1301                	addi	t1,t1,-32
  74:	0000                	unimp
  76:	0508                	addi	a0,sp,640
  78:	0300                	addi	s0,sp,384
  7a:	3a0e                	fld	fs4,224(sp)
  7c:	390b3b0b          	0x390b3b0b
  80:	0213490b          	0x213490b
  84:	09000017          	auipc	zero,0x9000
  88:	0034                	addi	a3,sp,8
  8a:	0b3a0803          	lb	a6,179(s4) # 60b3 <_start-0x60ff9f4d>
  8e:	0b390b3b          	0xb390b3b
  92:	1349                	addi	t1,t1,-14
  94:	1702                	slli	a4,a4,0x20
  96:	0000                	unimp
  98:	890a                	mv	s2,sp
  9a:	0182                	c.slli64	gp
  9c:	1101                	addi	sp,sp,-32
  9e:	3101                	addiw	sp,sp,-32
  a0:	00130113          	addi	sp,t1,1 # 3001 <_start-0x60ffcfff>
  a4:	0b00                	addi	s0,sp,400
  a6:	828a                	mv	t0,sp
  a8:	0001                	nop
  aa:	1802                	slli	a6,a6,0x20
  ac:	4291                	li	t0,4
  ae:	0018                	0x18
  b0:	0c00                	addi	s0,sp,528
  b2:	8289                	srli	a3,a3,0x2
  b4:	0101                	addi	sp,sp,0
  b6:	0111                	addi	sp,sp,4
  b8:	4295                	li	t0,5
  ba:	3119                	addiw	sp,sp,-26
  bc:	0d000013          	li	zero,208
  c0:	0b0b000f          	0xb0b000f
  c4:	1349                	addi	t1,t1,-14
  c6:	0000                	unimp
  c8:	050e                	slli	a0,a0,0x3
  ca:	0300                	addi	s0,sp,384
  cc:	3a0e                	fld	fs4,224(sp)
  ce:	390b3b0b          	0x390b3b0b
  d2:	0213490b          	0x213490b
  d6:	0018                	0x18
  d8:	0f00                	addi	s0,sp,912
  da:	0034                	addi	a3,sp,8
  dc:	0b3a0e03          	lb	t3,179(s4)
  e0:	0b390b3b          	0xb390b3b
  e4:	1349                	addi	t1,t1,-14
  e6:	1702                	slli	a4,a4,0x20
  e8:	0000                	unimp
  ea:	2e10                	fld	fa2,24(a2)
  ec:	3f01                	addiw	t5,t5,-32
  ee:	0319                	addi	t1,t1,6
  f0:	3a0e                	fld	fs4,224(sp)
  f2:	390b3b0b          	0x390b3b0b
  f6:	4919270b          	0x4919270b
  fa:	12011113          	0x12011113
  fe:	97184007          	flq	ft0,-1679(a6)
 102:	1942                	slli	s2,s2,0x30
 104:	1301                	addi	t1,t1,-32
 106:	0000                	unimp
 108:	3411                	addiw	s0,s0,-28
 10a:	0300                	addi	s0,sp,384
 10c:	3a0e                	fld	fs4,224(sp)
 10e:	390b3b0b          	0x390b3b0b
 112:	0213490b          	0x213490b
 116:	0018                	0x18
 118:	1200                	addi	s0,sp,288
 11a:	012e                	slli	sp,sp,0xb
 11c:	0e03193f 0b3b0b3a 	0xb3b0b3a0e03193f
 124:	0b39                	addi	s6,s6,14
 126:	13491927          	fsh	fs4,306(s2) # 3132 <_start-0x60ffcece>
 12a:	0111                	addi	sp,sp,4
 12c:	0712                	slli	a4,a4,0x4
 12e:	1840                	addi	s0,sp,52
 130:	00194297          	auipc	t0,0x194
 134:	0000                	unimp
 136:	1101                	addi	sp,sp,-32
 138:	2501                	sext.w	a0,a0
 13a:	130e                	slli	t1,t1,0x23
 13c:	1b0e030b          	0x1b0e030b
 140:	110e                	slli	sp,sp,0x23
 142:	1201                	addi	tp,tp,-32
 144:	00171007          	flh	ft0,1(a4)
 148:	0200                	addi	s0,sp,256
 14a:	0024                	addi	s1,sp,8
 14c:	0b3e0b0b          	0xb3e0b0b
 150:	00000e03          	lb	t3,0(zero) # 0 <_start-0x61000000>
 154:	03001603          	lh	a2,48(zero) # 30 <_start-0x60ffffd0>
 158:	3a0e                	fld	fs4,224(sp)
 15a:	390b3b0b          	0x390b3b0b
 15e:	0013490b          	0x13490b
 162:	0400                	addi	s0,sp,512
 164:	0024                	addi	s1,sp,8
 166:	0b3e0b0b          	0xb3e0b0b
 16a:	00000803          	lb	a6,0(zero) # 0 <_start-0x61000000>
 16e:	2605                	addiw	a2,a2,1
 170:	4900                	lw	s0,16(a0)
 172:	06000013          	li	zero,96
 176:	0035                	c.nop	13
 178:	1349                	addi	t1,t1,-14
 17a:	0000                	unimp
 17c:	49010107          	vlsseg3e8.v	v2,(sp),a6,v0.t
 180:	00130113          	addi	sp,t1,1
 184:	0800                	addi	s0,sp,16
 186:	0021                	c.nop	8
 188:	1349                	addi	t1,t1,-14
 18a:	00000b2f          	0xb2f
 18e:	3409                	addiw	s0,s0,-30
 190:	0300                	addi	s0,sp,384
 192:	3a0e                	fld	fs4,224(sp)
 194:	390b3b0b          	0x390b3b0b
 198:	0213490b          	0x213490b
 19c:	0018                	0x18
 19e:	0a00                	addi	s0,sp,272
 1a0:	0021                	c.nop	8
 1a2:	1349                	addi	t1,t1,-14
 1a4:	0000052f          	0x52f
 1a8:	3f012e0b          	0x3f012e0b
 1ac:	0319                	addi	t1,t1,6
 1ae:	3a0e                	fld	fs4,224(sp)
 1b0:	390b3b0b          	0x390b3b0b
 1b4:	4919270b          	0x4919270b
 1b8:	12011113          	0x12011113
 1bc:	97184007          	flq	ft0,-1679(a6)
 1c0:	1942                	slli	s2,s2,0x30
 1c2:	1301                	addi	t1,t1,-32
 1c4:	0000                	unimp
 1c6:	050c                	addi	a1,sp,640
 1c8:	0300                	addi	s0,sp,384
 1ca:	3a0e                	fld	fs4,224(sp)
 1cc:	390b3b0b          	0x390b3b0b
 1d0:	0213490b          	0x213490b
 1d4:	0d000017          	auipc	zero,0xd000
 1d8:	0034                	addi	a3,sp,8
 1da:	0b3a0803          	lb	a6,179(s4)
 1de:	0b390b3b          	0xb390b3b
 1e2:	1349                	addi	t1,t1,-14
 1e4:	1702                	slli	a4,a4,0x20
 1e6:	0000                	unimp
 1e8:	340e                	fld	fs0,224(sp)
 1ea:	0300                	addi	s0,sp,384
 1ec:	3a0e                	fld	fs4,224(sp)
 1ee:	390b3b0b          	0x390b3b0b
 1f2:	0213490b          	0x213490b
 1f6:	0f000017          	auipc	zero,0xf000
 1fa:	8289                	srli	a3,a3,0x2
 1fc:	0101                	addi	sp,sp,0
 1fe:	0111                	addi	sp,sp,4
 200:	1331                	addi	t1,t1,-20
 202:	0000                	unimp
 204:	8a10                	0x8a10
 206:	0182                	c.slli64	gp
 208:	0200                	addi	s0,sp,256
 20a:	9118                	0x9118
 20c:	1842                	slli	a6,a6,0x30
 20e:	0000                	unimp
 210:	0f11                	addi	t5,t5,4
 212:	0b00                	addi	s0,sp,400
 214:	0013490b          	0x13490b
 218:	1200                	addi	s0,sp,288
 21a:	002e                	c.slli	zero,0xb
 21c:	193c193f 0e030e6e 	0xe030e6e193c193f
 224:	0b3a                	slli	s6,s6,0xe
 226:	0b390b3b          	0xb390b3b
 22a:	0000                	unimp
	...

Disassembly of section .debug_aranges:

0000000000000000 <.debug_aranges>:
   0:	002c                	addi	a1,sp,8
   2:	0000                	unimp
   4:	0002                	c.slli64	zero
   6:	0000                	unimp
   8:	0000                	unimp
   a:	0008                	0x8
   c:	0000                	unimp
   e:	0000                	unimp
  10:	0000                	unimp
  12:	6100                	ld	s0,0(a0)
  14:	0000                	unimp
  16:	0000                	unimp
  18:	0010                	0x10
	...
  2e:	0000                	unimp
  30:	002c                	addi	a1,sp,8
  32:	0000                	unimp
  34:	0002                	c.slli64	zero
  36:	002e                	c.slli	zero,0xb
  38:	0000                	unimp
  3a:	0008                	0x8
  3c:	0000                	unimp
  3e:	0000                	unimp
  40:	0010                	0x10
  42:	6100                	ld	s0,0(a0)
  44:	0000                	unimp
  46:	0000                	unimp
  48:	013c                	addi	a5,sp,136
	...
  5e:	0000                	unimp
  60:	002c                	addi	a1,sp,8
  62:	0000                	unimp
  64:	0002                	c.slli64	zero
  66:	02b9                	addi	t0,t0,14
  68:	0000                	unimp
  6a:	0008                	0x8
  6c:	0000                	unimp
  6e:	0000                	unimp
  70:	014c                	addi	a1,sp,132
  72:	6100                	ld	s0,0(a0)
  74:	0000                	unimp
  76:	0000                	unimp
  78:	0114                	addi	a3,sp,128
	...

Disassembly of section .debug_str:

0000000000000000 <.debug_str>:
   0:	3a45                	addiw	s4,s4,-15
   2:	726f772f          	0x726f772f
   6:	30322f6b          	0x30322f6b
   a:	3232                	fld	ft4,296(sp)
   c:	396c612f          	0x396c612f
  10:	3030                	fld	fa2,96(s0)
  12:	2f30                	fld	fa2,88(a4)
  14:	642f7773          	csrrci	a4,0x642,30
  18:	6265                	lui	tp,0x19
  1a:	6775                	lui	a4,0x1d
  1c:	2f726567          	0x2f726567
  20:	6c61                	lui	s8,0x18
  22:	6f5f 6570 6f6e      	0x6f6e65706f5f
  28:	632f6463          	bltu	t5,s2,650 <_start-0x60fff9b0>
  2c:	72746e6f          	jal	t3,46f52 <_start-0x60fb90ae>
  30:	6269                	lui	tp,0x1a
  32:	616f6c2f          	0x616f6c2f
  36:	6564                	ld	s1,200(a0)
  38:	7372                	ld	t1,312(sp)
  3a:	616c662f          	0x616c662f
  3e:	652f6873          	csrrsi	a6,0x652,30
  42:	6d6d                	lui	s10,0x1b
  44:	77642f63          	0x77642f63
  48:	68736d63          	bltu	t1,t2,6e2 <_start-0x60fff91e>
  4c:	72732f63          	0x72732f63
  50:	6f622f63          	0x6f622f63
  54:	722f746f          	jal	s0,f7776 <_start-0x60f0888a>
  58:	7369                	lui	t1,0xffffa
  5a:	775c7663          	bgeu	s8,s5,7c6 <_start-0x60fff83a>
  5e:	6172                	ld	sp,280(sp)
  60:	7070                	ld	a2,224(s0)
  62:	7265                	lui	tp,0xffff9
  64:	532e                	lw	t1,232(sp)
  66:	4500                	lw	s0,8(a0)
  68:	5c3a                	lw	s8,172(sp)
  6a:	6b726f77          	0x6b726f77
  6e:	325c                	fld	fa5,160(a2)
  70:	3230                	fld	fa2,96(a2)
  72:	5c32                	lw	s8,44(sp)
  74:	6c61                	lui	s8,0x18
  76:	3039                	0x3039
  78:	3030                	fld	fa2,96(s0)
  7a:	735c                	ld	a5,160(a4)
  7c:	65645c77          	0x65645c77
  80:	7562                	ld	a0,56(sp)
  82:	72656767          	0x72656767
  86:	615c                	ld	a5,128(a0)
  88:	5f6c                	lw	a1,124(a4)
  8a:	6e65706f          	j	57770 <_start-0x60fa8890>
  8e:	5c64636f          	jal	t1,46654 <_start-0x60fb99ac>
  92:	746e6f63          	bltu	t3,t1,7f0 <_start-0x60fff810>
  96:	6972                	ld	s2,280(sp)
  98:	5c62                	lw	s8,56(sp)
  9a:	6f6c                	ld	a1,216(a4)
  9c:	6461                	lui	s0,0x18
  9e:	7265                	lui	tp,0xffff9
  a0:	6c665c73          	csrrwi	s8,0x6c6,12
  a4:	7361                	lui	t1,0xffff8
  a6:	5c68                	lw	a0,124(s0)
  a8:	6d65                	lui	s10,0x19
  aa:	636d                	lui	t1,0x1b
  ac:	645c                	ld	a5,136(s0)
  ae:	736d6377          	0x736d6377
  b2:	6368                	ld	a0,192(a4)
  b4:	4700                	lw	s0,8(a4)
  b6:	554e                	lw	a0,240(sp)
  b8:	4120                	lw	s0,64(a0)
  ba:	2e322053          	0x2e322053
  be:	312e3633          	0x312e3633
  c2:	6300                	ld	s0,0(a4)
  c4:	7274                	ld	a3,224(a2)
  c6:	5f6c                	lw	a1,124(a4)
  c8:	6162                	ld	sp,24(sp)
  ca:	5f006573          	csrrsi	a0,0x5f0,0
  ce:	755f 6e69 3874      	0x38746e69755f
  d4:	745f 6500 6d6d      	0x6d6d6500745f
  da:	65725f63          	bge	tp,s7,738 <_start-0x60fff8c8>
  de:	6461                	lui	s0,0x18
  e0:	625f 6f6c 6b63      	0x6b636f6c625f
  e6:	6500                	ld	s0,8(a0)
  e8:	6d6d                	lui	s10,0x1b
  ea:	61775f63          	bge	a4,s7,708 <_start-0x60fff8f8>
  ee:	7469                	lui	s0,0xffffa
  f0:	665f 6669 006f      	0x6f6669665f
  f6:	6e75                	lui	t3,0x1d
  f8:	6e676973          	csrrsi	s2,0x6e6,14
  fc:	6465                	lui	s0,0x19
  fe:	6320                	ld	s0,64(a4)
 100:	6168                	ld	a0,192(a0)
 102:	0072                	c.slli	zero,0x1c
 104:	6f6c                	ld	a1,216(a4)
 106:	676e                	ld	a4,216(sp)
 108:	7520                	ld	s0,104(a0)
 10a:	736e                	ld	t1,248(sp)
 10c:	6769                	lui	a4,0x1a
 10e:	656e                	ld	a0,216(sp)
 110:	2064                	fld	fs1,192(s0)
 112:	6e69                	lui	t3,0x1a
 114:	0074                	addi	a3,sp,12
 116:	726f6873          	csrrsi	a6,0x726,30
 11a:	2074                	fld	fa3,192(s0)
 11c:	6e75                	lui	t3,0x1d
 11e:	6e676973          	csrrsi	s2,0x6e6,14
 122:	6465                	lui	s0,0x19
 124:	6920                	ld	s0,80(a0)
 126:	746e                	ld	s0,248(sp)
 128:	6400                	ld	s0,8(s0)
 12a:	5f656e6f          	jal	t3,56720 <_start-0x60fa98e0>
 12e:	6c66                	ld	s8,88(sp)
 130:	6761                	lui	a4,0x18
 132:	6500                	ld	s0,8(a0)
 134:	6d6d                	lui	s10,0x1b
 136:	6f705f63          	blez	s7,834 <_start-0x60fff7cc>
 13a:	6c6c                	ld	a1,216(s0)
 13c:	695f 746e 7700      	0x7700746e695f
 142:	5f6b726f          	jal	tp,b7738 <_start-0x60f488c8>
 146:	7261                	lui	tp,0xffff8
 148:	6165                	addi	sp,sp,112
 14a:	735f 6174 7472      	0x74726174735f
 150:	5f00                	lw	s0,56(a4)
 152:	755f 6e69 3374      	0x33746e69755f
 158:	5f32                	lw	t5,44(sp)
 15a:	0074                	addi	a3,sp,12
 15c:	3a45                	addiw	s4,s4,-15
 15e:	726f772f          	0x726f772f
 162:	30322f6b          	0x30322f6b
 166:	3232                	fld	ft4,296(sp)
 168:	396c612f          	0x396c612f
 16c:	3030                	fld	fa2,96(s0)
 16e:	2f30                	fld	fa2,88(a4)
 170:	642f7773          	csrrci	a4,0x642,30
 174:	6265                	lui	tp,0x19
 176:	6775                	lui	a4,0x1d
 178:	2f726567          	0x2f726567
 17c:	6c61                	lui	s8,0x18
 17e:	6f5f 6570 6f6e      	0x6f6e65706f5f
 184:	632f6463          	bltu	t5,s2,7ac <_start-0x60fff854>
 188:	72746e6f          	jal	t3,470ae <_start-0x60fb8f52>
 18c:	6269                	lui	tp,0x1a
 18e:	616f6c2f          	0x616f6c2f
 192:	6564                	ld	s1,200(a0)
 194:	7372                	ld	t1,312(sp)
 196:	616c662f          	0x616c662f
 19a:	652f6873          	csrrsi	a6,0x652,30
 19e:	6d6d                	lui	s10,0x1b
 1a0:	77642f63          	0x77642f63
 1a4:	68736d63          	bltu	t1,t2,83e <_start-0x60fff7c2>
 1a8:	72732f63          	0x72732f63
 1ac:	77642f63          	0x77642f63
 1b0:	68736d63          	bltu	t1,t2,84a <_start-0x60fff7b6>
 1b4:	00632e63          	0x632e63
 1b8:	6e69                	lui	t3,0x1a
 1ba:	5f74                	lw	a3,124(a4)
 1bc:	6176                	ld	sp,344(sp)
 1be:	006c                	addi	a1,sp,12
 1c0:	6d65                	lui	s10,0x19
 1c2:	636d                	lui	t1,0x1b
 1c4:	775f 6972 6574      	0x65746972775f
 1ca:	625f 6f6c 6b63      	0x6b636f6c625f
 1d0:	7700                	ld	s0,40(a4)
 1d2:	5f64726f          	jal	tp,477c8 <_start-0x60fb8838>
 1d6:	00746e63          	bltu	s0,t2,1f2 <_start-0x60fffe0e>
 1da:	20554e47          	fmsub.s	ft8,fa0,ft5,ft4,rmm
 1de:	20373143          	fmadd.s	ft2,fa4,ft3,ft4,rup
 1e2:	3031                	0x3031
 1e4:	322e                	fld	ft4,232(sp)
 1e6:	302e                	fld	ft0,232(sp)
 1e8:	2d20                	fld	fs0,88(a0)
 1ea:	616d                	addi	sp,sp,240
 1ec:	6372                	ld	t1,280(sp)
 1ee:	3d68                	fld	fa0,248(a0)
 1f0:	7672                	ld	a2,312(sp)
 1f2:	3436                	fld	fs0,360(sp)
 1f4:	2069                	0x2069
 1f6:	6d2d                	lui	s10,0xb
 1f8:	6261                	lui	tp,0x18
 1fa:	3d69                	addiw	s10,s10,-6
 1fc:	706c                	ld	a1,224(s0)
 1fe:	3436                	fld	fs0,360(sp)
 200:	2d20                	fld	fs0,88(a0)
 202:	746d                	lui	s0,0xffffb
 204:	6e75                	lui	t3,0x1d
 206:	3d65                	addiw	s10,s10,-7
 208:	6f72                	ld	t5,280(sp)
 20a:	74656b63          	bltu	a0,t1,960 <_start-0x60fff6a0>
 20e:	2d20                	fld	fs0,88(a0)
 210:	616d                	addi	sp,sp,240
 212:	6372                	ld	t1,280(sp)
 214:	3d68                	fld	fa0,248(a0)
 216:	7672                	ld	a2,312(sp)
 218:	3436                	fld	fs0,360(sp)
 21a:	2069                	0x2069
 21c:	672d                	lui	a4,0xb
 21e:	2d20                	fld	fs0,88(a0)
 220:	2d20734f          	fnmadd.h	ft6,ft0,fs2,ft5
 224:	6e66                	ld	t3,88(sp)
 226:	75622d6f          	jal	s10,2297c <_start-0x60fdd684>
 22a:	6c69                	lui	s8,0x1a
 22c:	6974                	ld	a3,208(a0)
 22e:	206e                	fld	ft0,216(sp)
 230:	662d                	lui	a2,0xb
 232:	4950                	lw	a2,20(a0)
 234:	68730043          	fmadd.s	ft0,ft6,ft7,fa3,rne
 238:	2074726f          	jal	tp,47c3e <_start-0x60fb83c2>
 23c:	6e69                	lui	t3,0x1a
 23e:	0074                	addi	a3,sp,12
 240:	7562                	ld	a0,56(sp)
 242:	6666                	ld	a2,88(sp)
 244:	7265                	lui	tp,0xffff9
 246:	6c00                	ld	s0,24(s0)
 248:	20676e6f          	jal	t3,7644e <_start-0x60f89bb2>
 24c:	6e69                	lui	t3,0x1a
 24e:	0074                	addi	a3,sp,12
 250:	61656c63          	bltu	a0,s6,868 <_start-0x60fff798>
 254:	5f72                	lw	t5,60(sp)
 256:	6572                	ld	a0,280(sp)
 258:	6c660067          	jr	1734(a2) # b6c6 <_start-0x60ff493a>
 25c:	6761                	lui	a4,0x18
 25e:	6f5f 6666 6573      	0x657366666f5f
 264:	0074                	addi	a3,sp,12
 266:	5f5f 6e69 3374      	0x33746e695f5f
 26c:	5f32                	lw	t5,44(sp)
 26e:	0074                	addi	a3,sp,12
 270:	5f727563          	bgeu	tp,s7,85a <_start-0x60fff7a6>
 274:	6e756f63          	bltu	a0,t2,972 <_start-0x60fff68e>
 278:	0074                	addi	a3,sp,12
 27a:	6c62                	ld	s8,24(sp)
 27c:	5f6b636f          	jal	t1,b6872 <_start-0x60f4978e>
 280:	657a6973          	csrrsi	s2,0x657,20
 284:	6300                	ld	s0,0(a4)
 286:	6372                	ld	t1,280(sp)
 288:	635f 756f 746e      	0x746e756f635f
 28e:	4500                	lw	s0,8(a0)
 290:	2f3a                	fld	ft10,392(sp)
 292:	6b726f77          	0x6b726f77
 296:	3230322f          	0x3230322f
 29a:	2f32                	fld	ft10,264(sp)
 29c:	6c61                	lui	s8,0x18
 29e:	3039                	0x3039
 2a0:	3030                	fld	fa2,96(s0)
 2a2:	2f77732f          	0x2f77732f
 2a6:	6564                	ld	s1,200(a0)
 2a8:	7562                	ld	a0,56(sp)
 2aa:	72656767          	0x72656767
 2ae:	5f6c612f          	0x5f6c612f
 2b2:	6e65706f          	j	57998 <_start-0x60fa8668>
 2b6:	2f64636f          	jal	t1,465ac <_start-0x60fb9a54>
 2ba:	746e6f63          	bltu	t3,t1,a18 <_start-0x60fff5e8>
 2be:	6972                	ld	s2,280(sp)
 2c0:	2f62                	fld	ft10,24(sp)
 2c2:	6f6c                	ld	a1,216(a4)
 2c4:	6461                	lui	s0,0x18
 2c6:	7265                	lui	tp,0xffff9
 2c8:	6c662f73          	csrrs	t5,0x6c6,a2
 2cc:	7361                	lui	t1,0xffff8
 2ce:	2f68                	fld	fa0,216(a4)
 2d0:	6d65                	lui	s10,0x19
 2d2:	636d                	lui	t1,0x1b
 2d4:	6377642f          	0x6377642f
 2d8:	736d                	lui	t1,0xffffb
 2da:	6368                	ld	a0,192(a4)
 2dc:	6372732f          	0x6372732f
 2e0:	6377642f          	0x6377642f
 2e4:	736d                	lui	t1,0xffffb
 2e6:	6368                	ld	a0,192(a4)
 2e8:	635f 6372 632e      	0x632e6372635f
 2ee:	6300                	ld	s0,0(a4)
 2f0:	6372                	ld	t1,280(sp)
 2f2:	745f3233          	0x745f3233
 2f6:	6261                	lui	tp,0x18
 2f8:	656c                	ld	a1,200(a0)
 2fa:	6f00                	ld	s0,24(a4)
 2fc:	7475                	lui	s0,0xffffd
 2fe:	625f 6675 6500      	0x65006675625f
 304:	6d6d                	lui	s10,0x1b
 306:	77645f63          	bge	s0,s6,a84 <_start-0x60fff57c>
 30a:	68736d63          	bltu	t1,t2,9a4 <_start-0x60fff65c>
 30e:	          	beqz	zero,30e <_start-0x60fffcf2>

Disassembly of section .debug_loc:

0000000000000000 <.debug_loc>:
   0:	00c0                	addi	s0,sp,68
   2:	0000                	unimp
   4:	0000                	unimp
   6:	0000                	unimp
   8:	000000f7          	0xf7
   c:	0000                	unimp
   e:	0000                	unimp
  10:	0001                	nop
  12:	f75a                	sd	s6,424(sp)
  14:	0000                	unimp
  16:	0000                	unimp
  18:	0000                	unimp
  1a:	0c00                	addi	s0,sp,528
  1c:	0001                	nop
  1e:	0000                	unimp
  20:	0000                	unimp
  22:	0100                	addi	s0,sp,128
  24:	5800                	lw	s0,48(s0)
  26:	010c                	addi	a1,sp,128
  28:	0000                	unimp
  2a:	0000                	unimp
  2c:	0000                	unimp
  2e:	00000123          	sb	zero,2(zero) # 2 <_start-0x60fffffe>
  32:	0000                	unimp
  34:	0000                	unimp
  36:	0001                	nop
  38:	235a                	fld	ft6,400(sp)
  3a:	0001                	nop
  3c:	0000                	unimp
  3e:	0000                	unimp
  40:	2400                	fld	fs0,8(s0)
  42:	0001                	nop
  44:	0000                	unimp
  46:	0000                	unimp
  48:	0400                	addi	s0,sp,512
  4a:	f300                	sd	s0,32(a4)
  4c:	5a01                	li	s4,-32
  4e:	249f 0001 0000      	0x1249f
  54:	0000                	unimp
  56:	3c00                	fld	fs0,56(s0)
  58:	0001                	nop
  5a:	0000                	unimp
  5c:	0000                	unimp
  5e:	0100                	addi	s0,sp,128
  60:	5800                	lw	s0,48(s0)
	...
  72:	00c0                	addi	s0,sp,68
  74:	0000                	unimp
  76:	0000                	unimp
  78:	0000                	unimp
  7a:	00ec                	addi	a1,sp,76
  7c:	0000                	unimp
  7e:	0000                	unimp
  80:	0000                	unimp
  82:	0001                	nop
  84:	0000ec5b          	0xec5b
  88:	0000                	unimp
  8a:	0000                	unimp
  8c:	1800                	addi	s0,sp,48
  8e:	0001                	nop
  90:	0000                	unimp
  92:	0000                	unimp
  94:	0100                	addi	s0,sp,128
  96:	6200                	ld	s0,0(a2)
  98:	0118                	addi	a4,sp,128
  9a:	0000                	unimp
  9c:	0000                	unimp
  9e:	0000                	unimp
  a0:	0124                	addi	s1,sp,136
  a2:	0000                	unimp
  a4:	0000                	unimp
  a6:	0000                	unimp
  a8:	0004                	0x4
  aa:	9f5b01f3          	0x9f5b01f3
  ae:	0124                	addi	s1,sp,136
  b0:	0000                	unimp
  b2:	0000                	unimp
  b4:	0000                	unimp
  b6:	013c                	addi	a5,sp,136
  b8:	0000                	unimp
  ba:	0000                	unimp
  bc:	0000                	unimp
  be:	0001                	nop
  c0:	0062                	c.slli	zero,0x18
	...
  ce:	0000                	unimp
  d0:	c000                	sw	s0,0(s0)
  d2:	0000                	unimp
  d4:	0000                	unimp
  d6:	0000                	unimp
  d8:	f700                	sd	s0,40(a4)
  da:	0000                	unimp
  dc:	0000                	unimp
  de:	0000                	unimp
  e0:	0100                	addi	s0,sp,128
  e2:	5c00                	lw	s0,56(s0)
  e4:	000000f7          	0xf7
  e8:	0000                	unimp
  ea:	0000                	unimp
  ec:	013c                	addi	a5,sp,136
  ee:	0000                	unimp
  f0:	0000                	unimp
  f2:	0000                	unimp
  f4:	0004                	0x4
  f6:	9f5c01f3          	0x9f5c01f3
	...
 10a:	00c0                	addi	s0,sp,68
 10c:	0000                	unimp
 10e:	0000                	unimp
 110:	0000                	unimp
 112:	000000f7          	0xf7
 116:	0000                	unimp
 118:	0000                	unimp
 11a:	0001                	nop
 11c:	f75d                	bnez	a4,ca <_start-0x60ffff36>
 11e:	0000                	unimp
 120:	0000                	unimp
 122:	0000                	unimp
 124:	3c00                	fld	fs0,56(s0)
 126:	0001                	nop
 128:	0000                	unimp
 12a:	0000                	unimp
 12c:	0400                	addi	s0,sp,512
 12e:	f300                	sd	s0,32(a4)
 130:	5d01                	li	s10,-32
 132:	009f 0000 0000      	0x9f
	...
 140:	0000                	unimp
 142:	f800                	sd	s0,48(s0)
 144:	0000                	unimp
 146:	0000                	unimp
 148:	0000                	unimp
 14a:	fc00                	sd	s0,56(s0)
 14c:	0000                	unimp
 14e:	0000                	unimp
 150:	0000                	unimp
 152:	0200                	addi	s0,sp,256
 154:	3000                	fld	fs0,32(s0)
 156:	fc9f 0000 0000      	0xfc9f
 15c:	0000                	unimp
 15e:	2300                	fld	fs0,0(a4)
 160:	0001                	nop
 162:	0000                	unimp
 164:	0000                	unimp
 166:	0100                	addi	s0,sp,128
 168:	5f00                	lw	s0,56(a4)
 16a:	0124                	addi	s1,sp,136
 16c:	0000                	unimp
 16e:	0000                	unimp
 170:	0000                	unimp
 172:	0134                	addi	a3,sp,136
 174:	0000                	unimp
 176:	0000                	unimp
 178:	0000                	unimp
 17a:	0001                	nop
 17c:	345f 0001 0000      	0x1345f
 182:	0000                	unimp
 184:	3800                	fld	fs0,48(s0)
 186:	0001                	nop
 188:	0000                	unimp
 18a:	0000                	unimp
 18c:	0300                	addi	s0,sp,384
 18e:	7f00                	ld	s0,56(a4)
 190:	9f01                	subw	a4,a4,s0
	...
 1a2:	0058                	addi	a4,sp,4
 1a4:	0000                	unimp
 1a6:	0000                	unimp
 1a8:	0000                	unimp
 1aa:	0084                	addi	s1,sp,64
 1ac:	0000                	unimp
 1ae:	0000                	unimp
 1b0:	0000                	unimp
 1b2:	0001                	nop
 1b4:	845c                	0x845c
 1b6:	0000                	unimp
 1b8:	0000                	unimp
 1ba:	0000                	unimp
 1bc:	9400                	0x9400
 1be:	0000                	unimp
 1c0:	0000                	unimp
 1c2:	0000                	unimp
 1c4:	0400                	addi	s0,sp,512
 1c6:	7f00                	ld	s0,56(a4)
 1c8:	7c80                	ld	s0,56(s1)
 1ca:	949f 0000 0000      	0x949f
 1d0:	0000                	unimp
 1d2:	c000                	sw	s0,0(s0)
 1d4:	0000                	unimp
 1d6:	0000                	unimp
 1d8:	0000                	unimp
 1da:	0400                	addi	s0,sp,512
 1dc:	f300                	sd	s0,32(a4)
 1de:	5c01                	li	s8,-32
 1e0:	009f 0000 0000      	0x9f
	...
 1ee:	0000                	unimp
 1f0:	8400                	0x8400
 1f2:	0000                	unimp
 1f4:	0000                	unimp
 1f6:	0000                	unimp
 1f8:	8c00                	0x8c00
 1fa:	0000                	unimp
 1fc:	0000                	unimp
 1fe:	0000                	unimp
 200:	0b00                	addi	s0,sp,400
 202:	7c00                	ld	s0,56(s0)
 204:	7f00                	ld	s0,56(a4)
 206:	1c00                	addi	s0,sp,560
 208:	32048023          	sb	zero,800(s1) # 2e3a28f2 <_start-0x32c5d70e>
 20c:	9f25                	addw	a4,a4,s1
 20e:	008c                	addi	a1,sp,64
 210:	0000                	unimp
 212:	0000                	unimp
 214:	0000                	unimp
 216:	0090                	addi	a2,sp,64
 218:	0000                	unimp
 21a:	0000                	unimp
 21c:	0000                	unimp
 21e:	007c000b          	0x7c000b
 222:	231c007f          	ursub16	zero,s8,a7
 226:	03fc                	addi	a5,sp,460
 228:	2532                	fld	fa0,264(sp)
 22a:	009f 0000 0000      	0x9f
	...
 238:	0000                	unimp
 23a:	7000                	ld	s0,32(s0)
 23c:	0000                	unimp
 23e:	0000                	unimp
 240:	0000                	unimp
 242:	8400                	0x8400
 244:	0000                	unimp
 246:	0000                	unimp
 248:	0000                	unimp
 24a:	0100                	addi	s0,sp,128
 24c:	5e00                	lw	s0,56(a2)
 24e:	009c                	addi	a5,sp,64
 250:	0000                	unimp
 252:	0000                	unimp
 254:	0000                	unimp
 256:	00ac                	addi	a1,sp,72
 258:	0000                	unimp
 25a:	0000                	unimp
 25c:	0000                	unimp
 25e:	0001                	nop
 260:	ac5f 0000 0000      	0xac5f
 266:	0000                	unimp
 268:	c000                	sw	s0,0(s0)
 26a:	0000                	unimp
 26c:	0000                	unimp
 26e:	0000                	unimp
 270:	0100                	addi	s0,sp,128
 272:	5e00                	lw	s0,56(a2)
	...
 284:	0070                	addi	a2,sp,12
 286:	0000                	unimp
 288:	0000                	unimp
 28a:	0000                	unimp
 28c:	0084                	addi	s1,sp,64
 28e:	0000                	unimp
 290:	0000                	unimp
 292:	0000                	unimp
 294:	007e0007          	0x7e0007
 298:	2534                	fld	fa3,72(a0)
 29a:	1a31                	addi	s4,s4,-20
 29c:	9c9f 0000 0000      	0x9c9f
 2a2:	0000                	unimp
 2a4:	ac00                	fsd	fs0,24(s0)
 2a6:	0000                	unimp
 2a8:	0000                	unimp
 2aa:	0000                	unimp
 2ac:	0700                	addi	s0,sp,896
 2ae:	7f00                	ld	s0,56(a4)
 2b0:	3100                	fld	fs0,32(a0)
 2b2:	3125                	addiw	sp,sp,-23
 2b4:	9f1a                	add	t5,t5,t1
 2b6:	00ac                	addi	a1,sp,72
 2b8:	0000                	unimp
 2ba:	0000                	unimp
 2bc:	0000                	unimp
 2be:	00c0                	addi	s0,sp,68
 2c0:	0000                	unimp
 2c2:	0000                	unimp
 2c4:	0000                	unimp
 2c6:	007e0007          	0x7e0007
 2ca:	2531                	addiw	a0,a0,12
 2cc:	1a31                	addi	s4,s4,-20
 2ce:	009f 0000 0000      	0x9f
	...
 2dc:	0000                	unimp
 2de:	1c00                	addi	s0,sp,560
 2e0:	0000                	unimp
 2e2:	0000                	unimp
 2e4:	0000                	unimp
 2e6:	5400                	lw	s0,40(s0)
 2e8:	0000                	unimp
 2ea:	0000                	unimp
 2ec:	0000                	unimp
 2ee:	0100                	addi	s0,sp,128
 2f0:	5a00                	lw	s0,48(a2)
 2f2:	0054                	addi	a3,sp,4
 2f4:	0000                	unimp
 2f6:	0000                	unimp
 2f8:	0000                	unimp
 2fa:	0058                	addi	a4,sp,4
 2fc:	0000                	unimp
 2fe:	0000                	unimp
 300:	0000                	unimp
 302:	0004                	0x4
 304:	9f5a01f3          	0x9f5a01f3
	...
 318:	002c                	addi	a1,sp,8
 31a:	0000                	unimp
 31c:	0000                	unimp
 31e:	0000                	unimp
 320:	003c                	addi	a5,sp,8
 322:	0000                	unimp
 324:	0000                	unimp
 326:	0000                	unimp
 328:	0001                	nop
 32a:	3c5e                	fld	fs8,496(sp)
 32c:	0000                	unimp
 32e:	0000                	unimp
 330:	0000                	unimp
 332:	5800                	lw	s0,48(s0)
 334:	0000                	unimp
 336:	0000                	unimp
 338:	0000                	unimp
 33a:	0100                	addi	s0,sp,128
 33c:	5c00                	lw	s0,56(s0)
	...
 34e:	001c                	0x1c
 350:	0000                	unimp
 352:	0000                	unimp
 354:	0000                	unimp
 356:	0024                	addi	s1,sp,8
 358:	0000                	unimp
 35a:	0000                	unimp
 35c:	0000                	unimp
 35e:	0002                	c.slli64	zero
 360:	9f30                	0x9f30
 362:	002c                	addi	a1,sp,8
 364:	0000                	unimp
 366:	0000                	unimp
 368:	0000                	unimp
 36a:	003c                	addi	a5,sp,8
 36c:	0000                	unimp
 36e:	0000                	unimp
 370:	0000                	unimp
 372:	0008                	0x8
 374:	007e                	c.slli	zero,0x1f
 376:	3125007b          	dkmda32	zero,a0,s2
 37a:	9f1a                	add	t5,t5,t1
 37c:	003c                	addi	a5,sp,8
 37e:	0000                	unimp
 380:	0000                	unimp
 382:	0000                	unimp
 384:	0058                	addi	a4,sp,4
 386:	0000                	unimp
 388:	0000                	unimp
 38a:	0000                	unimp
 38c:	0008                	0x8
 38e:	007c                	addi	a5,sp,12
 390:	3125007b          	dkmda32	zero,a0,s2
 394:	9f1a                	add	t5,t5,t1
	...
 3ae:	0004                	0x4
 3b0:	0000                	unimp
 3b2:	0000                	unimp
 3b4:	0000                	unimp
 3b6:	0001                	nop
 3b8:	045a                	slli	s0,s0,0x16
 3ba:	0000                	unimp
 3bc:	0000                	unimp
 3be:	0000                	unimp
 3c0:	1c00                	addi	s0,sp,560
 3c2:	0000                	unimp
 3c4:	0000                	unimp
 3c6:	0000                	unimp
 3c8:	0100                	addi	s0,sp,128
 3ca:	5e00                	lw	s0,56(a2)
	...
 3dc:	0004                	0x4
 3de:	0000                	unimp
 3e0:	0000                	unimp
 3e2:	0000                	unimp
 3e4:	0010                	0x10
 3e6:	0000                	unimp
 3e8:	0000                	unimp
 3ea:	0000                	unimp
 3ec:	0002                	c.slli64	zero
 3ee:	9f30                	0x9f30
 3f0:	0010                	0x10
 3f2:	0000                	unimp
 3f4:	0000                	unimp
 3f6:	0000                	unimp
 3f8:	001c                	0x1c
 3fa:	0000                	unimp
 3fc:	0000                	unimp
 3fe:	0000                	unimp
 400:	0001                	nop
 402:	005d                	c.nop	23
	...
 410:	0000                	unimp
 412:	0400                	addi	s0,sp,512
 414:	0000                	unimp
 416:	0000                	unimp
 418:	0000                	unimp
 41a:	1400                	addi	s0,sp,544
 41c:	0000                	unimp
 41e:	0000                	unimp
 420:	0000                	unimp
 422:	0200                	addi	s0,sp,256
 424:	3000                	fld	fs0,32(s0)
 426:	149f 0000 0000      	0x149f
 42c:	0000                	unimp
 42e:	1c00                	addi	s0,sp,560
 430:	0000                	unimp
 432:	0000                	unimp
 434:	0000                	unimp
 436:	0100                	addi	s0,sp,128
 438:	5a00                	lw	s0,48(a2)
	...
 452:	0064                	addi	s1,sp,12
 454:	0000                	unimp
 456:	0000                	unimp
 458:	0000                	unimp
 45a:	0001                	nop
 45c:	645a                	ld	s0,400(sp)
 45e:	0000                	unimp
 460:	0000                	unimp
 462:	0000                	unimp
 464:	8800                	0x8800
 466:	0000                	unimp
 468:	0000                	unimp
 46a:	0000                	unimp
 46c:	0100                	addi	s0,sp,128
 46e:	6500                	ld	s0,8(a0)
 470:	0088                	addi	a0,sp,64
 472:	0000                	unimp
 474:	0000                	unimp
 476:	0000                	unimp
 478:	00a4                	addi	s1,sp,72
 47a:	0000                	unimp
 47c:	0000                	unimp
 47e:	0000                	unimp
 480:	0004                	0x4
 482:	9f5a01f3          	0x9f5a01f3
 486:	00a4                	addi	s1,sp,72
 488:	0000                	unimp
 48a:	0000                	unimp
 48c:	0000                	unimp
 48e:	0114                	addi	a3,sp,128
 490:	0000                	unimp
 492:	0000                	unimp
 494:	0000                	unimp
 496:	0001                	nop
 498:	0065                	c.nop	25
	...
 4ae:	0000                	unimp
 4b0:	6400                	ld	s0,8(s0)
 4b2:	0000                	unimp
 4b4:	0000                	unimp
 4b6:	0000                	unimp
 4b8:	0100                	addi	s0,sp,128
 4ba:	5b00                	lw	s0,48(a4)
 4bc:	0064                	addi	s1,sp,12
 4be:	0000                	unimp
 4c0:	0000                	unimp
 4c2:	0000                	unimp
 4c4:	0090                	addi	a2,sp,64
 4c6:	0000                	unimp
 4c8:	0000                	unimp
 4ca:	0000                	unimp
 4cc:	0001                	nop
 4ce:	00009067          	0x9067
 4d2:	0000                	unimp
 4d4:	0000                	unimp
 4d6:	a400                	fsd	fs0,8(s0)
 4d8:	0000                	unimp
 4da:	0000                	unimp
 4dc:	0000                	unimp
 4de:	0400                	addi	s0,sp,512
 4e0:	f300                	sd	s0,32(a4)
 4e2:	5b01                	li	s6,-32
 4e4:	a49f 0000 0000      	0xa49f
 4ea:	0000                	unimp
 4ec:	1400                	addi	s0,sp,544
 4ee:	0001                	nop
 4f0:	0000                	unimp
 4f2:	0000                	unimp
 4f4:	0100                	addi	s0,sp,128
 4f6:	6700                	ld	s0,8(a4)
	...
 510:	0064                	addi	s1,sp,12
 512:	0000                	unimp
 514:	0000                	unimp
 516:	0000                	unimp
 518:	0001                	nop
 51a:	645c                	ld	a5,136(s0)
 51c:	0000                	unimp
 51e:	0000                	unimp
 520:	0000                	unimp
 522:	7800                	ld	s0,48(s0)
 524:	0000                	unimp
 526:	0000                	unimp
 528:	0000                	unimp
 52a:	0100                	addi	s0,sp,128
 52c:	5900                	lw	s0,48(a0)
 52e:	00a4                	addi	s1,sp,72
 530:	0000                	unimp
 532:	0000                	unimp
 534:	0000                	unimp
 536:	00dc                	addi	a5,sp,68
 538:	0000                	unimp
 53a:	0000                	unimp
 53c:	0000                	unimp
 53e:	0001                	nop
 540:	e459                	bnez	s0,5ce <_start-0x60fffa32>
 542:	0000                	unimp
 544:	0000                	unimp
 546:	0000                	unimp
 548:	1400                	addi	s0,sp,544
 54a:	0001                	nop
 54c:	0000                	unimp
 54e:	0000                	unimp
 550:	0100                	addi	s0,sp,128
 552:	5900                	lw	s0,48(a0)
	...
 56c:	0064                	addi	s1,sp,12
 56e:	0000                	unimp
 570:	0000                	unimp
 572:	0000                	unimp
 574:	0001                	nop
 576:	645d                	lui	s0,0x17
 578:	0000                	unimp
 57a:	0000                	unimp
 57c:	0000                	unimp
 57e:	8400                	0x8400
 580:	0000                	unimp
 582:	0000                	unimp
 584:	0000                	unimp
 586:	0100                	addi	s0,sp,128
 588:	6400                	ld	s0,8(s0)
 58a:	00a4                	addi	s1,sp,72
 58c:	0000                	unimp
 58e:	0000                	unimp
 590:	0000                	unimp
 592:	00e0                	addi	s0,sp,76
 594:	0000                	unimp
 596:	0000                	unimp
 598:	0000                	unimp
 59a:	0001                	nop
 59c:	e464                	sd	s1,200(s0)
 59e:	0000                	unimp
 5a0:	0000                	unimp
 5a2:	0000                	unimp
 5a4:	1400                	addi	s0,sp,544
 5a6:	0001                	nop
 5a8:	0000                	unimp
 5aa:	0000                	unimp
 5ac:	0100                	addi	s0,sp,128
 5ae:	6400                	ld	s0,8(s0)
	...
 5c8:	0064                	addi	s1,sp,12
 5ca:	0000                	unimp
 5cc:	0000                	unimp
 5ce:	0000                	unimp
 5d0:	ff090003          	lb	zero,-16(s2)
 5d4:	649f 0000 0000      	0x649f
 5da:	0000                	unimp
 5dc:	7400                	ld	s0,40(s0)
 5de:	0000                	unimp
 5e0:	0000                	unimp
 5e2:	0000                	unimp
 5e4:	0100                	addi	s0,sp,128
 5e6:	5800                	lw	s0,48(s0)
 5e8:	00a4                	addi	s1,sp,72
 5ea:	0000                	unimp
 5ec:	0000                	unimp
 5ee:	0000                	unimp
 5f0:	00f0                	addi	a2,sp,76
 5f2:	0000                	unimp
 5f4:	0000                	unimp
 5f6:	0000                	unimp
 5f8:	0001                	nop
 5fa:	1058                	addi	a4,sp,36
 5fc:	0001                	nop
 5fe:	0000                	unimp
 600:	0000                	unimp
 602:	1400                	addi	s0,sp,544
 604:	0001                	nop
 606:	0000                	unimp
 608:	0000                	unimp
 60a:	0100                	addi	s0,sp,128
 60c:	5800                	lw	s0,48(s0)
	...
 626:	0064                	addi	s1,sp,12
 628:	0000                	unimp
 62a:	0000                	unimp
 62c:	0000                	unimp
 62e:	0002                	c.slli64	zero
 630:	9f30                	0x9f30
	...
 64a:	0064                	addi	s1,sp,12
 64c:	0000                	unimp
 64e:	0000                	unimp
 650:	0000                	unimp
 652:	0002                	c.slli64	zero
 654:	9f30                	0x9f30
 656:	00d0                	addi	a2,sp,68
 658:	0000                	unimp
 65a:	0000                	unimp
 65c:	0000                	unimp
 65e:	00d4                	addi	a3,sp,68
 660:	0000                	unimp
 662:	0000                	unimp
 664:	0000                	unimp
 666:	0001                	nop
 668:	005e                	c.slli	zero,0x17
	...
 67e:	0000                	unimp
 680:	6400                	ld	s0,8(s0)
 682:	0000                	unimp
 684:	0000                	unimp
 686:	0000                	unimp
 688:	0200                	addi	s0,sp,256
 68a:	3000                	fld	fs0,32(s0)
 68c:	b09f 0000 0000      	0xb09f
 692:	0000                	unimp
 694:	d000                	sw	s0,32(s0)
 696:	0000                	unimp
 698:	0000                	unimp
 69a:	0000                	unimp
 69c:	0200                	addi	s0,sp,256
 69e:	3000                	fld	fs0,32(s0)
 6a0:	d09f 0000 0000      	0xd09f
 6a6:	0000                	unimp
 6a8:	f400                	sd	s0,40(s0)
 6aa:	0000                	unimp
 6ac:	0000                	unimp
 6ae:	0000                	unimp
 6b0:	0d00                	addi	s0,sp,656
 6b2:	7c00                	ld	s0,56(s0)
 6b4:	0300                	addi	s0,sp,384
 6b6:	0860                	addi	s0,sp,28
 6b8:	6100                	ld	s0,0(a0)
 6ba:	0000                	unimp
 6bc:	0000                	unimp
 6be:	9f1c                	0x9f1c
	...

Disassembly of section .debug_frame:

0000000000000000 <.debug_frame>:
   0:	000c                	0xc
   2:	0000                	unimp
   4:	ffffffff          	0xffffffff
   8:	7c010003          	lb	zero,1984(sp)
   c:	0d01                	addi	s10,s10,0
   e:	0002                	c.slli64	zero
  10:	0014                	0x14
  12:	0000                	unimp
  14:	0000                	unimp
  16:	0000                	unimp
  18:	0010                	0x10
  1a:	6100                	ld	s0,0(a0)
  1c:	0000                	unimp
  1e:	0000                	unimp
  20:	001c                	0x1c
  22:	0000                	unimp
  24:	0000                	unimp
  26:	0000                	unimp
  28:	0014                	0x14
  2a:	0000                	unimp
  2c:	0000                	unimp
  2e:	0000                	unimp
  30:	002c                	addi	a1,sp,8
  32:	6100                	ld	s0,0(a0)
  34:	0000                	unimp
  36:	0000                	unimp
  38:	003c                	addi	a5,sp,8
  3a:	0000                	unimp
  3c:	0000                	unimp
  3e:	0000                	unimp
  40:	0014                	0x14
  42:	0000                	unimp
  44:	0000                	unimp
  46:	0000                	unimp
  48:	0068                	addi	a0,sp,12
  4a:	6100                	ld	s0,0(a0)
  4c:	0000                	unimp
  4e:	0000                	unimp
  50:	0068                	addi	a0,sp,12
  52:	0000                	unimp
  54:	0000                	unimp
  56:	0000                	unimp
  58:	0034                	addi	a3,sp,8
  5a:	0000                	unimp
  5c:	0000                	unimp
  5e:	0000                	unimp
  60:	00d0                	addi	a2,sp,68
  62:	6100                	ld	s0,0(a0)
  64:	0000                	unimp
  66:	0000                	unimp
  68:	007c                	addi	a5,sp,12
  6a:	0000                	unimp
  6c:	0000                	unimp
  6e:	0000                	unimp
  70:	0e44                	addi	s1,sp,788
  72:	5020                	lw	s0,96(s0)
  74:	0488                	addi	a0,sp,576
  76:	0689                	addi	a3,a3,2
  78:	0892                	slli	a7,a7,0x4
  7a:	0281                	addi	t0,t0,0
  7c:	0a78                	addi	a4,sp,284
  7e:	44c8                	lw	a0,12(s1)
  80:	44c1                	li	s1,16
  82:	44c9                	li	s1,18
  84:	48d2                	lw	a7,20(sp)
  86:	000e                	c.slli	zero,0x3
  88:	0b44                	addi	s1,sp,404
  8a:	0000                	unimp
  8c:	0000                	unimp
  8e:	0000                	unimp
  90:	000c                	0xc
  92:	0000                	unimp
  94:	ffffffff          	0xffffffff
  98:	7c010003          	lb	zero,1984(sp)
  9c:	0d01                	addi	s10,s10,0
  9e:	0002                	c.slli64	zero
  a0:	0054                	addi	a3,sp,4
  a2:	0000                	unimp
  a4:	0090                	addi	a2,sp,64
  a6:	0000                	unimp
  a8:	014c                	addi	a1,sp,132
  aa:	6100                	ld	s0,0(a0)
  ac:	0000                	unimp
  ae:	0000                	unimp
  b0:	0114                	addi	a3,sp,128
  b2:	0000                	unimp
  b4:	0000                	unimp
  b6:	0000                	unimp
  b8:	0e44                	addi	s1,sp,788
  ba:	7060                	ld	s0,224(s0)
  bc:	0488                	addi	a0,sp,576
  be:	0689                	addi	a3,a3,2
  c0:	0c940a93          	addi	s5,s0,201 # 170c9 <_start-0x60fe8f37>
  c4:	0e95                	addi	t4,t4,5
  c6:	1096                	slli	ra,ra,0x25
  c8:	14981297          	auipc	t0,0x14981
  cc:	1699                	addi	a3,a3,-26
  ce:	189a                	slli	a7,a7,0x26
  d0:	0281                	addi	t0,t0,0
  d2:	0892                	slli	a7,a7,0x4
  d4:	0a78                	addi	a4,sp,284
  d6:	48c1                	li	a7,16
  d8:	44c8                	lw	a0,12(s1)
  da:	44c9                	li	s1,18
  dc:	44d2                	lw	s1,20(sp)
  de:	44d444d3          	0x44d444d3
  e2:	44d5                	li	s1,21
  e4:	44d6                	lw	s1,84(sp)
  e6:	44d844d7          	vmadc.vxm	v9,v13,a6,v0
  ea:	44d9                	li	s1,22
  ec:	44da                	lw	s1,148(sp)
  ee:	000e                	c.slli	zero,0x3
  f0:	0b44                	addi	s1,sp,404
  f2:	0000                	unimp
  f4:	0000                	unimp
	...
