
D:/work/2022/al9000/sw/debugger/al_openocd/contrib/loaders/flash/emmc/dwcmshc/build/emmc_riscv_64.elf:     file format elf32-littleriscv


Disassembly of section .text:

61000000 <_start>:
61000000:	00000117          	auipc	sp,0x0
61000004:	0b810113          	addi	sp,sp,184 # 610000b8 <stack_end>
61000008:	006000ef          	jal	ra,6100000e <emmc_dwcmshc>
6100000c:	9002                	ebreak

6100000e <emmc_dwcmshc>:
6100000e:	183a0737          	lui	a4,0x183a0
61000012:	20060613          	addi	a2,a2,512
61000016:	95b6                	add	a1,a1,a3
61000018:	08270713          	addi	a4,a4,130 # 183a0082 <_start-0x48c5ff7e>
6100001c:	40d587b3          	sub	a5,a1,a3
61000020:	00d04363          	bgtz	a3,61000026 <emmc_dwcmshc+0x18>
61000024:	8082                	ret
61000026:	c51c                	sw	a5,8(a0)
61000028:	c558                	sw	a4,12(a0)
6100002a:	591c                	lw	a5,48(a0)
6100002c:	0107f813          	andi	a6,a5,16
61000030:	fe080de3          	beqz	a6,6100002a <emmc_dwcmshc+0x1c>
61000034:	0107d813          	srli	a6,a5,0x10
61000038:	fe0819e3          	bnez	a6,6100002a <emmc_dwcmshc+0x1c>
6100003c:	0107e793          	ori	a5,a5,16
61000040:	d91c                	sw	a5,48(a0)
61000042:	e0060793          	addi	a5,a2,-512
61000046:	0007a803          	lw	a6,0(a5)
6100004a:	0791                	addi	a5,a5,4
6100004c:	03052023          	sw	a6,32(a0)
61000050:	fec79be3          	bne	a5,a2,61000046 <emmc_dwcmshc+0x38>
61000054:	591c                	lw	a5,48(a0)
61000056:	0027f813          	andi	a6,a5,2
6100005a:	fe080de3          	beqz	a6,61000054 <emmc_dwcmshc+0x46>
6100005e:	0107d813          	srli	a6,a5,0x10
61000062:	fe0819e3          	bnez	a6,61000054 <emmc_dwcmshc+0x46>
61000066:	0027e793          	ori	a5,a5,2
6100006a:	d91c                	sw	a5,48(a0)
6100006c:	e0068693          	addi	a3,a3,-512
61000070:	20060613          	addi	a2,a2,512
61000074:	b765                	j	6100001c <emmc_dwcmshc+0xe>

Disassembly of section .data:

61000078 <stack>:
61000078:	5309                	li	t1,-30
6100007a:	53090867          	jalr	a6,1328(s2)
6100007e:	53090867          	jalr	a6,1328(s2)
61000082:	53090867          	jalr	a6,1328(s2)
61000086:	53090867          	jalr	a6,1328(s2)
6100008a:	53090867          	jalr	a6,1328(s2)
6100008e:	53090867          	jalr	a6,1328(s2)
61000092:	53090867          	jalr	a6,1328(s2)
61000096:	53090867          	jalr	a6,1328(s2)
6100009a:	53090867          	jalr	a6,1328(s2)
6100009e:	53090867          	jalr	a6,1328(s2)
610000a2:	53090867          	jalr	a6,1328(s2)
610000a6:	53090867          	jalr	a6,1328(s2)
610000aa:	53090867          	jalr	a6,1328(s2)
610000ae:	53090867          	jalr	a6,1328(s2)
610000b2:	53090867          	jalr	a6,1328(s2)
610000b6:	          	jalr	a6,zero # 0 <_start-0x61000000>

Disassembly of section .debug_info:

00000000 <.debug_info>:
   0:	0131                	addi	sp,sp,12
   2:	0000                	unimp
   4:	0004                	0x4
   6:	0000                	unimp
   8:	0000                	unimp
   a:	0104                	addi	s1,sp,128
   c:	0000                	unimp
   e:	0000                	unimp
  10:	bb0c                	fsd	fa1,48(a4)
  12:	0000                	unimp
  14:	4a00                	lw	s0,16(a2)
  16:	0001                	nop
  18:	0e00                	addi	s0,sp,784
  1a:	0000                	unimp
  1c:	6861                	lui	a6,0x18
  1e:	0000                	unimp
  20:	0000                	unimp
  22:	0000                	unimp
  24:	0200                	addi	s0,sp,256
  26:	0601                	addi	a2,a2,0
  28:	005e                	c.slli	zero,0x17
  2a:	0000                	unimp
  2c:	00004403          	lbu	s0,0(zero) # 0 <_start-0x61000000>
  30:	0200                	addi	s0,sp,256
  32:	0038182b          	0x38182b
  36:	0000                	unimp
  38:	0102                	c.slli64	sp
  3a:	5c08                	lw	a0,56(s0)
  3c:	0000                	unimp
  3e:	0200                	addi	s0,sp,256
  40:	0502                	c.slli64	a0
  42:	012c                	addi	a1,sp,136
  44:	0000                	unimp
  46:	0202                	c.slli64	tp
  48:	00006a07          	0x6a07
  4c:	0200                	addi	s0,sp,256
  4e:	0504                	addi	s1,sp,640
  50:	011c                	addi	a5,sp,128
  52:	0000                	unimp
  54:	00008703          	lb	a4,0(ra)
  58:	0200                	addi	s0,sp,256
  5a:	0060194f          	fnmadd.s	fs2,ft0,ft6,ft0,rtz
  5e:	0000                	unimp
  60:	0402                	c.slli64	s0
  62:	0000a907          	flw	fs2,0(ra)
  66:	0200                	addi	s0,sp,256
  68:	0508                	addi	a0,sp,640
  6a:	00000117          	auipc	sp,0x0
  6e:	0802                	c.slli64	a6
  70:	0000a407          	flw	fs0,0(ra)
  74:	0400                	addi	s0,sp,512
  76:	0504                	addi	s1,sp,640
  78:	6e69                	lui	t3,0x1a
  7a:	0074                	addi	a3,sp,12
  7c:	0402                	c.slli64	s0
  7e:	0000ae07          	flw	ft8,0(ra)
  82:	0300                	addi	s0,sp,384
  84:	0046                	c.slli	zero,0x11
  86:	0000                	unimp
  88:	2c131803          	lh	a6,705(t1)
  8c:	0000                	unimp
  8e:	0300                	addi	s0,sp,384
  90:	0089                	addi	ra,ra,2
  92:	0000                	unimp
  94:	54143003          	0x54143003
  98:	0000                	unimp
  9a:	0500                	addi	s0,sp,640
  9c:	0000008f          	0x8f
  a0:	8f06                	mv	t5,ra
  a2:	0000                	unimp
  a4:	0700                	addi	s0,sp,896
  a6:	013d                	addi	sp,sp,15
  a8:	0000                	unimp
  aa:	2401                	jal	2aa <_start-0x60fffd56>
  ac:	0e06                	slli	t3,t3,0x1
  ae:	0000                	unimp
  b0:	6861                	lui	a6,0x18
  b2:	0000                	unimp
  b4:	0100                	addi	s0,sp,128
  b6:	289c                	fld	fa5,16(s1)
  b8:	0001                	nop
  ba:	0800                	addi	s0,sp,16
  bc:	0092                	slli	ra,ra,0x4
  be:	0000                	unimp
  c0:	2401                	jal	2c0 <_start-0x60fffd40>
  c2:	2826                	fld	fa6,72(sp)
  c4:	0001                	nop
  c6:	0100                	addi	s0,sp,128
  c8:	095a                	slli	s2,s2,0x16
  ca:	0125                	addi	sp,sp,9
  cc:	0000                	unimp
  ce:	2401                	jal	2ce <_start-0x60fffd32>
  d0:	8f3a                	mv	t5,a4
  d2:	0000                	unimp
  d4:	0000                	unimp
  d6:	0000                	unimp
  d8:	0900                	addi	s0,sp,144
  da:	0136                	slli	sp,sp,0xd
  dc:	0000                	unimp
  de:	2401                	jal	2de <_start-0x60fffd22>
  e0:	2e52                	fld	ft8,272(sp)
  e2:	0001                	nop
  e4:	6a00                	flw	fs0,16(a2)
  e6:	0000                	unimp
  e8:	0900                	addi	s0,sp,144
  ea:	004e                	c.slli	zero,0x13
  ec:	0000                	unimp
  ee:	2401                	jal	2ee <_start-0x60fffd12>
  f0:	755e                	flw	fa0,244(sp)
  f2:	0000                	unimp
  f4:	b200                	fsd	fs0,32(a2)
  f6:	0000                	unimp
  f8:	0a00                	addi	s0,sp,272
  fa:	0069                	c.nop	26
  fc:	2601                	jal	3fc <_start-0x60fffc04>
  fe:	8f0e                	mv	t5,gp
 100:	0000                	unimp
 102:	d000                	sw	s0,32(s0)
 104:	0000                	unimp
 106:	0b00                	addi	s0,sp,400
 108:	009c                	addi	a5,sp,64
 10a:	0000                	unimp
 10c:	2601                	jal	40c <_start-0x60fffbf4>
 10e:	8f11                	sub	a4,a4,a2
 110:	0000                	unimp
 112:	e400                	fsw	fs0,8(s0)
 114:	0000                	unimp
 116:	0b00                	addi	s0,sp,400
 118:	007d                	c.nop	31
 11a:	0000                	unimp
 11c:	2701                	jal	81c <_start-0x60fff7e4>
 11e:	830d                	srli	a4,a4,0x3
 120:	0000                	unimp
 122:	0200                	addi	s0,sp,256
 124:	0001                	nop
 126:	0000                	unimp
 128:	040c                	addi	a1,sp,512
 12a:	0000009b          	0x9b
 12e:	040c                	addi	a1,sp,512
 130:	00a0                	addi	s0,sp,72
 132:	0000                	unimp
 134:	2200                	fld	fs0,0(a2)
 136:	0000                	unimp
 138:	0200                	addi	s0,sp,256
 13a:	b000                	fsd	fs0,32(s0)
 13c:	0000                	unimp
 13e:	0400                	addi	s0,sp,512
 140:	c901                	beqz	a0,150 <_start-0x60fffeb0>
 142:	0002                	c.slli64	zero
 144:	0000                	unimp
 146:	0000                	unimp
 148:	0e61                	addi	t3,t3,24
 14a:	0000                	unimp
 14c:	9861                	andi	s0,s0,-8
 14e:	0001                	nop
 150:	4a00                	lw	s0,16(a2)
 152:	0001                	nop
 154:	ff00                	fsw	fs0,56(a4)
 156:	0001                	nop
 158:	0100                	addi	s0,sp,128
 15a:	80              	Address 0x000000000000015a is out of bounds.


Disassembly of section .debug_abbrev:

00000000 <.debug_abbrev>:
   0:	1101                	addi	sp,sp,-32
   2:	2501                	jal	602 <_start-0x60fff9fe>
   4:	130e                	slli	t1,t1,0x23
   6:	1b0e030b          	0x1b0e030b
   a:	110e                	slli	sp,sp,0x23
   c:	1201                	addi	tp,tp,-32
   e:	1006                	c.slli	zero,0x21
  10:	02000017          	auipc	zero,0x2000
  14:	0024                	addi	s1,sp,8
  16:	0b3e0b0b          	0xb3e0b0b
  1a:	00000e03          	lb	t3,0(zero) # 0 <_start-0x61000000>
  1e:	03001603          	lh	a2,48(zero) # 30 <_start-0x60ffffd0>
  22:	3a0e                	fld	fs4,224(sp)
  24:	390b3b0b          	0x390b3b0b
  28:	0013490b          	0x13490b
  2c:	0400                	addi	s0,sp,512
  2e:	0024                	addi	s1,sp,8
  30:	0b3e0b0b          	0xb3e0b0b
  34:	00000803          	lb	a6,0(zero) # 0 <_start-0x61000000>
  38:	3505                	jal	fffffe58 <stack_end+0x9efffda0>
  3a:	4900                	lw	s0,16(a0)
  3c:	06000013          	li	zero,96
  40:	0026                	c.slli	zero,0x9
  42:	1349                	addi	t1,t1,-14
  44:	0000                	unimp
  46:	3f012e07          	flw	ft8,1008(sp) # 45a <_start-0x60fffba6>
  4a:	0319                	addi	t1,t1,6
  4c:	3a0e                	fld	fs4,224(sp)
  4e:	390b3b0b          	0x390b3b0b
  52:	1119270b          	0x1119270b
  56:	1201                	addi	tp,tp,-32
  58:	4006                	0x4006
  5a:	9718                	0x9718
  5c:	1942                	slli	s2,s2,0x30
  5e:	1301                	addi	t1,t1,-32
  60:	0000                	unimp
  62:	0508                	addi	a0,sp,640
  64:	0300                	addi	s0,sp,384
  66:	3a0e                	fld	fs4,224(sp)
  68:	390b3b0b          	0x390b3b0b
  6c:	0213490b          	0x213490b
  70:	0018                	0x18
  72:	0900                	addi	s0,sp,144
  74:	0005                	c.nop	1
  76:	0b3a0e03          	lb	t3,179(s4)
  7a:	0b390b3b          	0xb390b3b
  7e:	1349                	addi	t1,t1,-14
  80:	1702                	slli	a4,a4,0x20
  82:	0000                	unimp
  84:	340a                	fld	fs0,160(sp)
  86:	0300                	addi	s0,sp,384
  88:	3a08                	fld	fa0,48(a2)
  8a:	390b3b0b          	0x390b3b0b
  8e:	0213490b          	0x213490b
  92:	0b000017          	auipc	zero,0xb000
  96:	0034                	addi	a3,sp,8
  98:	0b3a0e03          	lb	t3,179(s4)
  9c:	0b390b3b          	0xb390b3b
  a0:	1349                	addi	t1,t1,-14
  a2:	1702                	slli	a4,a4,0x20
  a4:	0000                	unimp
  a6:	0f0c                	addi	a1,sp,912
  a8:	0b00                	addi	s0,sp,400
  aa:	0013490b          	0x13490b
  ae:	0000                	unimp
  b0:	1101                	addi	sp,sp,-32
  b2:	1000                	addi	s0,sp,32
  b4:	1106                	slli	sp,sp,0x21
  b6:	1201                	addi	tp,tp,-32
  b8:	0301                	addi	t1,t1,0
  ba:	1b0e                	slli	s6,s6,0x23
  bc:	250e                	fld	fa0,192(sp)
  be:	130e                	slli	t1,t1,0x23
  c0:	0005                	c.nop	1
	...

Disassembly of section .debug_loc:

00000000 <.debug_loc>:
   0:	0000                	unimp
   2:	0000                	unimp
   4:	000a                	c.slli	zero,0x2
   6:	0000                	unimp
   8:	0001                	nop
   a:	00000a5b          	0xa5b
   e:	0e00                	addi	s0,sp,784
  10:	0000                	unimp
  12:	0400                	addi	s0,sp,512
  14:	f300                	fsw	fs0,32(a4)
  16:	5b01                	li	s6,-32
  18:	129f 0000 1c00      	0x1c000000129f
  1e:	0000                	unimp
  20:	0100                	addi	s0,sp,128
  22:	5f00                	lw	s0,56(a4)
  24:	001c                	0x1c
  26:	0000                	unimp
  28:	0062                	c.slli	zero,0x18
  2a:	0000                	unimp
  2c:	0006                	c.slli	zero,0x1
  2e:	007d007b          	0x7d007b
  32:	9f1c                	0x9f1c
  34:	0062                	c.slli	zero,0x18
  36:	0000                	unimp
  38:	0066                	c.slli	zero,0x19
  3a:	0000                	unimp
  3c:	007c000b          	0x7c000b
  40:	225b01f3          	0x225b01f3
  44:	1c5c01f3          	0x1c5c01f3
  48:	669f 0000 6800      	0x68000000669f
  4e:	0000                	unimp
  50:	0f00                	addi	s0,sp,912
  52:	7c00                	flw	fs0,56(s0)
  54:	f300                	fsw	fs0,32(a4)
  56:	5b01                	li	s6,-32
  58:	f322                	fsw	fs0,164(sp)
  5a:	5c01                	li	s8,-32
  5c:	0a1c                	addi	a5,sp,272
  5e:	0200                	addi	s0,sp,256
  60:	9f1c                	0x9f1c
	...
  6e:	0008                	0x8
  70:	0000                	unimp
  72:	0001                	nop
  74:	085c                	addi	a5,sp,20
  76:	0000                	unimp
  78:	0e00                	addi	s0,sp,784
  7a:	0000                	unimp
  7c:	0400                	addi	s0,sp,512
  7e:	7c00                	flw	fs0,56(s0)
  80:	7c80                	flw	fs0,56(s1)
  82:	129f 0000 6200      	0x62000000129f
  88:	0000                	unimp
  8a:	0400                	addi	s0,sp,512
  8c:	7c00                	flw	fs0,56(s0)
  8e:	7c80                	flw	fs0,56(s1)
  90:	629f 0000 6600      	0x66000000629f
  96:	0000                	unimp
  98:	0100                	addi	s0,sp,128
  9a:	5c00                	lw	s0,56(s0)
  9c:	0066                	c.slli	zero,0x19
  9e:	0000                	unimp
  a0:	0068                	addi	a0,sp,12
  a2:	0000                	unimp
  a4:	0004                	0x4
  a6:	807c                	0x807c
  a8:	9f7c                	0x9f7c
	...
  b6:	0062                	c.slli	zero,0x18
  b8:	0000                	unimp
  ba:	0001                	nop
  bc:	625d                	lui	tp,0x17
  be:	0000                	unimp
  c0:	6800                	flw	fs0,16(s0)
  c2:	0000                	unimp
  c4:	0100                	addi	s0,sp,128
  c6:	5d00                	lw	s0,56(a0)
	...
  d0:	0034                	addi	a3,sp,8
  d2:	0000                	unimp
  d4:	0038                	addi	a4,sp,8
  d6:	0000                	unimp
  d8:	0002                	c.slli64	zero
  da:	9f30                	0x9f30
	...
  e4:	001e                	c.slli	zero,0x7
  e6:	0000                	unimp
  e8:	0032                	c.slli	zero,0xc
  ea:	0000                	unimp
  ec:	0001                	nop
  ee:	485f 0000 5c00      	0x5c000000485f
  f4:	0000                	unimp
  f6:	0100                	addi	s0,sp,128
  f8:	5f00                	lw	s0,56(a4)
	...
 102:	001e                	c.slli	zero,0x7
 104:	0000                	unimp
 106:	0032                	c.slli	zero,0xc
 108:	0000                	unimp
 10a:	007f0007          	0x7f0007
 10e:	2534                	fld	fa3,72(a0)
 110:	1a31                	addi	s4,s4,-20
 112:	489f 0000 5c00      	0x5c000000489f
 118:	0000                	unimp
 11a:	0700                	addi	s0,sp,896
 11c:	7f00                	flw	fs0,56(a4)
 11e:	3100                	fld	fs0,32(a0)
 120:	3125                	jal	fffffd48 <stack_end+0x9efffc90>
 122:	9f1a                	add	t5,t5,t1
	...

Disassembly of section .debug_aranges:

00000000 <.debug_aranges>:
   0:	001c                	0x1c
   2:	0000                	unimp
   4:	0002                	c.slli64	zero
   6:	0000                	unimp
   8:	0000                	unimp
   a:	0004                	0x4
   c:	0000                	unimp
   e:	0000                	unimp
  10:	000e                	c.slli	zero,0x3
  12:	6100                	flw	fs0,0(a0)
  14:	0068                	addi	a0,sp,12
	...
  1e:	0000                	unimp
  20:	001c                	0x1c
  22:	0000                	unimp
  24:	0002                	c.slli64	zero
  26:	0135                	addi	sp,sp,13
  28:	0000                	unimp
  2a:	0004                	0x4
  2c:	0000                	unimp
  2e:	0000                	unimp
  30:	0000                	unimp
  32:	6100                	flw	fs0,0(a0)
  34:	000e                	c.slli	zero,0x3
	...

Disassembly of section .debug_line:

00000000 <.debug_line>:
   0:	02c5                	addi	t0,t0,17
   2:	0000                	unimp
   4:	01710003          	lb	zero,23(sp)
   8:	0000                	unimp
   a:	0101                	addi	sp,sp,0
   c:	000d0efb          	0xd0efb
  10:	0101                	addi	sp,sp,0
  12:	0101                	addi	sp,sp,0
  14:	0000                	unimp
  16:	0100                	addi	s0,sp,128
  18:	0000                	unimp
  1a:	4401                	li	s0,0
  1c:	2f3a                	fld	ft10,392(sp)
  1e:	6b726f77          	0x6b726f77
  22:	3230322f          	0x3230322f
  26:	2f32                	fld	ft10,264(sp)
  28:	6c61                	lui	s8,0x18
  2a:	3039                	jal	fffff838 <stack_end+0x9efff780>
  2c:	3030                	fld	fa2,96(s0)
  2e:	2f77732f          	0x2f77732f
  32:	6564                	flw	fs1,76(a0)
  34:	7562                	flw	fa0,56(sp)
  36:	72656767          	0x72656767
  3a:	5f6c612f          	0x5f6c612f
  3e:	6e65706f          	j	57724 <_start-0x60fa88dc>
  42:	2f64636f          	jal	t1,46338 <_start-0x60fb9cc8>
  46:	746e6f63          	bltu	t3,t1,7a4 <_start-0x60fff85c>
  4a:	6972                	flw	fs2,28(sp)
  4c:	2f62                	fld	ft10,24(sp)
  4e:	6f6c                	flw	fa1,92(a4)
  50:	6461                	lui	s0,0x18
  52:	7265                	lui	tp,0xffff9
  54:	6c662f73          	csrrs	t5,0x6c6,a2
  58:	7361                	lui	t1,0xffff8
  5a:	2f68                	fld	fa0,216(a4)
  5c:	6d65                	lui	s10,0x19
  5e:	636d                	lui	t1,0x1b
  60:	6377642f          	0x6377642f
  64:	736d                	lui	t1,0xffffb
  66:	6368                	flw	fa0,68(a4)
  68:	6372732f          	0x6372732f
  6c:	6400                	flw	fs0,8(s0)
  6e:	5c3a                	lw	s8,172(sp)
  70:	6b726f77          	0x6b726f77
  74:	325c                	fld	fa5,160(a2)
  76:	3230                	fld	fa2,96(a2)
  78:	5c31                	li	s8,-20
  7a:	6c61                	lui	s8,0x18
  7c:	735f 636f 615c      	0x615c636f735f
  82:	6c6e                	flw	fs8,216(sp)
  84:	6369676f          	jal	a4,966ba <_start-0x60f69946>
  88:	695f 6564 615c      	0x615c6564695f
  8e:	6c6e                	flw	fs8,216(sp)
  90:	6369676f          	jal	a4,966c6 <_start-0x60f6993a>
  94:	6365                	lui	t1,0x19
  96:	696c                	flw	fa1,84(a0)
  98:	7370                	flw	fa2,100(a4)
  9a:	5c65                	li	s8,-7
  9c:	6f74                	flw	fa3,92(a4)
  9e:	68636c6f          	jal	s8,36724 <_start-0x60fc98dc>
  a2:	6961                	lui	s2,0x18
  a4:	5c6e                	lw	s8,248(sp)
  a6:	6972                	flw	fs2,28(sp)
  a8:	2d766373          	csrrsi	t1,0x2d7,12
  ac:	6f6e                	flw	ft10,216(sp)
  ae:	656e                	flw	fa0,216(sp)
  b0:	652d                	lui	a0,0xb
  b2:	626d                	lui	tp,0x1b
  b4:	6465                	lui	s0,0x19
  b6:	772d                	lui	a4,0xfffeb
  b8:	6e69                	lui	t3,0x1a
  ba:	3436                	fld	fs0,360(sp)
  bc:	725c                	flw	fa5,36(a2)
  be:	7369                	lui	t1,0xffffa
  c0:	6e2d7663          	bgeu	s10,sp,7ac <_start-0x60fff854>
  c4:	2d656e6f          	jal	t3,5639a <_start-0x60fa9c66>
  c8:	6d65                	lui	s10,0x19
  ca:	6562                	flw	fa0,24(sp)
  cc:	5c64                	lw	s1,124(s0)
  ce:	6e69                	lui	t3,0x1a
  d0:	64756c63          	bltu	a0,t2,728 <_start-0x60fff8d8>
  d4:	5c65                	li	s8,-7
  d6:	616d                	addi	sp,sp,240
  d8:	6e696863          	bltu	s2,t1,7c8 <_start-0x60fff838>
  dc:	0065                	c.nop	25
  de:	3a64                	fld	fs1,240(a2)
  e0:	775c                	flw	fa5,44(a4)
  e2:	5c6b726f          	jal	tp,b76a8 <_start-0x60f48958>
  e6:	3032                	fld	ft0,296(sp)
  e8:	3132                	fld	ft2,296(sp)
  ea:	615c                	flw	fa5,4(a0)
  ec:	5f6c                	lw	a1,124(a4)
  ee:	5c636f73          	csrrsi	t5,0x5c6,6
  f2:	6e61                	lui	t3,0x18
  f4:	6f6c                	flw	fa1,92(a4)
  f6:	5f636967          	0x5f636967
  fa:	6469                	lui	s0,0x1a
  fc:	5c65                	li	s8,-7
  fe:	6e61                	lui	t3,0x18
 100:	6f6c                	flw	fa1,92(a4)
 102:	65636967          	0x65636967
 106:	70696c63          	bltu	s2,t1,81e <_start-0x60fff7e2>
 10a:	745c6573          	csrrsi	a0,0x745,24
 10e:	636c6f6f          	jal	t5,c6744 <_start-0x60f398bc>
 112:	6168                	flw	fa0,68(a0)
 114:	6e69                	lui	t3,0x1a
 116:	725c                	flw	fa5,36(a2)
 118:	7369                	lui	t1,0xffffa
 11a:	6e2d7663          	bgeu	s10,sp,806 <_start-0x60fff7fa>
 11e:	2d656e6f          	jal	t3,563f4 <_start-0x60fa9c0c>
 122:	6d65                	lui	s10,0x19
 124:	6562                	flw	fa0,24(sp)
 126:	2d64                	fld	fs1,216(a0)
 128:	366e6977          	0x366e6977
 12c:	5c34                	lw	a3,120(s0)
 12e:	6972                	flw	fs2,28(sp)
 130:	2d766373          	csrrsi	t1,0x2d7,12
 134:	6f6e                	flw	ft10,216(sp)
 136:	656e                	flw	fa0,216(sp)
 138:	652d                	lui	a0,0xb
 13a:	626d                	lui	tp,0x1b
 13c:	6465                	lui	s0,0x19
 13e:	695c                	flw	fa5,20(a0)
 140:	636e                	flw	ft6,216(sp)
 142:	756c                	flw	fa1,108(a0)
 144:	6564                	flw	fs1,76(a0)
 146:	735c                	flw	fa5,36(a4)
 148:	7379                	lui	t1,0xffffe
 14a:	0000                	unimp
 14c:	7764                	flw	fs1,108(a4)
 14e:	68736d63          	bltu	t1,t2,7e8 <_start-0x60fff818>
 152:	00632e63          	0x632e63
 156:	0001                	nop
 158:	5f00                	lw	s0,56(a4)
 15a:	6564                	flw	fs1,76(a0)
 15c:	6166                	flw	ft2,88(sp)
 15e:	6c75                	lui	s8,0x1d
 160:	5f74                	lw	a3,124(a4)
 162:	7974                	flw	fa3,116(a0)
 164:	6570                	flw	fa2,76(a0)
 166:	00682e73          	csrrs	t3,0x6,a6
 16a:	0002                	c.slli64	zero
 16c:	5f00                	lw	s0,56(a4)
 16e:	69647473          	csrrci	s0,0x696,8
 172:	746e                	flw	fs0,248(sp)
 174:	682e                	flw	fa6,200(sp)
 176:	0300                	addi	s0,sp,384
 178:	0000                	unimp
 17a:	0500                	addi	s0,sp,640
 17c:	0001                	nop
 17e:	0205                	addi	tp,tp,1
 180:	000e                	c.slli	zero,0x3
 182:	6100                	flw	fs0,0(a0)
 184:	05012403          	lw	s0,80(sp)
 188:	0305                	addi	t1,t1,1
 18a:	0901                	addi	s2,s2,0
 18c:	0000                	unimp
 18e:	0301                	addi	t1,t1,0
 190:	0901                	addi	s2,s2,0
 192:	0000                	unimp
 194:	0301                	addi	t1,t1,0
 196:	0902                	c.slli64	s2
 198:	0000                	unimp
 19a:	0501                	addi	a0,a0,0
 19c:	0609                	addi	a2,a2,2
 19e:	00090303          	lb	t1,0(s2) # 18000 <_start-0x60fe8000>
 1a2:	0100                	addi	s0,sp,128
 1a4:	0a05                	addi	s4,s4,1
 1a6:	12097d03          	0x12097d03
 1aa:	0100                	addi	s0,sp,128
 1ac:	0105                	addi	sp,sp,1
 1ae:	04092103          	lw	sp,64(s2)
 1b2:	0100                	addi	s0,sp,128
 1b4:	0905                	addi	s2,s2,1
 1b6:	0306                	slli	t1,t1,0x1
 1b8:	0961                	addi	s2,s2,24
 1ba:	0002                	c.slli64	zero
 1bc:	0301                	addi	t1,t1,0
 1be:	0900                	addi	s0,sp,144
 1c0:	0000                	unimp
 1c2:	0301                	addi	t1,t1,0
 1c4:	0901                	addi	s2,s2,0
 1c6:	0002                	c.slli64	zero
 1c8:	0301                	addi	t1,t1,0
 1ca:	0900                	addi	s0,sp,144
 1cc:	0000                	unimp
 1ce:	0301                	addi	t1,t1,0
 1d0:	0902                	c.slli64	s2
 1d2:	0002                	c.slli64	zero
 1d4:	0501                	addi	a0,a0,0
 1d6:	030d                	addi	t1,t1,3
 1d8:	0902                	c.slli64	s2
 1da:	0000                	unimp
 1dc:	0501                	addi	a0,a0,0
 1de:	0615                	addi	a2,a2,5
 1e0:	00090003          	lb	zero,0(s2)
 1e4:	0100                	addi	s0,sp,128
 1e6:	0d05                	addi	s10,s10,1
 1e8:	0306                	slli	t1,t1,0x1
 1ea:	0901                	addi	s2,s2,0
 1ec:	0002                	c.slli64	zero
 1ee:	0301                	addi	t1,t1,0
 1f0:	0901                	addi	s2,s2,0
 1f2:	0000                	unimp
 1f4:	0501                	addi	a0,a0,0
 1f6:	0003060f          	0x3060f
 1fa:	0009                	c.nop	2
 1fc:	0100                	addi	s0,sp,128
 1fe:	2705                	jal	91e <_start-0x60fff6e2>
 200:	0200                	addi	s0,sp,256
 202:	0104                	addi	s1,sp,128
 204:	08090003          	lb	zero,128(s2)
 208:	0100                	addi	s0,sp,128
 20a:	1a05                	addi	s4,s4,-31
 20c:	0200                	addi	s0,sp,256
 20e:	0104                	addi	s1,sp,128
 210:	04090003          	lb	zero,64(s2)
 214:	0100                	addi	s0,sp,128
 216:	0905                	addi	s2,s2,1
 218:	0306                	slli	t1,t1,0x1
 21a:	0904                	addi	s1,sp,144
 21c:	0004                	0x4
 21e:	0301                	addi	t1,t1,0
 220:	0900                	addi	s0,sp,144
 222:	0000                	unimp
 224:	0301                	addi	t1,t1,0
 226:	0902                	c.slli64	s2
 228:	0006                	c.slli	zero,0x1
 22a:	0501                	addi	a0,a0,0
 22c:	000d                	c.nop	3
 22e:	0402                	c.slli64	s0
 230:	09010303          	lb	t1,144(sp)
 234:	0004                	0x4
 236:	0001                	nop
 238:	0402                	c.slli64	s0
 23a:	09000303          	lb	t1,144(zero) # 90 <_start-0x60ffff70>
 23e:	0000                	unimp
 240:	0501                	addi	a0,a0,0
 242:	0009                	c.nop	2
 244:	0402                	c.slli64	s0
 246:	7f030603          	lb	a2,2032(t1) # ffffe7f0 <stack_end+0x9effe738>
 24a:	0a09                	addi	s4,s4,2
 24c:	0100                	addi	s0,sp,128
 24e:	0306                	slli	t1,t1,0x1
 250:	00040903          	lb	s2,0(s0) # 19000 <_start-0x60fe7000>
 254:	0501                	addi	a0,a0,0
 256:	030d                	addi	t1,t1,3
 258:	0902                	c.slli64	s2
 25a:	0000                	unimp
 25c:	0501                	addi	a0,a0,0
 25e:	0615                	addi	a2,a2,5
 260:	00090003          	lb	zero,0(s2)
 264:	0100                	addi	s0,sp,128
 266:	0d05                	addi	s10,s10,1
 268:	0306                	slli	t1,t1,0x1
 26a:	0901                	addi	s2,s2,0
 26c:	0002                	c.slli64	zero
 26e:	0301                	addi	t1,t1,0
 270:	0901                	addi	s2,s2,0
 272:	0000                	unimp
 274:	0501                	addi	a0,a0,0
 276:	0003060f          	0x3060f
 27a:	0009                	c.nop	2
 27c:	0100                	addi	s0,sp,128
 27e:	2705                	jal	99e <_start-0x60fff662>
 280:	0200                	addi	s0,sp,256
 282:	0104                	addi	s1,sp,128
 284:	08090003          	lb	zero,128(s2)
 288:	0100                	addi	s0,sp,128
 28a:	1a05                	addi	s4,s4,-31
 28c:	0200                	addi	s0,sp,256
 28e:	0104                	addi	s1,sp,128
 290:	04090003          	lb	zero,64(s2)
 294:	0100                	addi	s0,sp,128
 296:	0905                	addi	s2,s2,1
 298:	0306                	slli	t1,t1,0x1
 29a:	00040903          	lb	s2,0(s0)
 29e:	0301                	addi	t1,t1,0
 2a0:	0900                	addi	s0,sp,144
 2a2:	0000                	unimp
 2a4:	0301                	addi	t1,t1,0
 2a6:	0902                	c.slli64	s2
 2a8:	0006                	c.slli	zero,0x1
 2aa:	0501                	addi	a0,a0,0
 2ac:	00030617          	auipc	a2,0x30
 2b0:	0009                	c.nop	2
 2b2:	0100                	addi	s0,sp,128
 2b4:	0905                	addi	s2,s2,1
 2b6:	0306                	slli	t1,t1,0x1
 2b8:	0901                	addi	s2,s2,0
 2ba:	0004                	0x4
 2bc:	0301                	addi	t1,t1,0
 2be:	0901                	addi	s2,s2,0
 2c0:	0000                	unimp
 2c2:	0901                	addi	s2,s2,0
 2c4:	0006                	c.slli	zero,0x1
 2c6:	0100                	addi	s0,sp,128
 2c8:	9f01                	0x9f01
 2ca:	0000                	unimp
 2cc:	0300                	addi	s0,sp,384
 2ce:	7d00                	flw	fs0,56(a0)
 2d0:	0000                	unimp
 2d2:	0100                	addi	s0,sp,128
 2d4:	fb01                	bnez	a4,1e4 <_start-0x60fffe1c>
 2d6:	0d0e                	slli	s10,s10,0x3
 2d8:	0100                	addi	s0,sp,128
 2da:	0101                	addi	sp,sp,0
 2dc:	0001                	nop
 2de:	0000                	unimp
 2e0:	0001                	nop
 2e2:	0100                	addi	s0,sp,128
 2e4:	3a44                	fld	fs1,176(a2)
 2e6:	726f772f          	0x726f772f
 2ea:	30322f6b          	0x30322f6b
 2ee:	3232                	fld	ft4,296(sp)
 2f0:	396c612f          	0x396c612f
 2f4:	3030                	fld	fa2,96(s0)
 2f6:	2f30                	fld	fa2,88(a4)
 2f8:	642f7773          	csrrci	a4,0x642,30
 2fc:	6265                	lui	tp,0x19
 2fe:	6775                	lui	a4,0x1d
 300:	2f726567          	0x2f726567
 304:	6c61                	lui	s8,0x18
 306:	6f5f 6570 6f6e      	0x6f6e65706f5f
 30c:	632f6463          	bltu	t5,s2,934 <_start-0x60fff6cc>
 310:	72746e6f          	jal	t3,47236 <_start-0x60fb8dca>
 314:	6269                	lui	tp,0x1a
 316:	616f6c2f          	0x616f6c2f
 31a:	6564                	flw	fs1,76(a0)
 31c:	7372                	flw	ft6,60(sp)
 31e:	616c662f          	0x616c662f
 322:	652f6873          	csrrsi	a6,0x652,30
 326:	6d6d                	lui	s10,0x1b
 328:	77642f63          	0x77642f63
 32c:	68736d63          	bltu	t1,t2,9c6 <_start-0x60fff63a>
 330:	72732f63          	0x72732f63
 334:	6f622f63          	0x6f622f63
 338:	722f746f          	jal	s0,f7a5a <_start-0x60f085a6>
 33c:	7369                	lui	t1,0xffffa
 33e:	00007663          	bgeu	zero,zero,34a <_start-0x60fffcb6>
 342:	70617277          	0x70617277
 346:	6570                	flw	fa2,76(a0)
 348:	2e72                	fld	ft8,280(sp)
 34a:	00010053          	fadd.s	ft0,ft2,ft0,rne
 34e:	0000                	unimp
 350:	0500                	addi	s0,sp,640
 352:	0002                	c.slli64	zero
 354:	0000                	unimp
 356:	0361                	addi	t1,t1,24
 358:	010d                	addi	sp,sp,3
 35a:	08090103          	lb	sp,128(s2)
 35e:	0100                	addi	s0,sp,128
 360:	04090103          	lb	sp,64(s2)
 364:	0100                	addi	s0,sp,128
 366:	0209                	addi	tp,tp,2
 368:	0000                	unimp
 36a:	0101                	addi	sp,sp,0

Disassembly of section .debug_str:

00000000 <.debug_str>:
   0:	20554e47          	fmsub.s	ft8,fa0,ft5,ft4,rmm
   4:	20373143          	fmadd.s	ft2,fa4,ft3,ft4,rup
   8:	2e38                	fld	fa4,88(a2)
   a:	2e32                	fld	ft8,264(sp)
   c:	2030                	fld	fa2,64(s0)
   e:	6d2d                	lui	s10,0xb
  10:	7261                	lui	tp,0xffff8
  12:	723d6863          	bltu	s10,gp,742 <_start-0x60fff8be>
  16:	3376                	fld	ft6,376(sp)
  18:	6932                	flw	fs2,12(sp)
  1a:	616d                	addi	sp,sp,240
  1c:	6d2d2063          	0x6d2d2063
  20:	6261                	lui	tp,0x18
  22:	3d69                	jal	fffffebc <stack_end+0x9efffe04>
  24:	6c69                	lui	s8,0x1a
  26:	3370                	fld	fa2,224(a4)
  28:	2032                	fld	ft0,264(sp)
  2a:	672d                	lui	a4,0xb
  2c:	2d20                	fld	fs0,88(a0)
  2e:	2d20734f          	0x2d20734f
  32:	6e66                	flw	ft8,88(sp)
  34:	75622d6f          	jal	s10,2278a <_start-0x60fdd876>
  38:	6c69                	lui	s8,0x1a
  3a:	6974                	flw	fa3,84(a0)
  3c:	206e                	fld	ft0,216(sp)
  3e:	662d                	lui	a2,0xb
  40:	4950                	lw	a2,20(a0)
  42:	5f5f0043          	fmadd.q	ft0,ft10,fs5,fa1,rne
  46:	6975                	lui	s2,0x1d
  48:	746e                	flw	fs0,248(sp)
  4a:	5f38                	lw	a4,120(a4)
  4c:	0074                	addi	a3,sp,12
  4e:	657a6973          	csrrsi	s2,0x657,20
  52:	695f 5f6e 7962      	0x79625f6e695f
  58:	6574                	flw	fa3,76(a0)
  5a:	6e750073          	0x6e750073
  5e:	6e676973          	csrrsi	s2,0x6e6,14
  62:	6465                	lui	s0,0x19
  64:	6320                	flw	fs0,64(a4)
  66:	6168                	flw	fa0,68(a0)
  68:	0072                	c.slli	zero,0x1c
  6a:	726f6873          	csrrsi	a6,0x726,30
  6e:	2074                	fld	fa3,192(s0)
  70:	6e75                	lui	t3,0x1d
  72:	6e676973          	csrrsi	s2,0x6e6,14
  76:	6465                	lui	s0,0x19
  78:	6920                	flw	fs0,80(a0)
  7a:	746e                	flw	fs0,248(sp)
  7c:	6400                	flw	fs0,8(s0)
  7e:	5f656e6f          	jal	t3,56674 <_start-0x60fa998c>
  82:	6c66                	flw	fs8,88(sp)
  84:	6761                	lui	a4,0x18
  86:	5f00                	lw	s0,56(a4)
  88:	755f 6e69 3374      	0x33746e69755f
  8e:	5f32                	lw	t5,44(sp)
  90:	0074                	addi	a3,sp,12
  92:	6c727463          	bgeu	tp,t2,75a <_start-0x60fff8a6>
  96:	625f 7361 0065      	0x657361625f
  9c:	6e69                	lui	t3,0x1a
  9e:	5f74                	lw	a3,124(a4)
  a0:	6176                	flw	ft2,92(sp)
  a2:	006c                	addi	a1,sp,12
  a4:	6f6c                	flw	fa1,92(a4)
  a6:	676e                	flw	fa4,216(sp)
  a8:	6c20                	flw	fs0,88(s0)
  aa:	20676e6f          	jal	t3,762b0 <_start-0x60f89d50>
  ae:	6e75                	lui	t3,0x1d
  b0:	6e676973          	csrrsi	s2,0x6e6,14
  b4:	6465                	lui	s0,0x19
  b6:	6920                	flw	fs0,80(a0)
  b8:	746e                	flw	fs0,248(sp)
  ba:	4400                	lw	s0,8(s0)
  bc:	2f3a                	fld	ft10,392(sp)
  be:	6b726f77          	0x6b726f77
  c2:	3230322f          	0x3230322f
  c6:	2f32                	fld	ft10,264(sp)
  c8:	6c61                	lui	s8,0x18
  ca:	3039                	jal	fffff8d8 <stack_end+0x9efff820>
  cc:	3030                	fld	fa2,96(s0)
  ce:	2f77732f          	0x2f77732f
  d2:	6564                	flw	fs1,76(a0)
  d4:	7562                	flw	fa0,56(sp)
  d6:	72656767          	0x72656767
  da:	5f6c612f          	0x5f6c612f
  de:	6e65706f          	j	577c4 <_start-0x60fa883c>
  e2:	2f64636f          	jal	t1,463d8 <_start-0x60fb9c28>
  e6:	746e6f63          	bltu	t3,t1,844 <_start-0x60fff7bc>
  ea:	6972                	flw	fs2,28(sp)
  ec:	2f62                	fld	ft10,24(sp)
  ee:	6f6c                	flw	fa1,92(a4)
  f0:	6461                	lui	s0,0x18
  f2:	7265                	lui	tp,0xffff9
  f4:	6c662f73          	csrrs	t5,0x6c6,a2
  f8:	7361                	lui	t1,0xffff8
  fa:	2f68                	fld	fa0,216(a4)
  fc:	6d65                	lui	s10,0x19
  fe:	636d                	lui	t1,0x1b
 100:	6377642f          	0x6377642f
 104:	736d                	lui	t1,0xffffb
 106:	6368                	flw	fa0,68(a4)
 108:	6372732f          	0x6372732f
 10c:	6377642f          	0x6377642f
 110:	736d                	lui	t1,0xffffb
 112:	6368                	flw	fa0,68(a4)
 114:	632e                	flw	ft6,200(sp)
 116:	6c00                	flw	fs0,24(s0)
 118:	20676e6f          	jal	t3,7631e <_start-0x60f89ce2>
 11c:	6f6c                	flw	fa1,92(a4)
 11e:	676e                	flw	fa4,216(sp)
 120:	6920                	flw	fs0,80(a0)
 122:	746e                	flw	fs0,248(sp)
 124:	6f00                	flw	fs0,24(a4)
 126:	6666                	flw	fa2,88(sp)
 128:	00746573          	csrrsi	a0,0x7,8
 12c:	726f6873          	csrrsi	a6,0x726,30
 130:	2074                	fld	fa3,192(s0)
 132:	6e69                	lui	t3,0x1a
 134:	0074                	addi	a3,sp,12
 136:	7562                	flw	fa0,56(sp)
 138:	6666                	flw	fa2,88(sp)
 13a:	7265                	lui	tp,0xffff9
 13c:	6500                	flw	fs0,8(a0)
 13e:	6d6d                	lui	s10,0x1b
 140:	77645f63          	bge	s0,s6,8be <_start-0x60fff742>
 144:	68736d63          	bltu	t1,t2,7de <_start-0x60fff822>
 148:	3a440063          	beq	s0,tp,4e8 <_start-0x60fffb18>
 14c:	775c                	flw	fa5,44(a4)
 14e:	5c6b726f          	jal	tp,b7714 <_start-0x60f488ec>
 152:	3032                	fld	ft0,296(sp)
 154:	3232                	fld	ft4,296(sp)
 156:	615c                	flw	fa5,4(a0)
 158:	396c                	fld	fa1,240(a0)
 15a:	3030                	fld	fa2,96(s0)
 15c:	5c30                	lw	a2,120(s0)
 15e:	645c7773          	csrrci	a4,0x645,24
 162:	6265                	lui	tp,0x19
 164:	6775                	lui	a4,0x1d
 166:	5c726567          	0x5c726567
 16a:	6c61                	lui	s8,0x18
 16c:	6f5f 6570 6f6e      	0x6f6e65706f5f
 172:	635c6463          	bltu	s8,s5,79a <_start-0x60fff866>
 176:	72746e6f          	jal	t3,4709c <_start-0x60fb8f64>
 17a:	6269                	lui	tp,0x1a
 17c:	6c5c                	flw	fa5,28(s0)
 17e:	6564616f          	jal	sp,467d4 <_start-0x60fb982c>
 182:	7372                	flw	ft6,60(sp)
 184:	665c                	flw	fa5,12(a2)
 186:	616c                	flw	fa1,68(a0)
 188:	655c6873          	csrrsi	a6,0x655,24
 18c:	6d6d                	lui	s10,0x1b
 18e:	77645c63          	bge	s0,s6,906 <_start-0x60fff6fa>
 192:	68736d63          	bltu	t1,t2,82c <_start-0x60fff7d4>
 196:	3a440063          	beq	s0,tp,536 <_start-0x60fffaca>
 19a:	726f772f          	0x726f772f
 19e:	30322f6b          	0x30322f6b
 1a2:	3232                	fld	ft4,296(sp)
 1a4:	396c612f          	0x396c612f
 1a8:	3030                	fld	fa2,96(s0)
 1aa:	2f30                	fld	fa2,88(a4)
 1ac:	642f7773          	csrrci	a4,0x642,30
 1b0:	6265                	lui	tp,0x19
 1b2:	6775                	lui	a4,0x1d
 1b4:	2f726567          	0x2f726567
 1b8:	6c61                	lui	s8,0x18
 1ba:	6f5f 6570 6f6e      	0x6f6e65706f5f
 1c0:	632f6463          	bltu	t5,s2,7e8 <_start-0x60fff818>
 1c4:	72746e6f          	jal	t3,470ea <_start-0x60fb8f16>
 1c8:	6269                	lui	tp,0x1a
 1ca:	616f6c2f          	0x616f6c2f
 1ce:	6564                	flw	fs1,76(a0)
 1d0:	7372                	flw	ft6,60(sp)
 1d2:	616c662f          	0x616c662f
 1d6:	652f6873          	csrrsi	a6,0x652,30
 1da:	6d6d                	lui	s10,0x1b
 1dc:	77642f63          	0x77642f63
 1e0:	68736d63          	bltu	t1,t2,87a <_start-0x60fff786>
 1e4:	72732f63          	0x72732f63
 1e8:	6f622f63          	0x6f622f63
 1ec:	722f746f          	jal	s0,f790e <_start-0x60f086f2>
 1f0:	7369                	lui	t1,0xffffa
 1f2:	775c7663          	bgeu	s8,s5,95e <_start-0x60fff6a2>
 1f6:	6172                	flw	ft2,28(sp)
 1f8:	7070                	flw	fa2,100(s0)
 1fa:	7265                	lui	tp,0xffff9
 1fc:	532e                	lw	t1,232(sp)
 1fe:	4700                	lw	s0,8(a4)
 200:	554e                	lw	a0,240(sp)
 202:	4120                	lw	s0,64(a0)
 204:	2e322053          	0x2e322053
 208:	          	snez	tp,zero

Disassembly of section .comment:

00000000 <.comment>:
   0:	3a434347          	fmsub.d	ft6,ft6,ft4,ft7,rmm
   4:	2820                	fld	fs0,80(s0)
   6:	20554e47          	fmsub.s	ft8,fa0,ft5,ft4,rmm
   a:	434d                	li	t1,19
   c:	2055                	jal	b0 <_start-0x60ffff50>
   e:	6345                	lui	t1,0x11
  10:	696c                	flw	fa1,84(a0)
  12:	7370                	flw	fa2,100(a4)
  14:	2065                	jal	bc <_start-0x60ffff44>
  16:	4952                	lw	s2,20(sp)
  18:	562d4353          	0x562d4353
  1c:	4520                	lw	s0,72(a0)
  1e:	626d                	lui	tp,0x1b
  20:	6465                	lui	s0,0x19
  22:	6564                	flw	fs1,76(a0)
  24:	2064                	fld	fs1,192(s0)
  26:	2c434347          	0x2c434347
  2a:	3620                	fld	fs0,104(a2)
  2c:	2d34                	fld	fa3,88(a0)
  2e:	6962                	flw	fs2,24(sp)
  30:	2974                	fld	fa3,208(a0)
  32:	3820                	fld	fs0,112(s0)
  34:	322e                	fld	ft4,232(sp)
  36:	302e                	fld	ft0,232(sp)
	...

Disassembly of section .debug_frame:

00000000 <.debug_frame>:
   0:	000c                	0xc
   2:	0000                	unimp
   4:	ffff                	0xffff
   6:	ffff                	0xffff
   8:	0001                	nop
   a:	7c01                	lui	s8,0xfffe0
   c:	0d01                	addi	s10,s10,0
   e:	0002                	c.slli64	zero
  10:	000c                	0xc
  12:	0000                	unimp
  14:	0000                	unimp
  16:	0000                	unimp
  18:	000e                	c.slli	zero,0x3
  1a:	6100                	flw	fs0,0(a0)
  1c:	0068                	addi	a0,sp,12
	...
